Archive member included to satisfy reference by file (symbol)

./elibrary/bin/libsyscall.a(syscall.o)
                              emodules/mod_orange/built-in.o (esCHS_Char2Uni)
./elibrary/bin/libsyscall.a(syscall_fops.o)
                              emodules/mod_orange/built-in.o (ioctl)
./elibrary/bin/libminic.a(elibs_stdio.o)
                              emodules/mod_orange/built-in.o (eLIBs_remove)
./elibrary/bin/libminic.a(elibs_stdlib.o)
                              emodules/mod_orange/built-in.o (eLIBs_ramdom)
./elibrary/bin/libminic.a(elibs_string.o)
                              emodules/mod_orange/built-in.o (eLIBs_strlen)
./elibrary/bin/libminic.a(elibs_sprintf.o)
                              ./elibrary/bin/libminic.a(elibs_stdio.o) (eLIBs_vscnprintf)
./elibrary/bin/liblzma.a(az100.o)
                              emodules/mod_orange/built-in.o (AZ100_GetUncompressSize)
./elibrary/bin/liblzma.a(compress.o)
                              ./elibrary/bin/liblzma.a(az100.o) (AZ100_DataUncompress)
./elibrary/bin/liblzma.a(LzmaLib.o)
                              ./elibrary/bin/liblzma.a(compress.o) (LzmaUncompress)
./elibrary/bin/liblzma.a(LzmaDec.o)
                              ./elibrary/bin/liblzma.a(LzmaLib.o) (LzmaDecode)
/home/yuzuki/WorkSpace/melis-v3.0/melis-4.x-release/toolchain/riscv64-elf-x86_64-20201104/bin/../lib/gcc/riscv64-unknown-elf/8.4.0/../../../../riscv64-unknown-elf/lib/rv64imafdcxtheadc/lp64d/libc.a(lib_a-memcmp.o)
                              emodules/mod_orange/built-in.o (memcmp)
/home/yuzuki/WorkSpace/melis-v3.0/melis-4.x-release/toolchain/riscv64-elf-x86_64-20201104/bin/../lib/gcc/riscv64-unknown-elf/8.4.0/../../../../riscv64-unknown-elf/lib/rv64imafdcxtheadc/lp64d/libc.a(lib_a-memcpy.o)
                              emodules/mod_orange/built-in.o (memcpy)
/home/yuzuki/WorkSpace/melis-v3.0/melis-4.x-release/toolchain/riscv64-elf-x86_64-20201104/bin/../lib/gcc/riscv64-unknown-elf/8.4.0/../../../../riscv64-unknown-elf/lib/rv64imafdcxtheadc/lp64d/libc.a(lib_a-memmove-stub.o)
                              emodules/mod_orange/built-in.o (memmove)
/home/yuzuki/WorkSpace/melis-v3.0/melis-4.x-release/toolchain/riscv64-elf-x86_64-20201104/bin/../lib/gcc/riscv64-unknown-elf/8.4.0/../../../../riscv64-unknown-elf/lib/rv64imafdcxtheadc/lp64d/libc.a(lib_a-memset.o)
                              emodules/mod_orange/built-in.o (memset)
/home/yuzuki/WorkSpace/melis-v3.0/melis-4.x-release/toolchain/riscv64-elf-x86_64-20201104/bin/../lib/gcc/riscv64-unknown-elf/8.4.0/../../../../riscv64-unknown-elf/lib/rv64imafdcxtheadc/lp64d/libc.a(lib_a-strcpy.o)
                              emodules/mod_orange/built-in.o (strcpy)
/home/yuzuki/WorkSpace/melis-v3.0/melis-4.x-release/toolchain/riscv64-elf-x86_64-20201104/bin/../lib/gcc/riscv64-unknown-elf/8.4.0/../../../../riscv64-unknown-elf/lib/rv64imafdcxtheadc/lp64d/libc.a(lib_a-strlen.o)
                              emodules/mod_orange/built-in.o (strlen)
/home/yuzuki/WorkSpace/melis-v3.0/melis-4.x-release/toolchain/riscv64-elf-x86_64-20201104/bin/../lib/gcc/riscv64-unknown-elf/8.4.0/../../../../riscv64-unknown-elf/lib/rv64imafdcxtheadc/lp64d/libm.a(lib_a-s_ceil.o)
                              emodules/mod_orange/built-in.o (ceil)
/home/yuzuki/WorkSpace/melis-v3.0/melis-4.x-release/toolchain/riscv64-elf-x86_64-20201104/bin/../lib/gcc/riscv64-unknown-elf/8.4.0/../../../../riscv64-unknown-elf/lib/rv64imafdcxtheadc/lp64d/libm.a(lib_a-s_cos.o)
                              emodules/mod_orange/built-in.o (cos)
/home/yuzuki/WorkSpace/melis-v3.0/melis-4.x-release/toolchain/riscv64-elf-x86_64-20201104/bin/../lib/gcc/riscv64-unknown-elf/8.4.0/../../../../riscv64-unknown-elf/lib/rv64imafdcxtheadc/lp64d/libm.a(lib_a-s_floor.o)
                              emodules/mod_orange/built-in.o (floor)
/home/yuzuki/WorkSpace/melis-v3.0/melis-4.x-release/toolchain/riscv64-elf-x86_64-20201104/bin/../lib/gcc/riscv64-unknown-elf/8.4.0/../../../../riscv64-unknown-elf/lib/rv64imafdcxtheadc/lp64d/libm.a(lib_a-s_sin.o)
                              emodules/mod_orange/built-in.o (sin)
/home/yuzuki/WorkSpace/melis-v3.0/melis-4.x-release/toolchain/riscv64-elf-x86_64-20201104/bin/../lib/gcc/riscv64-unknown-elf/8.4.0/../../../../riscv64-unknown-elf/lib/rv64imafdcxtheadc/lp64d/libm.a(lib_a-w_sqrt.o)
                              emodules/mod_orange/built-in.o (sqrt)
/home/yuzuki/WorkSpace/melis-v3.0/melis-4.x-release/toolchain/riscv64-elf-x86_64-20201104/bin/../lib/gcc/riscv64-unknown-elf/8.4.0/../../../../riscv64-unknown-elf/lib/rv64imafdcxtheadc/lp64d/libm.a(lib_a-e_rem_pio2.o)
                              /home/yuzuki/WorkSpace/melis-v3.0/melis-4.x-release/toolchain/riscv64-elf-x86_64-20201104/bin/../lib/gcc/riscv64-unknown-elf/8.4.0/../../../../riscv64-unknown-elf/lib/rv64imafdcxtheadc/lp64d/libm.a(lib_a-s_cos.o) (__ieee754_rem_pio2)
/home/yuzuki/WorkSpace/melis-v3.0/melis-4.x-release/toolchain/riscv64-elf-x86_64-20201104/bin/../lib/gcc/riscv64-unknown-elf/8.4.0/../../../../riscv64-unknown-elf/lib/rv64imafdcxtheadc/lp64d/libm.a(lib_a-e_sqrt.o)
                              /home/yuzuki/WorkSpace/melis-v3.0/melis-4.x-release/toolchain/riscv64-elf-x86_64-20201104/bin/../lib/gcc/riscv64-unknown-elf/8.4.0/../../../../riscv64-unknown-elf/lib/rv64imafdcxtheadc/lp64d/libm.a(lib_a-w_sqrt.o) (__ieee754_sqrt)
/home/yuzuki/WorkSpace/melis-v3.0/melis-4.x-release/toolchain/riscv64-elf-x86_64-20201104/bin/../lib/gcc/riscv64-unknown-elf/8.4.0/../../../../riscv64-unknown-elf/lib/rv64imafdcxtheadc/lp64d/libm.a(lib_a-k_cos.o)
                              /home/yuzuki/WorkSpace/melis-v3.0/melis-4.x-release/toolchain/riscv64-elf-x86_64-20201104/bin/../lib/gcc/riscv64-unknown-elf/8.4.0/../../../../riscv64-unknown-elf/lib/rv64imafdcxtheadc/lp64d/libm.a(lib_a-s_cos.o) (__kernel_cos)
/home/yuzuki/WorkSpace/melis-v3.0/melis-4.x-release/toolchain/riscv64-elf-x86_64-20201104/bin/../lib/gcc/riscv64-unknown-elf/8.4.0/../../../../riscv64-unknown-elf/lib/rv64imafdcxtheadc/lp64d/libm.a(lib_a-k_rem_pio2.o)
                              /home/yuzuki/WorkSpace/melis-v3.0/melis-4.x-release/toolchain/riscv64-elf-x86_64-20201104/bin/../lib/gcc/riscv64-unknown-elf/8.4.0/../../../../riscv64-unknown-elf/lib/rv64imafdcxtheadc/lp64d/libm.a(lib_a-e_rem_pio2.o) (__kernel_rem_pio2)
/home/yuzuki/WorkSpace/melis-v3.0/melis-4.x-release/toolchain/riscv64-elf-x86_64-20201104/bin/../lib/gcc/riscv64-unknown-elf/8.4.0/../../../../riscv64-unknown-elf/lib/rv64imafdcxtheadc/lp64d/libm.a(lib_a-k_sin.o)
                              /home/yuzuki/WorkSpace/melis-v3.0/melis-4.x-release/toolchain/riscv64-elf-x86_64-20201104/bin/../lib/gcc/riscv64-unknown-elf/8.4.0/../../../../riscv64-unknown-elf/lib/rv64imafdcxtheadc/lp64d/libm.a(lib_a-s_cos.o) (__kernel_sin)
/home/yuzuki/WorkSpace/melis-v3.0/melis-4.x-release/toolchain/riscv64-elf-x86_64-20201104/bin/../lib/gcc/riscv64-unknown-elf/8.4.0/../../../../riscv64-unknown-elf/lib/rv64imafdcxtheadc/lp64d/libm.a(lib_a-s_fabs.o)
                              /home/yuzuki/WorkSpace/melis-v3.0/melis-4.x-release/toolchain/riscv64-elf-x86_64-20201104/bin/../lib/gcc/riscv64-unknown-elf/8.4.0/../../../../riscv64-unknown-elf/lib/rv64imafdcxtheadc/lp64d/libm.a(lib_a-e_rem_pio2.o) (fabs)
/home/yuzuki/WorkSpace/melis-v3.0/melis-4.x-release/toolchain/riscv64-elf-x86_64-20201104/bin/../lib/gcc/riscv64-unknown-elf/8.4.0/../../../../riscv64-unknown-elf/lib/rv64imafdcxtheadc/lp64d/libm.a(lib_a-s_lib_ver.o)
                              /home/yuzuki/WorkSpace/melis-v3.0/melis-4.x-release/toolchain/riscv64-elf-x86_64-20201104/bin/../lib/gcc/riscv64-unknown-elf/8.4.0/../../../../riscv64-unknown-elf/lib/rv64imafdcxtheadc/lp64d/libm.a(lib_a-w_sqrt.o) (__fdlib_version)
/home/yuzuki/WorkSpace/melis-v3.0/melis-4.x-release/toolchain/riscv64-elf-x86_64-20201104/bin/../lib/gcc/riscv64-unknown-elf/8.4.0/../../../../riscv64-unknown-elf/lib/rv64imafdcxtheadc/lp64d/libm.a(lib_a-s_matherr.o)
                              /home/yuzuki/WorkSpace/melis-v3.0/melis-4.x-release/toolchain/riscv64-elf-x86_64-20201104/bin/../lib/gcc/riscv64-unknown-elf/8.4.0/../../../../riscv64-unknown-elf/lib/rv64imafdcxtheadc/lp64d/libm.a(lib_a-w_sqrt.o) (matherr)
/home/yuzuki/WorkSpace/melis-v3.0/melis-4.x-release/toolchain/riscv64-elf-x86_64-20201104/bin/../lib/gcc/riscv64-unknown-elf/8.4.0/../../../../riscv64-unknown-elf/lib/rv64imafdcxtheadc/lp64d/libm.a(lib_a-s_scalbn.o)
                              /home/yuzuki/WorkSpace/melis-v3.0/melis-4.x-release/toolchain/riscv64-elf-x86_64-20201104/bin/../lib/gcc/riscv64-unknown-elf/8.4.0/../../../../riscv64-unknown-elf/lib/rv64imafdcxtheadc/lp64d/libm.a(lib_a-k_rem_pio2.o) (scalbn)
/home/yuzuki/WorkSpace/melis-v3.0/melis-4.x-release/toolchain/riscv64-elf-x86_64-20201104/bin/../lib/gcc/riscv64-unknown-elf/8.4.0/../../../../riscv64-unknown-elf/lib/rv64imafdcxtheadc/lp64d/libm.a(lib_a-s_copysign.o)
                              /home/yuzuki/WorkSpace/melis-v3.0/melis-4.x-release/toolchain/riscv64-elf-x86_64-20201104/bin/../lib/gcc/riscv64-unknown-elf/8.4.0/../../../../riscv64-unknown-elf/lib/rv64imafdcxtheadc/lp64d/libm.a(lib_a-s_scalbn.o) (copysign)
/home/yuzuki/WorkSpace/melis-v3.0/melis-4.x-release/toolchain/riscv64-elf-x86_64-20201104/bin/../lib/gcc/riscv64-unknown-elf/8.4.0/../../../../riscv64-unknown-elf/lib/rv64imafdcxtheadc/lp64d/libc.a(lib_a-errno.o)
                              /home/yuzuki/WorkSpace/melis-v3.0/melis-4.x-release/toolchain/riscv64-elf-x86_64-20201104/bin/../lib/gcc/riscv64-unknown-elf/8.4.0/../../../../riscv64-unknown-elf/lib/rv64imafdcxtheadc/lp64d/libm.a(lib_a-w_sqrt.o) (__errno)
/home/yuzuki/WorkSpace/melis-v3.0/melis-4.x-release/toolchain/riscv64-elf-x86_64-20201104/bin/../lib/gcc/riscv64-unknown-elf/8.4.0/../../../../riscv64-unknown-elf/lib/rv64imafdcxtheadc/lp64d/libc.a(lib_a-impure.o)
                              /home/yuzuki/WorkSpace/melis-v3.0/melis-4.x-release/toolchain/riscv64-elf-x86_64-20201104/bin/../lib/gcc/riscv64-unknown-elf/8.4.0/../../../../riscv64-unknown-elf/lib/rv64imafdcxtheadc/lp64d/libc.a(lib_a-errno.o) (_impure_ptr)

Discarded input sections

 .text          0x0000000000000000        0x0 emodules/mod_orange/mod_orange.o
 .data          0x0000000000000000        0x0 emodules/mod_orange/mod_orange.o
 .bss           0x0000000000000000        0x0 emodules/mod_orange/mod_orange.o
 .text          0x0000000000000000        0x0 emodules/mod_orange/orange_mod_api.o
 .data          0x0000000000000000        0x0 emodules/mod_orange/orange_mod_api.o
 .bss           0x0000000000000000        0x0 emodules/mod_orange/orange_mod_api.o
 .text.GUI_StubNop
                0x0000000000000000       0x48 emodules/mod_orange/orange_mod_api.o
 .rodata.GUI_StubNop.str1.8
                0x0000000000000000       0x8f emodules/mod_orange/orange_mod_api.o
 .rodata.__func__.12820
                0x0000000000000000        0xc emodules/mod_orange/orange_mod_api.o
 .text          0x0000000000000000        0x0 emodules/mod_orange/magic.o
 .data          0x0000000000000000        0x0 emodules/mod_orange/magic.o
 .bss           0x0000000000000000        0x0 emodules/mod_orange/magic.o
 .text          0x0000000000000000        0x0 emodules/mod_orange/built-in.o
 .text.GUI_DirMemcpy
                0x0000000000000000      0x12a emodules/mod_orange/built-in.o
 .text.GUI_PhyPt2LogPt
                0x0000000000000000       0xd2 emodules/mod_orange/built-in.o
 .text.GUI_LogPt2PhyPt
                0x0000000000000000       0xd8 emodules/mod_orange/built-in.o
 .text.GUI_ScnLogPt2PhyPt
                0x0000000000000000       0xa0 emodules/mod_orange/built-in.o
 .text.GUI_X_GetTime
                0x0000000000000000        0x8 emodules/mod_orange/built-in.o
 .text.GUI_X_Delay
                0x0000000000000000       0x1c emodules/mod_orange/built-in.o
 .text.GUI_X_ExecIdle
                0x0000000000000000        0xa emodules/mod_orange/built-in.o
 .text.GUI_X_WaitEvent
                0x0000000000000000       0x22 emodules/mod_orange/built-in.o
 .text.GUI_X_SignalEvent
                0x0000000000000000       0x14 emodules/mod_orange/built-in.o
 .text.GUI_X_GetKey
                0x0000000000000000       0x46 emodules/mod_orange/built-in.o
 .text.GUI_X_WaitKey
                0x0000000000000000       0x5a emodules/mod_orange/built-in.o
 .text.GUI_X_StoreKey
                0x0000000000000000       0x1a emodules/mod_orange/built-in.o
 .text.IsRectEmpty
                0x0000000000000000       0x1a emodules/mod_orange/built-in.o
 .text.EqualRect
                0x0000000000000000       0x2c emodules/mod_orange/built-in.o
 .text.NormalizeRect
                0x0000000000000000       0x1a emodules/mod_orange/built-in.o
 .text.IsCovered
                0x0000000000000000       0x32 emodules/mod_orange/built-in.o
 .text.IntersectRect
                0x0000000000000000       0x50 emodules/mod_orange/built-in.o
 .text.DoesIntersect
                0x0000000000000000       0x4c emodules/mod_orange/built-in.o
 .text.UnionRect
                0x0000000000000000       0xd4 emodules/mod_orange/built-in.o
 .text.GetBoundRect
                0x0000000000000000       0x7c emodules/mod_orange/built-in.o
 .text.SubtractRect
                0x0000000000000000       0xb4 emodules/mod_orange/built-in.o
 .text.SetRectEmpty
                0x0000000000000000        0xa emodules/mod_orange/built-in.o
 .text.SetRect  0x0000000000000000        0xa emodules/mod_orange/built-in.o
 .text.CopyRect
                0x0000000000000000       0x12 emodules/mod_orange/built-in.o
 .text.OffsetRect
                0x0000000000000000       0x1a emodules/mod_orange/built-in.o
 .text.InflateRect
                0x0000000000000000       0x1a emodules/mod_orange/built-in.o
 .text.InflateRectToPt
                0x0000000000000000       0x22 emodules/mod_orange/built-in.o
 .text.GuiRectToSysRect
                0x0000000000000000       0x26 emodules/mod_orange/built-in.o
 .text.GUI_Core_Exit
                0x0000000000000000       0x18 emodules/mod_orange/built-in.o
 .text.local_get_string_encode_group
                0x0000000000000000       0x82 emodules/mod_orange/built-in.o
 .text.GUI_LongStringExit
                0x0000000000000000       0xb4 emodules/mod_orange/built-in.o
 .text.LCD_Color2Index_M233
                0x0000000000000000       0x44 emodules/mod_orange/built-in.o
 .text.LCD_Index2Color_M233
                0x0000000000000000       0x36 emodules/mod_orange/built-in.o
 .text.LCD_Color2Index_2
                0x0000000000000000       0x1e emodules/mod_orange/built-in.o
 .text.LCD_Index2Color_2
                0x0000000000000000        0xe emodules/mod_orange/built-in.o
 .text.GUI_SetFrameColor32bpp
                0x0000000000000000       0x10 emodules/mod_orange/built-in.o
 .text.sft_ftell
                0x0000000000000000       0x1c emodules/mod_orange/built-in.o
 .text.sft_test
                0x0000000000000000      0x1de emodules/mod_orange/built-in.o
 .text.sft_test2
                0x0000000000000000      0x114 emodules/mod_orange/built-in.o
 .text.g_feof   0x0000000000000000       0x18 emodules/mod_orange/built-in.o
 .text.g_create_mutex
                0x0000000000000000        0xa emodules/mod_orange/built-in.o
 .text.g_delete_mutex
                0x0000000000000000       0x28 emodules/mod_orange/built-in.o
 .text.g_pend_mutex
                0x0000000000000000       0x28 emodules/mod_orange/built-in.o
 .text.g_post_mutex
                0x0000000000000000       0x18 emodules/mod_orange/built-in.o
 .text.GL_MoveTo
                0x0000000000000000       0x1a emodules/mod_orange/built-in.o
 .text.GUI__CalcTextRect
                0x0000000000000000       0xc4 emodules/mod_orange/built-in.o
 .text.GUI__DivideRound
                0x0000000000000000       0x12 emodules/mod_orange/built-in.o
 .text.GUI__GetNumChars
                0x0000000000000000       0x26 emodules/mod_orange/built-in.o
 .text.GUI__ReduceRect
                0x0000000000000000       0x30 emodules/mod_orange/built-in.o
 .text.GUI__SetText
                0x0000000000000000       0x66 emodules/mod_orange/built-in.o
 .text.GUI__strcmp
                0x0000000000000000       0x36 emodules/mod_orange/built-in.o
 .text.GUI__strcmp_hp
                0x0000000000000000       0x22 emodules/mod_orange/built-in.o
 .text.GUI_AddDec
                0x0000000000000000        0xc emodules/mod_orange/built-in.o
 .text.GUI_AddDecMin
                0x0000000000000000       0x2a emodules/mod_orange/built-in.o
 .text.GUI_Long2Len
                0x0000000000000000       0x34 emodules/mod_orange/built-in.o
 .text.GUI_AddSign
                0x0000000000000000       0x24 emodules/mod_orange/built-in.o
 .text.GUI_AddDecShift
                0x0000000000000000       0xc6 emodules/mod_orange/built-in.o
 .text.GUI_SetKeyMsgHook
                0x0000000000000000       0x10 emodules/mod_orange/built-in.o
 .text.GUI_ARGB_GetXSize
                0x0000000000000000       0x20 emodules/mod_orange/built-in.o
 .text.GUI_ARGB_GetYSize
                0x0000000000000000       0x28 emodules/mod_orange/built-in.o
 .text._SendU16
                0x0000000000000000       0x2a emodules/mod_orange/built-in.o
 .text._SendU32
                0x0000000000000000       0x36 emodules/mod_orange/built-in.o
 .text.GUI_BMP_SerializeEx
                0x0000000000000000      0x23a emodules/mod_orange/built-in.o
 .text.GUI_BMP_Serialize
                0x0000000000000000       0x36 emodules/mod_orange/built-in.o
 .text.GUI_CalcColorDist
                0x0000000000000000       0x7a emodules/mod_orange/built-in.o
 .text.GUI_Color2VisColor
                0x0000000000000000       0x38 emodules/mod_orange/built-in.o
 .text.GUI_ColorIsAvailable
                0x0000000000000000       0x20 emodules/mod_orange/built-in.o
 .text.GUI_CalcVisColorError
                0x0000000000000000       0x24 emodules/mod_orange/built-in.o
 .text.GUI_SetRectMemEx
                0x0000000000000000      0x13a emodules/mod_orange/built-in.o
 .text._SetRotation
                0x0000000000000000       0x58 emodules/mod_orange/built-in.o
 .text.GUI_DispStringInRectEx
                0x0000000000000000       0xb6 emodules/mod_orange/built-in.o
 .text.GL_DrawBitmap
                0x0000000000000000       0xb8 emodules/mod_orange/built-in.o
 .text.GUI_DrawBitmap
                0x0000000000000000       0x2c emodules/mod_orange/built-in.o
 .text.GUI_DrawBitmapEx
                0x0000000000000000      0x276 emodules/mod_orange/built-in.o
 .text.GUI_DrawBitmapExp
                0x0000000000000000       0xa2 emodules/mod_orange/built-in.o
 .text.GUI_DrawBitmapMag
                0x0000000000000000       0xd4 emodules/mod_orange/built-in.o
 .text.GUI_DrawFocusRect
                0x0000000000000000       0x86 emodules/mod_orange/built-in.o
 .text.GUI_DrawPolyLine
                0x0000000000000000       0x6a emodules/mod_orange/built-in.o
 .text.GUI_Exec1
                0x0000000000000000       0x20 emodules/mod_orange/built-in.o
 .text.GUI_Exec
                0x0000000000000000       0x20 emodules/mod_orange/built-in.o
 .text.GUI_GetBitmapPixelColor
                0x0000000000000000       0x30 emodules/mod_orange/built-in.o
 .text.GUI_GetBitmapPixelIndex
                0x0000000000000000       0xbc emodules/mod_orange/built-in.o
 .text.GUI_GetBkColorIndex
                0x0000000000000000       0x26 emodules/mod_orange/built-in.o
 .text.GUI_GetBkColor
                0x0000000000000000       0x30 emodules/mod_orange/built-in.o
 .text.GUI_GetColorIndex
                0x0000000000000000       0x26 emodules/mod_orange/built-in.o
 .text.GUI_GetColor
                0x0000000000000000       0x30 emodules/mod_orange/built-in.o
 .text.GUI_GetDispPosX
                0x0000000000000000       0x32 emodules/mod_orange/built-in.o
 .text.GUI_GetDispPosY
                0x0000000000000000       0x32 emodules/mod_orange/built-in.o
 .text.GUI_GetVersionString
                0x0000000000000000       0x1c emodules/mod_orange/built-in.o
 .text.GUI_MOUSE_GetState
                0x0000000000000000       0x1a emodules/mod_orange/built-in.o
 .text.GUI_MOUSE_StoreState
                0x0000000000000000       0x44 emodules/mod_orange/built-in.o
 .text.GUI_MOUSE_DRIVER_PS2_OnRx
                0x0000000000000000      0x11a emodules/mod_orange/built-in.o
 .text.GUI_MOUSE_DRIVER_PS2_Init
                0x0000000000000000        0xa emodules/mod_orange/built-in.o
 .text.GUI_GetKey
                0x0000000000000000       0x10 emodules/mod_orange/built-in.o
 .text.GUI_StoreKey
                0x0000000000000000       0x10 emodules/mod_orange/built-in.o
 .text.GUI_ClearKeyBuffer
                0x0000000000000000        0xa emodules/mod_orange/built-in.o
 .text.GUI_StoreKeyMsg
                0x0000000000000000        0x8 emodules/mod_orange/built-in.o
 .text.GUI_SendKeyMsg
                0x0000000000000000        0x8 emodules/mod_orange/built-in.o
 .text.GUI_PID_GetState
                0x0000000000000000       0x1a emodules/mod_orange/built-in.o
 .text.GUI_PID_StoreState
                0x0000000000000000       0x34 emodules/mod_orange/built-in.o
 .text.GUI_SetBkColorIndex
                0x0000000000000000       0x32 emodules/mod_orange/built-in.o
 .text.GUI_SetColorIndex
                0x0000000000000000       0x32 emodules/mod_orange/built-in.o
 .text.GUI_SetDecChar
                0x0000000000000000       0x14 emodules/mod_orange/built-in.o
 .text.GUI_GetDecChar
                0x0000000000000000        0xa emodules/mod_orange/built-in.o
 .text.GUI_SetLBorder
                0x0000000000000000       0x34 emodules/mod_orange/built-in.o
 .text.GUI_SetLUTColor
                0x0000000000000000        0x2 emodules/mod_orange/built-in.o
 .text.GUI_SetLUTColorEx
                0x0000000000000000       0x58 emodules/mod_orange/built-in.o
 .text.GUI_SetLUTEntry
                0x0000000000000000       0x28 emodules/mod_orange/built-in.o
 .text.GUI_SetOrg
                0x0000000000000000       0x28 emodules/mod_orange/built-in.o
 .text.GUI_SetTextStyle
                0x0000000000000000       0x34 emodules/mod_orange/built-in.o
 .text.GUI_SIF_CreateFont
                0x0000000000000000       0xb0 emodules/mod_orange/built-in.o
 .text.GUI_SIF_DeleteFont
                0x0000000000000000        0x2 emodules/mod_orange/built-in.o
 .text._GUI_SIF_GetFontInfo
                0x0000000000000000       0x46 emodules/mod_orange/built-in.o
 .text._GetpCharInfo
                0x0000000000000000       0x8e emodules/mod_orange/built-in.o
 .text._GUI_SIF_IsInFont
                0x0000000000000000       0x22 emodules/mod_orange/built-in.o
 .text._GUI_SIF_GetCharDistX
                0x0000000000000000       0x36 emodules/mod_orange/built-in.o
 .text._GUI_SIF_DispChar
                0x0000000000000000      0x15e emodules/mod_orange/built-in.o
 .text.GUI_TOUCH_GetState
                0x0000000000000000       0x1a emodules/mod_orange/built-in.o
 .text.GUI_TOUCH_StoreStateEx
                0x0000000000000000       0x44 emodules/mod_orange/built-in.o
 .text.GUI_TOUCH_DriverAnalog_C
                0x0000000000000000        0x2 emodules/mod_orange/built-in.o
 .text.GUI_TOUCH_StoreState
                0x0000000000000000       0x34 emodules/mod_orange/built-in.o
 .text.GUI_TOUCH_StoreUnstable
                0x0000000000000000       0x4a emodules/mod_orange/built-in.o
 .text.GUI_TOUCH_GetUnstable
                0x0000000000000000       0x1a emodules/mod_orange/built-in.o
 .text.GUI_UC_Encode
                0x0000000000000000       0x36 emodules/mod_orange/built-in.o
 .text.GUI_UC__CalcSizeOfChar
                0x0000000000000000       0x12 emodules/mod_orange/built-in.o
 .text.GUI_UC__NumBytes2NumChars
                0x0000000000000000       0x44 emodules/mod_orange/built-in.o
 .text.GUI_UC_DispString
                0x0000000000000000      0x212 emodules/mod_orange/built-in.o
 .text.GUI_WaitKey
                0x0000000000000000       0x30 emodules/mod_orange/built-in.o
 .text.GUI_WaitEvent
                0x0000000000000000        0x8 emodules/mod_orange/built-in.o
 .text.GUIPROP_FindChar
                0x0000000000000000       0x18 emodules/mod_orange/built-in.o
 .text.GUIPROP_DispChar
                0x0000000000000000      0x140 emodules/mod_orange/built-in.o
 .text.GUIPROP_GetCharDistX
                0x0000000000000000       0x48 emodules/mod_orange/built-in.o
 .text.GUIPROP_GetFontInfo
                0x0000000000000000        0x8 emodules/mod_orange/built-in.o
 .text.GUIPROP_IsInFont
                0x0000000000000000       0x18 emodules/mod_orange/built-in.o
 .text.GUI_Color2Index
                0x0000000000000000       0x2a emodules/mod_orange/built-in.o
 .text.GUI_Kernel_Exit
                0x0000000000000000        0x4 emodules/mod_orange/built-in.o
 .text.GUICurs_C
                0x0000000000000000        0x2 emodules/mod_orange/built-in.o
 .text._GetLineLen_SJIS
                0x0000000000000000       0x28 emodules/mod_orange/built-in.o
 .text._DispLine_SJIS
                0x0000000000000000       0x54 emodules/mod_orange/built-in.o
 .text._GetLineDistX_SJIS
                0x0000000000000000       0x60 emodules/mod_orange/built-in.o
 .text.GUI_Index2Color
                0x0000000000000000       0x2c emodules/mod_orange/built-in.o
 .text._GetVect
                0x0000000000000000       0x3c emodules/mod_orange/built-in.o
 .text._Normalize
                0x0000000000000000       0x50 emodules/mod_orange/built-in.o
 .text.GUI_EnlargePolygon
                0x0000000000000000      0x162 emodules/mod_orange/built-in.o
 .text.GUI_MagnifyPolygon
                0x0000000000000000       0x34 emodules/mod_orange/built-in.o
 .text.GUI_RotatePolygon
                0x0000000000000000       0x90 emodules/mod_orange/built-in.o
 .text.GUI_ALLOC_Realloc
                0x0000000000000000       0x84 emodules/mod_orange/built-in.o
 .text.GUI_DrawStreamedBitmap
                0x0000000000000000       0x38 emodules/mod_orange/built-in.o
 .text.GUI_GetTime
                0x0000000000000000        0x8 emodules/mod_orange/built-in.o
 .text.GUI_Delay
                0x0000000000000000       0x20 emodules/mod_orange/built-in.o
 .text._Link    0x0000000000000000       0x9c emodules/mod_orange/built-in.o
 .text._Unlink  0x0000000000000000       0x56 emodules/mod_orange/built-in.o
 .text.GUI_TIMER_Exec
                0x0000000000000000       0x86 emodules/mod_orange/built-in.o
 .text.GUI_TIMER_Create
                0x0000000000000000       0x74 emodules/mod_orange/built-in.o
 .text.GUI_TIMER_Delete
                0x0000000000000000       0x32 emodules/mod_orange/built-in.o
 .text.GUI_TIMER_SetPeriod
                0x0000000000000000       0x2a emodules/mod_orange/built-in.o
 .text.GUI_TIMER_SetTime
                0x0000000000000000       0x2a emodules/mod_orange/built-in.o
 .text.GUI_TIMER_Context
                0x0000000000000000       0x2a emodules/mod_orange/built-in.o
 .text.GUI_TIMER_SetDelay
                0x0000000000000000       0x42 emodules/mod_orange/built-in.o
 .text.GUI_TIMER_Restart
                0x0000000000000000       0x5e emodules/mod_orange/built-in.o
 .text.GUI_UC2DB
                0x0000000000000000       0x34 emodules/mod_orange/built-in.o
 .text.GUI_DB2UC
                0x0000000000000000       0x26 emodules/mod_orange/built-in.o
 .text.GUI_DispDecShift
                0x0000000000000000       0x26 emodules/mod_orange/built-in.o
 .text.GUI_DispSDecShift
                0x0000000000000000       0x44 emodules/mod_orange/built-in.o
 .text.GUI_DispDecMin
                0x0000000000000000       0x26 emodules/mod_orange/built-in.o
 .text.GUI_DispDecSpace
                0x0000000000000000       0x78 emodules/mod_orange/built-in.o
 .text.GUI_DispSDec
                0x0000000000000000        0xa emodules/mod_orange/built-in.o
 .text.GUI_DispDec
                0x0000000000000000        0xa emodules/mod_orange/built-in.o
 .text.GUI_DispDecAt
                0x0000000000000000       0x3a emodules/mod_orange/built-in.o
 .text._DispFloatFix
                0x0000000000000000       0x6a emodules/mod_orange/built-in.o
 .text.GUI_DispFloatFix
                0x0000000000000000        0xa emodules/mod_orange/built-in.o
 .text.GUI_DispFloatMin
                0x0000000000000000       0x56 emodules/mod_orange/built-in.o
 .text.GUI_DispFloat
                0x0000000000000000       0x5c emodules/mod_orange/built-in.o
 .text.GUI_DispSFloatFix
                0x0000000000000000        0xa emodules/mod_orange/built-in.o
 .text.GUI_DispSFloatMin
                0x0000000000000000       0x66 emodules/mod_orange/built-in.o
 .text._DrawBitmap_565
                0x0000000000000000      0x25e emodules/mod_orange/built-in.o
 .text._DrawBitmap_M565
                0x0000000000000000      0x262 emodules/mod_orange/built-in.o
 .text.LCD_GetBkColorIndex
                0x0000000000000000        0xc emodules/mod_orange/built-in.o
 .text.LCD_GetColorIndex
                0x0000000000000000        0xc emodules/mod_orange/built-in.o
 .text.LCD_GetVXSizeEx
                0x0000000000000000       0x20 emodules/mod_orange/built-in.o
 .text.LCD_GetVYSizeEx
                0x0000000000000000       0x20 emodules/mod_orange/built-in.o
 .text.LCD_GetBitsPerPixel_L0Ex
                0x0000000000000000       0x1e emodules/mod_orange/built-in.o
 .text.LCD_GetYMagEx
                0x0000000000000000        0x8 emodules/mod_orange/built-in.o
 .text.LCD_GetMirrorXEx
                0x0000000000000000        0x4 emodules/mod_orange/built-in.o
 .text.LCD_GetMirrorYEx
                0x0000000000000000        0x4 emodules/mod_orange/built-in.o
 .text.LCD_GetSwapXYEx
                0x0000000000000000        0x4 emodules/mod_orange/built-in.o
 .text.LCD_GetDeltaModeEx
                0x0000000000000000        0x4 emodules/mod_orange/built-in.o
 .text.LCD_GetNumLayers
                0x0000000000000000        0x6 emodules/mod_orange/built-in.o
 .text.LCD_Index2ColorEx
                0x0000000000000000       0x1c emodules/mod_orange/built-in.o
 .text.LCD_L0_3_GetRect
                0x0000000000000000        0x8 emodules/mod_orange/built-in.o
 .text._Rect2TextRect
                0x0000000000000000       0x46 emodules/mod_orange/built-in.o
 .text._TransformPoint180
                0x0000000000000000       0x64 emodules/mod_orange/built-in.o
 .text._DrawBitmap180
                0x0000000000000000      0x32a emodules/mod_orange/built-in.o
 .text._TransformPointCW
                0x0000000000000000       0x6c emodules/mod_orange/built-in.o
 .text._DrawBitmapCW
                0x0000000000000000      0x328 emodules/mod_orange/built-in.o
 .text._TransformPointCCW
                0x0000000000000000       0x86 emodules/mod_orange/built-in.o
 .text._DrawBitmapCCW
                0x0000000000000000      0x328 emodules/mod_orange/built-in.o
 .text.LCD_SetAPI
                0x0000000000000000       0x8a emodules/mod_orange/built-in.o
 .text.LCD_AA_MixColors
                0x0000000000000000       0x66 emodules/mod_orange/built-in.o
 .text.LCD_SetPixelAA
                0x0000000000000000       0xbc emodules/mod_orange/built-in.o
 .text.LCD_SetPixelAA_NoTrans
                0x0000000000000000       0xc0 emodules/mod_orange/built-in.o
 .text.LCD_GetDevCap
                0x0000000000000000       0x5e emodules/mod_orange/built-in.o
 .text.LCD_GetVXSize
                0x0000000000000000       0x16 emodules/mod_orange/built-in.o
 .text.LCD_GetVYSize
                0x0000000000000000       0x1a emodules/mod_orange/built-in.o
 .text.LCD_GetBitsPerPixel
                0x0000000000000000        0x6 emodules/mod_orange/built-in.o
 .text.LCD_GetNumColors
                0x0000000000000000        0x6 emodules/mod_orange/built-in.o
 .text.LCD_GetFixedPalette
                0x0000000000000000        0x8 emodules/mod_orange/built-in.o
 .text.LCD_GetXSize_1
                0x0000000000000000       0x16 emodules/mod_orange/built-in.o
 .text.LCD_GetYSize_1
                0x0000000000000000       0x1a emodules/mod_orange/built-in.o
 .text.LCD_GetVXSize_1
                0x0000000000000000        0x6 emodules/mod_orange/built-in.o
 .text.LCD_GetVYSize_1
                0x0000000000000000        0x6 emodules/mod_orange/built-in.o
 .text.LCD_GetBitsPerPixel_1
                0x0000000000000000        0x4 emodules/mod_orange/built-in.o
 .text.LCD_GetNumColors_1
                0x0000000000000000        0x4 emodules/mod_orange/built-in.o
 .text.LCD_GetYMag_1
                0x0000000000000000        0x4 emodules/mod_orange/built-in.o
 .text.LCD_GetXMag_1
                0x0000000000000000        0x4 emodules/mod_orange/built-in.o
 .text.LCD_GetFixedPalette_1
                0x0000000000000000        0x6 emodules/mod_orange/built-in.o
 .text.LCDL0Delta_c
                0x0000000000000000        0x2 emodules/mod_orange/built-in.o
 .text.LCDL0Mag_c
                0x0000000000000000        0x2 emodules/mod_orange/built-in.o
 .text.LCD_Color2Index_1
                0x0000000000000000       0x1e emodules/mod_orange/built-in.o
 .text.LCD_Index2Color_1
                0x0000000000000000        0xa emodules/mod_orange/built-in.o
 .text.LCD_GetIndexMask_1
                0x0000000000000000        0x4 emodules/mod_orange/built-in.o
 .text.LCD_Index2Color_565
                0x0000000000000000       0x40 emodules/mod_orange/built-in.o
 .text._DrawBitmap_RLE4
                0x0000000000000000      0x246 emodules/mod_orange/built-in.o
 .text._DrawBitmap_RLE8
                0x0000000000000000      0x258 emodules/mod_orange/built-in.o
 .text.LCD_L0_DrawPixel
                0x0000000000000000       0x22 emodules/mod_orange/built-in.o
 .text.LCD_L0_SetOrg
                0x0000000000000000        0x2 emodules/mod_orange/built-in.o
 .text.LCD_L0_ReInit
                0x0000000000000000        0x2 emodules/mod_orange/built-in.o
 .text.LCD_L0_1_DrawPixel
                0x0000000000000000       0x22 emodules/mod_orange/built-in.o
 .text.LCD_L0_1_SetOrg
                0x0000000000000000        0x2 emodules/mod_orange/built-in.o
 .text.LCD_L0_1_Init
                0x0000000000000000        0x4 emodules/mod_orange/built-in.o
 .text.LCD_L0_1_CheckInit
                0x0000000000000000        0x4 emodules/mod_orange/built-in.o
 .text.LCD_L0_1_ReInit
                0x0000000000000000        0x2 emodules/mod_orange/built-in.o
 .text.LCD_L0_2_DrawPixel
                0x0000000000000000       0x22 emodules/mod_orange/built-in.o
 .text.LCD_L0_2_SetOrg
                0x0000000000000000        0x2 emodules/mod_orange/built-in.o
 .text.LCD_L0_2_Init
                0x0000000000000000        0x4 emodules/mod_orange/built-in.o
 .text.LCD_L0_2_CheckInit
                0x0000000000000000        0x4 emodules/mod_orange/built-in.o
 .text.LCD_L0_2_ReInit
                0x0000000000000000        0x2 emodules/mod_orange/built-in.o
 .text.GUI_MEMDEV__CreateFixed1
                0x0000000000000000      0x160 emodules/mod_orange/built-in.o
 .text.GUI_USAGE_Select
                0x0000000000000000       0x36 emodules/mod_orange/built-in.o
 .text.GUI_MEMDEV__XY2PTREx
                0x0000000000000000       0x22 emodules/mod_orange/built-in.o
 .text.TerminateTimer
                0x0000000000000000       0x5c emodules/mod_orange/built-in.o
 .text.gui_get_timer_slot
                0x0000000000000000       0x6a emodules/mod_orange/built-in.o
 .text.gui_move_timer_last
                0x0000000000000000       0x90 emodules/mod_orange/built-in.o
 .text.GUI_ClearBeforeMsg
                0x0000000000000000       0x46 emodules/mod_orange/built-in.o
 .text.GUI_QueueMessage
                0x0000000000000000       0xae emodules/mod_orange/built-in.o
 .text.GUI_SysToGUIColor
                0x0000000000000000        0xe emodules/mod_orange/built-in.o
 .text.GUI_WinGetClientRect
                0x0000000000000000       0x54 emodules/mod_orange/built-in.o
 .text.GUI_WndInvalidateRect
                0x0000000000000000        0x4 emodules/mod_orange/built-in.o
 .text.GUI_WinEnable
                0x0000000000000000        0x4 emodules/mod_orange/built-in.o
 .text.GUI_WinIsEnabled
                0x0000000000000000        0x4 emodules/mod_orange/built-in.o
 .text.GUI_WinMove
                0x0000000000000000        0x4 emodules/mod_orange/built-in.o
 .text.GUI_WinGetActiveCtrlWin
                0x0000000000000000       0x20 emodules/mod_orange/built-in.o
 .text.GUI_ChangActiveManWindow
                0x0000000000000000       0x54 emodules/mod_orange/built-in.o
 .text.GUI_FrameClentToScreen
                0x0000000000000000       0xa8 emodules/mod_orange/built-in.o
 .text.GUI_ScreenToFrameWin
                0x0000000000000000       0x84 emodules/mod_orange/built-in.o
 .text.GUI_WidgetToScreen
                0x0000000000000000       0xc0 emodules/mod_orange/built-in.o
 .text.GUI_WinFBToClient
                0x0000000000000000       0x84 emodules/mod_orange/built-in.o
 .text.GUI_Win_InitLock
                0x0000000000000000       0x1c emodules/mod_orange/built-in.o
 .text.GUI_Win_LockAccept
                0x0000000000000000       0x12 emodules/mod_orange/built-in.o
 .text.GUI_Win_GetTaskId
                0x0000000000000000       0x14 emodules/mod_orange/built-in.o
 .text.GUI_WinLockAccept
                0x0000000000000000       0xde emodules/mod_orange/built-in.o
 .text.GUI_PhysicalToLogicConvert
                0x0000000000000000       0x7a emodules/mod_orange/built-in.o
 .text.GUI_LogicLayerGetScnWin
                0x0000000000000000       0x7e emodules/mod_orange/built-in.o
 .text.GUI_LogicLayerGetSrcWin
                0x0000000000000000       0x6c emodules/mod_orange/built-in.o
 .text.GUI_LogicLayerSetPara
                0x0000000000000000      0x138 emodules/mod_orange/built-in.o
 .text.GUI_LogicLayerGetPara
                0x0000000000000000       0xec emodules/mod_orange/built-in.o
 .text.GUI_LogicLayerSetFb
                0x0000000000000000       0x72 emodules/mod_orange/built-in.o
 .text.GUI_LogicLayerGetFb
                0x0000000000000000       0x66 emodules/mod_orange/built-in.o
 .text.GUI_LyrWinGetHWLyr
                0x0000000000000000        0x6 emodules/mod_orange/built-in.o
 .text.GUI_GetLayerUnderPoint
                0x0000000000000000       0x88 emodules/mod_orange/built-in.o
 .text.GUI_GetFrameWinUnderPoint
                0x0000000000000000       0xb2 emodules/mod_orange/built-in.o
 .text.GUI_GetChildWinUnderPoint
                0x0000000000000000       0xaa emodules/mod_orange/built-in.o
 .text.GUI_SetControlClassData
                0x0000000000000000       0x32 emodules/mod_orange/built-in.o
 .text.GUI_GetControlClassData
                0x0000000000000000       0x32 emodules/mod_orange/built-in.o
 .text.lstmglidecuv_stop
                0x0000000000000000       0xf0 emodules/mod_orange/built-in.o
 .text.ListLayer_VarNextPage
                0x0000000000000000      0x2de emodules/mod_orange/built-in.o
 .text.ListLayer_VarPrevPage
                0x0000000000000000      0x2da emodules/mod_orange/built-in.o
 .text.ListBox_FoucsItemThread
                0x0000000000000000      0x124 emodules/mod_orange/built-in.o
 .text.ListLayer_Sleep
                0x0000000000000000       0x20 emodules/mod_orange/built-in.o
 .text.ListLayer_FoucsMenuItemCopy
                0x0000000000000000       0x6a emodules/mod_orange/built-in.o
 .text.ListLayer_DrawInActivedMenuItem
                0x0000000000000000       0x58 emodules/mod_orange/built-in.o
 .text.GUI_LstmMoveUp
                0x0000000000000000       0x1a emodules/mod_orange/built-in.o
 .text.GUI_LstmMoveDown
                0x0000000000000000       0x1a emodules/mod_orange/built-in.o
 .text.GUI_LstmMoveStop
                0x0000000000000000        0x8 emodules/mod_orange/built-in.o
 .text.GUI_LstmNextPage
                0x0000000000000000       0x9a emodules/mod_orange/built-in.o
 .text.GUI_LstmPrevPage
                0x0000000000000000       0x9a emodules/mod_orange/built-in.o
 .text.MenuItem_GetPrev
                0x0000000000000000        0x6 emodules/mod_orange/built-in.o
 .text.Menuitem_GetNext
                0x0000000000000000        0x6 emodules/mod_orange/built-in.o
 .text.MenuList_InsertAfter
                0x0000000000000000       0x56 emodules/mod_orange/built-in.o
 .text.MenuList_AddHead
                0x0000000000000000       0x56 emodules/mod_orange/built-in.o
 .text.MenuList_GetHead
                0x0000000000000000        0x6 emodules/mod_orange/built-in.o
 .text.MenuList_GetCurItem
                0x0000000000000000        0x6 emodules/mod_orange/built-in.o
 .text.MenuList_SetCurItem
                0x0000000000000000        0xe emodules/mod_orange/built-in.o
 .text.MenuList_GetTail
                0x0000000000000000        0x6 emodules/mod_orange/built-in.o
 .text.speed_step
                0x0000000000000000       0x54 emodules/mod_orange/built-in.o
 .text.speed_step2
                0x0000000000000000       0x6c emodules/mod_orange/built-in.o
 .text.rect_copy
                0x0000000000000000       0xd8 emodules/mod_orange/built-in.o
 .text.rect_hori_mirror
                0x0000000000000000       0x7e emodules/mod_orange/built-in.o
 .text.rect_vert_mirror
                0x0000000000000000      0x154 emodules/mod_orange/built-in.o
 .text.GUI_TxtboxGetItemCount
                0x0000000000000000       0x14 emodules/mod_orange/built-in.o
 .text.GUI_TxtboxSetTextAlign
                0x0000000000000000        0x2 emodules/mod_orange/built-in.o
 .text.GUI_TxtboxDelete
                0x0000000000000000       0x42 emodules/mod_orange/built-in.o
 .text.TxtLayer_SwitchLyr
                0x0000000000000000       0x3c emodules/mod_orange/built-in.o
 .text.TxtList_SetCurItem
                0x0000000000000000        0xe emodules/mod_orange/built-in.o
 .text.TxtList_GetItemCount
                0x0000000000000000        0xa emodules/mod_orange/built-in.o
 .text.SListbox_CtrlMemdevStart
                0x0000000000000000        0x2 emodules/mod_orange/built-in.o
 .text.SListbox_CtrlMemdevStop
                0x0000000000000000        0x2 emodules/mod_orange/built-in.o
 .text.SListbox_DrawMenuItem
                0x0000000000000000       0x10 emodules/mod_orange/built-in.o
 .text.SListbox_FocusMenuItem
                0x0000000000000000       0x10 emodules/mod_orange/built-in.o
 .text.SListbox_DisableMenuItem
                0x0000000000000000       0x10 emodules/mod_orange/built-in.o
 .text.SListbox_Wakeup
                0x0000000000000000       0x14 emodules/mod_orange/built-in.o
 .text.SListbox_KeyDefault
                0x0000000000000000        0x4 emodules/mod_orange/built-in.o
 .text.SListbox_SetUnFoucs
                0x0000000000000000        0xe emodules/mod_orange/built-in.o
 .text.SMenuList_InsertAfter
                0x0000000000000000       0x56 emodules/mod_orange/built-in.o
 .text.SMenuList_AddHead
                0x0000000000000000       0x56 emodules/mod_orange/built-in.o
 .text.SMenuList_GetHead
                0x0000000000000000        0x6 emodules/mod_orange/built-in.o
 .text.SMenuList_GetTail
                0x0000000000000000        0x6 emodules/mod_orange/built-in.o
 .text.SMenuItem_GetPrev
                0x0000000000000000        0x6 emodules/mod_orange/built-in.o
 .text.SMenuItem_GetNext
                0x0000000000000000        0x6 emodules/mod_orange/built-in.o
 .text.BmpAlphaBlend
                0x0000000000000000      0x102 emodules/mod_orange/built-in.o
 .text.RotateBmp
                0x0000000000000000      0x358 emodules/mod_orange/built-in.o
 .text.AutoPanelStart
                0x0000000000000000      0x1a4 emodules/mod_orange/built-in.o
 .text.UnloadBmp
                0x0000000000000000       0x2a emodules/mod_orange/built-in.o
 .text.LoadBmpFromFile
                0x0000000000000000      0x2c8 emodules/mod_orange/built-in.o
 .text.UninitTmpBmp.isra.0
                0x0000000000000000       0x28 emodules/mod_orange/built-in.o
 .text.AutoPanelUnprepare
                0x0000000000000000       0x5a emodules/mod_orange/built-in.o
 .text.InitTmpBmp
                0x0000000000000000       0xf8 emodules/mod_orange/built-in.o
 .text.AutoPanelPrepare
                0x0000000000000000      0x2a4 emodules/mod_orange/built-in.o
 .text.CreateAutoPanel
                0x0000000000000000       0x86 emodules/mod_orange/built-in.o
 .text.DestroyAutoPanel
                0x0000000000000000       0x1e emodules/mod_orange/built-in.o
 .text.res_fopen
                0x0000000000000000        0x8 emodules/mod_orange/built-in.o
 .text.res_fclose
                0x0000000000000000       0x14 emodules/mod_orange/built-in.o
 .text.res_remove
                0x0000000000000000        0x8 emodules/mod_orange/built-in.o
 .text.res_fread
                0x0000000000000000        0x8 emodules/mod_orange/built-in.o
 .text.res_fwrite
                0x0000000000000000        0x8 emodules/mod_orange/built-in.o
 .text.res_fseek
                0x0000000000000000        0xa emodules/mod_orange/built-in.o
 .text.res_feof
                0x0000000000000000       0x18 emodules/mod_orange/built-in.o
 .text.res_mkdir
                0x0000000000000000        0x8 emodules/mod_orange/built-in.o
 .text.res_opendir
                0x0000000000000000        0x8 emodules/mod_orange/built-in.o
 .text.res_closedir
                0x0000000000000000        0x8 emodules/mod_orange/built-in.o
 .text.res_readdir
                0x0000000000000000        0x8 emodules/mod_orange/built-in.o
 .text.res_dirent2name
                0x0000000000000000        0x2 emodules/mod_orange/built-in.o
 .text.res_dirent2attr
                0x0000000000000000        0x2 emodules/mod_orange/built-in.o
 .rodata.LCD_API_ColorConv_2
                0x0000000000000000       0x18 emodules/mod_orange/built-in.o
 .rodata.GUI_Font6x9
                0x0000000000000000       0x60 emodules/mod_orange/built-in.o
 .rodata.sft_test.str1.8
                0x0000000000000000       0x23 emodules/mod_orange/built-in.o
 .rodata.sft_test2.str1.8
                0x0000000000000000       0x15 emodules/mod_orange/built-in.o
 .rodata.GUI__strcmp.str1.8
                0x0000000000000000        0x1 emodules/mod_orange/built-in.o
 .rodata.GUI_AddDecShift.str1.8
                0x0000000000000000       0x28 emodules/mod_orange/built-in.o
 .rodata.GUI_Pow10
                0x0000000000000000       0x28 emodules/mod_orange/built-in.o
 .rodata.GUI_BitmapArrowL
                0x0000000000000000       0x20 emodules/mod_orange/built-in.o
 .rodata.GUI_CursorArrowL
                0x0000000000000000       0x10 emodules/mod_orange/built-in.o
 .rodata.GUI_BitmapArrowLI
                0x0000000000000000       0x20 emodules/mod_orange/built-in.o
 .rodata.GUI_CursorArrowLI
                0x0000000000000000       0x10 emodules/mod_orange/built-in.o
 .rodata.GUI_Pixels_ArrowL
                0x0000000000000000       0x96 emodules/mod_orange/built-in.o
 .rodata.GUI_BitmapArrowM
                0x0000000000000000       0x20 emodules/mod_orange/built-in.o
 .rodata.GUI_CursorArrowM
                0x0000000000000000       0x10 emodules/mod_orange/built-in.o
 .rodata.GUI_BitmapArrowMI
                0x0000000000000000       0x20 emodules/mod_orange/built-in.o
 .rodata.GUI_CursorArrowMI
                0x0000000000000000       0x10 emodules/mod_orange/built-in.o
 .rodata.GUI_Pixels_ArrowM
                0x0000000000000000       0x3c emodules/mod_orange/built-in.o
 .rodata.GUI_BitmapArrowS
                0x0000000000000000       0x20 emodules/mod_orange/built-in.o
 .rodata.GUI_CursorArrowS
                0x0000000000000000       0x10 emodules/mod_orange/built-in.o
 .rodata.GUI_BitmapArrowSI
                0x0000000000000000       0x20 emodules/mod_orange/built-in.o
 .rodata.GUI_CursorArrowSI
                0x0000000000000000       0x10 emodules/mod_orange/built-in.o
 .rodata.GUI_Pixels_ArrowS
                0x0000000000000000       0x2d emodules/mod_orange/built-in.o
 .rodata.GUI_BitmapCrossL
                0x0000000000000000       0x20 emodules/mod_orange/built-in.o
 .rodata.GUI_CursorCrossL
                0x0000000000000000       0x10 emodules/mod_orange/built-in.o
 .rodata.GUI_BitmapCrossLI
                0x0000000000000000       0x20 emodules/mod_orange/built-in.o
 .rodata.GUI_CursorCrossLI
                0x0000000000000000       0x10 emodules/mod_orange/built-in.o
 .rodata.GUI_Pixels_CrossL
                0x0000000000000000       0xf8 emodules/mod_orange/built-in.o
 .rodata.GUI_BitmapCrossM
                0x0000000000000000       0x20 emodules/mod_orange/built-in.o
 .rodata.GUI_CursorCrossM
                0x0000000000000000       0x10 emodules/mod_orange/built-in.o
 .rodata.GUI_BitmapCrossMI
                0x0000000000000000       0x20 emodules/mod_orange/built-in.o
 .rodata.GUI_CursorCrossMI
                0x0000000000000000       0x10 emodules/mod_orange/built-in.o
 .rodata.GUI_Pixels_CrossM
                0x0000000000000000       0x7e emodules/mod_orange/built-in.o
 .rodata.GUI_BitmapCrossS
                0x0000000000000000       0x20 emodules/mod_orange/built-in.o
 .rodata.GUI_CursorCrossS
                0x0000000000000000       0x10 emodules/mod_orange/built-in.o
 .rodata.GUI_BitmapCrossSI
                0x0000000000000000       0x20 emodules/mod_orange/built-in.o
 .rodata.GUI_CursorCrossSI
                0x0000000000000000       0x10 emodules/mod_orange/built-in.o
 .rodata.GUI_Pixels_CrossS
                0x0000000000000000       0x21 emodules/mod_orange/built-in.o
 .rodata.GUI_CursorHeaderM
                0x0000000000000000       0x10 emodules/mod_orange/built-in.o
 .rodata._BitmapHeaderM
                0x0000000000000000       0x20 emodules/mod_orange/built-in.o
 .rodata.GUI_CursorHeaderMI
                0x0000000000000000       0x10 emodules/mod_orange/built-in.o
 .rodata._Bitmap
                0x0000000000000000       0x20 emodules/mod_orange/built-in.o
 .rodata.GUI_PixelsHeaderM
                0x0000000000000000       0x55 emodules/mod_orange/built-in.o
 .rodata.GUI_CursorPal
                0x0000000000000000       0x10 emodules/mod_orange/built-in.o
 .rodata._aColor
                0x0000000000000000       0x1c emodules/mod_orange/built-in.o
 .rodata.GUI_CursorPalI
                0x0000000000000000       0x10 emodules/mod_orange/built-in.o
 .rodata.GUI_GetBitmapPixelIndex
                0x0000000000000000       0x40 emodules/mod_orange/built-in.o
 .rodata._aLutInfo
                0x0000000000000000      0x200 emodules/mod_orange/built-in.o
 .rodata.GUI_SIF_CreateFont.str1.8
                0x0000000000000000       0x1d emodules/mod_orange/built-in.o
 .rodata.GUI_SIF_APIList_Prop
                0x0000000000000000       0x30 emodules/mod_orange/built-in.o
 .rodata.GUI_ENC_APIList_SJIS
                0x0000000000000000       0x18 emodules/mod_orange/built-in.o
 .rodata.GUI_EnlargePolygon.cst4
                0x0000000000000000        0x4 emodules/mod_orange/built-in.o
 .rodata.GUI_EnlargePolygon.cst8
                0x0000000000000000        0x8 emodules/mod_orange/built-in.o
 .rodata.GUI_DispFloatMin.cst4
                0x0000000000000000        0x4 emodules/mod_orange/built-in.o
 .rodata._DispFloatFix.cst4
                0x0000000000000000        0x4 emodules/mod_orange/built-in.o
 .rodata.GUI_BitmapMethods565
                0x0000000000000000       0x10 emodules/mod_orange/built-in.o
 .rodata.GUI_BitmapMethodsM565
                0x0000000000000000       0x10 emodules/mod_orange/built-in.o
 .rodata.LCD_SetAPI.str1.8
                0x0000000000000000       0x51 emodules/mod_orange/built-in.o
 .rodata.__func__.12971
                0x0000000000000000        0xb emodules/mod_orange/built-in.o
 .rodata.LCD_GetDevCap
                0x0000000000000000       0x24 emodules/mod_orange/built-in.o
 .rodata.LCD_API_ColorConv_1
                0x0000000000000000       0x18 emodules/mod_orange/built-in.o
 .rodata.GUI_BitmapMethodsRLE4
                0x0000000000000000       0x10 emodules/mod_orange/built-in.o
 .rodata.GUI_BitmapMethodsRLE8
                0x0000000000000000       0x10 emodules/mod_orange/built-in.o
 .rodata.GUI_MEMDEV__APIList1
                0x0000000000000000       0x80 emodules/mod_orange/built-in.o
 .rodata.GUI_MEMDEV__APIList16
                0x0000000000000000       0x80 emodules/mod_orange/built-in.o
 .rodata.GUI_WinLockAccept.str1.8
                0x0000000000000000       0x48 emodules/mod_orange/built-in.o
 .rodata.__func__.12079
                0x0000000000000000       0x12 emodules/mod_orange/built-in.o
 .rodata.GUI_LogicLayerSetPara.str1.8
                0x0000000000000000       0x2f emodules/mod_orange/built-in.o
 .rodata.__func__.12178
                0x0000000000000000       0x16 emodules/mod_orange/built-in.o
 .rodata.table  0x0000000000000000       0x54 emodules/mod_orange/built-in.o
 .rodata.__func__.12144
                0x0000000000000000       0x11 emodules/mod_orange/built-in.o
 .rodata.rect_vert_mirror.str1.8
                0x0000000000000000       0x68 emodules/mod_orange/built-in.o
 .rodata.AutoPanelPrepare.str1.8
                0x0000000000000000       0x63 emodules/mod_orange/built-in.o
 .rodata.BmpAlphaBlend.str1.8
                0x0000000000000000       0x64 emodules/mod_orange/built-in.o
 .rodata.InitTmpBmp.cst8
                0x0000000000000000       0x10 emodules/mod_orange/built-in.o
 .rodata.LoadBmpFromFile.str1.8
                0x0000000000000000      0x112 emodules/mod_orange/built-in.o
 .rodata.RotateBmp.cst8
                0x0000000000000000       0x18 emodules/mod_orange/built-in.o
 .rodata.RotateBmp.str1.8
                0x0000000000000000       0x60 emodules/mod_orange/built-in.o
 .rodata.__func__.11976
                0x0000000000000000        0xb emodules/mod_orange/built-in.o
 .rodata.__func__.11989
                0x0000000000000000        0xb emodules/mod_orange/built-in.o
 .rodata.__func__.12000
                0x0000000000000000        0xf emodules/mod_orange/built-in.o
 .rodata.__func__.12024
                0x0000000000000000        0xe emodules/mod_orange/built-in.o
 .rodata.__func__.12071
                0x0000000000000000        0xa emodules/mod_orange/built-in.o
 .rodata.__func__.12097
                0x0000000000000000        0xe emodules/mod_orange/built-in.o
 .rodata.__func__.12129
                0x0000000000000000       0x11 emodules/mod_orange/built-in.o
 .data          0x0000000000000000        0x0 emodules/mod_orange/built-in.o
 .data._acVersion
                0x0000000000000000        0x7 emodules/mod_orange/built-in.o
 .data.keyfile  0x0000000000000000        0x4 emodules/mod_orange/built-in.o
 .data.LCD_APIList180
                0x0000000000000000       0x10 emodules/mod_orange/built-in.o
 .data.LCD_APIListCW
                0x0000000000000000       0x10 emodules/mod_orange/built-in.o
 .data.LCD_APIListCCW
                0x0000000000000000       0x10 emodules/mod_orange/built-in.o
 .bss           0x0000000000000000        0x0 emodules/mod_orange/built-in.o
 .bss.KeyIsInited
                0x0000000000000000        0x1 emodules/mod_orange/built-in.o
 .bss.KeyPressed
                0x0000000000000000        0x4 emodules/mod_orange/built-in.o
 .bss.FRAME_A_32BPP
                0x0000000000000000        0x4 emodules/mod_orange/built-in.o
 .bss.GUI_RectDispString
                0x0000000000000000        0x8 emodules/mod_orange/built-in.o
 .bss._State    0x0000000000000000       0x2c emodules/mod_orange/built-in.o
 .bss._Buttons  0x0000000000000000        0x1 emodules/mod_orange/built-in.o
 .bss._NumBytesInBuffer
                0x0000000000000000        0x4 emodules/mod_orange/built-in.o
 .bss._ScreenX  0x0000000000000000        0x4 emodules/mod_orange/built-in.o
 .bss._ScreenY  0x0000000000000000        0x4 emodules/mod_orange/built-in.o
 .bss._abInBuffer
                0x0000000000000000        0x3 emodules/mod_orange/built-in.o
 .bss.GUI_pfKeyMsgHook
                0x0000000000000000        0x8 emodules/mod_orange/built-in.o
 .bss._Key      0x0000000000000000        0x4 emodules/mod_orange/built-in.o
 .bss._State.12970
                0x0000000000000000        0xc emodules/mod_orange/built-in.o
 .bss._x        0x0000000000000000        0x4 emodules/mod_orange/built-in.o
 .bss._y        0x0000000000000000        0x4 emodules/mod_orange/built-in.o
 .bss.GUI_pfDispCharStyle
                0x0000000000000000        0x8 emodules/mod_orange/built-in.o
 .bss.GUI_pfTimerExec
                0x0000000000000000        0x8 emodules/mod_orange/built-in.o
 .bss.WM_pfHandlePID
                0x0000000000000000        0x8 emodules/mod_orange/built-in.o
 .bss._hActiveTimer
                0x0000000000000000        0x2 emodules/mod_orange/built-in.o
 .bss.hFirstTimer
                0x0000000000000000        0x2 emodules/mod_orange/built-in.o
 .bss.Cache     0x0000000000000000       0x18 emodules/mod_orange/built-in.o
 .bss.sg_InVisSpriteList
                0x0000000000000000        0x8 emodules/mod_orange/built-in.o
 .bss.step_table
                0x0000000000000000      0x200 emodules/mod_orange/built-in.o
 .text          0x0000000000000000        0x0 ./elibrary/bin/libsyscall.a(syscall.o)
 .data          0x0000000000000000        0x0 ./elibrary/bin/libsyscall.a(syscall.o)
 .bss           0x0000000000000000        0x0 ./elibrary/bin/libsyscall.a(syscall.o)
 .text.esCFG_Exit_Ex
                0x0000000000000000       0x18 ./elibrary/bin/libsyscall.a(syscall.o)
 .text.esCFG_GetGPIOSecData
                0x0000000000000000       0x18 ./elibrary/bin/libsyscall.a(syscall.o)
 .text.esCFG_GetGPIOSecData_Ex
                0x0000000000000000       0x18 ./elibrary/bin/libsyscall.a(syscall.o)
 .text.esCFG_GetGPIOSecKeyCount
                0x0000000000000000       0x18 ./elibrary/bin/libsyscall.a(syscall.o)
 .text.esCFG_GetGPIOSecKeyCount_Ex
                0x0000000000000000       0x18 ./elibrary/bin/libsyscall.a(syscall.o)
 .text.esCFG_GetKeyValue
                0x0000000000000000       0x18 ./elibrary/bin/libsyscall.a(syscall.o)
 .text.esCFG_GetKeyValue_Ex
                0x0000000000000000       0x18 ./elibrary/bin/libsyscall.a(syscall.o)
 .text.esCFG_GetSecCount
                0x0000000000000000       0x18 ./elibrary/bin/libsyscall.a(syscall.o)
 .text.esCFG_GetSecCount_Ex
                0x0000000000000000       0x18 ./elibrary/bin/libsyscall.a(syscall.o)
 .text.esCFG_GetSecKeyCount
                0x0000000000000000       0x18 ./elibrary/bin/libsyscall.a(syscall.o)
 .text.esCFG_GetSecKeyCount_Ex
                0x0000000000000000       0x18 ./elibrary/bin/libsyscall.a(syscall.o)
 .text.esCFG_Init_Ex
                0x0000000000000000       0x16 ./elibrary/bin/libsyscall.a(syscall.o)
 .text.esCHS_GetChLowerTbl
                0x0000000000000000       0x1c ./elibrary/bin/libsyscall.a(syscall.o)
 .text.esCHS_GetChUpperTbl
                0x0000000000000000       0x1c ./elibrary/bin/libsyscall.a(syscall.o)
 .text.esCLK_CloseMclk
                0x0000000000000000       0x1c ./elibrary/bin/libsyscall.a(syscall.o)
 .text.esCLK_GetMclkDiv
                0x0000000000000000       0x1c ./elibrary/bin/libsyscall.a(syscall.o)
 .text.esCLK_GetMclkSrc
                0x0000000000000000       0x1c ./elibrary/bin/libsyscall.a(syscall.o)
 .text.esCLK_GetRound_Rate
                0x0000000000000000       0x20 ./elibrary/bin/libsyscall.a(syscall.o)
 .text.esCLK_GetSrcFreq
                0x0000000000000000       0x1c ./elibrary/bin/libsyscall.a(syscall.o)
 .text.esCLK_MclkAssert
                0x0000000000000000       0x1c ./elibrary/bin/libsyscall.a(syscall.o)
 .text.esCLK_MclkDeassert
                0x0000000000000000       0x1c ./elibrary/bin/libsyscall.a(syscall.o)
 .text.esCLK_MclkGetRstStatus
                0x0000000000000000       0x1c ./elibrary/bin/libsyscall.a(syscall.o)
 .text.esCLK_MclkOnOff
                0x0000000000000000       0x20 ./elibrary/bin/libsyscall.a(syscall.o)
 .text.esCLK_MclkRegCb
                0x0000000000000000       0x1c ./elibrary/bin/libsyscall.a(syscall.o)
 .text.esCLK_MclkReset
                0x0000000000000000       0x1c ./elibrary/bin/libsyscall.a(syscall.o)
 .text.esCLK_MclkUnregCb
                0x0000000000000000       0x1c ./elibrary/bin/libsyscall.a(syscall.o)
 .text.esCLK_ModInfo
                0x0000000000000000       0x16 ./elibrary/bin/libsyscall.a(syscall.o)
 .text.esCLK_OpenMclk
                0x0000000000000000       0x1c ./elibrary/bin/libsyscall.a(syscall.o)
 .text.esCLK_SetMclkDiv
                0x0000000000000000       0x20 ./elibrary/bin/libsyscall.a(syscall.o)
 .text.esCLK_SetMclkSrc
                0x0000000000000000       0x20 ./elibrary/bin/libsyscall.a(syscall.o)
 .text.esCLK_SetSrcFreq
                0x0000000000000000       0x20 ./elibrary/bin/libsyscall.a(syscall.o)
 .text.esCLK_SysInfo
                0x0000000000000000       0x16 ./elibrary/bin/libsyscall.a(syscall.o)
 .text.esDEV_Close
                0x0000000000000000       0x18 ./elibrary/bin/libsyscall.a(syscall.o)
 .text.esDEV_DevReg
                0x0000000000000000       0x16 ./elibrary/bin/libsyscall.a(syscall.o)
 .text.esDEV_DevUnreg
                0x0000000000000000       0x18 ./elibrary/bin/libsyscall.a(syscall.o)
 .text.esDEV_Insmod
                0x0000000000000000       0x1c ./elibrary/bin/libsyscall.a(syscall.o)
 .text.esDEV_Ioctl
                0x0000000000000000       0x1c ./elibrary/bin/libsyscall.a(syscall.o)
 .text.esDEV_Lock
                0x0000000000000000       0x18 ./elibrary/bin/libsyscall.a(syscall.o)
 .text.esDEV_Open
                0x0000000000000000       0x1a ./elibrary/bin/libsyscall.a(syscall.o)
 .text.esDEV_Plugin
                0x0000000000000000       0x1c ./elibrary/bin/libsyscall.a(syscall.o)
 .text.esDEV_Plugout
                0x0000000000000000       0x1c ./elibrary/bin/libsyscall.a(syscall.o)
 .text.esDEV_Read
                0x0000000000000000       0x20 ./elibrary/bin/libsyscall.a(syscall.o)
 .text.esDEV_Unimod
                0x0000000000000000       0x1c ./elibrary/bin/libsyscall.a(syscall.o)
 .text.esDEV_Unlock
                0x0000000000000000       0x18 ./elibrary/bin/libsyscall.a(syscall.o)
 .text.esDEV_Write
                0x0000000000000000       0x20 ./elibrary/bin/libsyscall.a(syscall.o)
 .text.rt_device_register
                0x0000000000000000       0x16 ./elibrary/bin/libsyscall.a(syscall.o)
 .text.rt_device_unregister
                0x0000000000000000       0x16 ./elibrary/bin/libsyscall.a(syscall.o)
 .text.esDMA_ChangeMode
                0x0000000000000000       0x18 ./elibrary/bin/libsyscall.a(syscall.o)
 .text.esDMA_DisableINT
                0x0000000000000000       0x18 ./elibrary/bin/libsyscall.a(syscall.o)
 .text.esDMA_EnableINT
                0x0000000000000000       0x18 ./elibrary/bin/libsyscall.a(syscall.o)
 .text.esDMA_Information
                0x0000000000000000       0x16 ./elibrary/bin/libsyscall.a(syscall.o)
 .text.esDMA_QueryDst
                0x0000000000000000       0x16 ./elibrary/bin/libsyscall.a(syscall.o)
 .text.esDMA_QueryRestCount
                0x0000000000000000       0x16 ./elibrary/bin/libsyscall.a(syscall.o)
 .text.esDMA_QuerySrc
                0x0000000000000000       0x16 ./elibrary/bin/libsyscall.a(syscall.o)
 .text.esDMA_QueryStat
                0x0000000000000000       0x1a ./elibrary/bin/libsyscall.a(syscall.o)
 .text.esDMA_RegDmaHdler
                0x0000000000000000       0x18 ./elibrary/bin/libsyscall.a(syscall.o)
 .text.esDMA_Release
                0x0000000000000000       0x18 ./elibrary/bin/libsyscall.a(syscall.o)
 .text.esDMA_Request
                0x0000000000000000       0x16 ./elibrary/bin/libsyscall.a(syscall.o)
 .text.esDMA_Restart
                0x0000000000000000       0x18 ./elibrary/bin/libsyscall.a(syscall.o)
 .text.esDMA_Setting
                0x0000000000000000       0x18 ./elibrary/bin/libsyscall.a(syscall.o)
 .text.esDMA_Start
                0x0000000000000000       0x18 ./elibrary/bin/libsyscall.a(syscall.o)
 .text.esDMA_Stop
                0x0000000000000000       0x18 ./elibrary/bin/libsyscall.a(syscall.o)
 .text.esDMA_UnregDmaHdler
                0x0000000000000000       0x18 ./elibrary/bin/libsyscall.a(syscall.o)
 .text.esEXEC_PCreate
                0x0000000000000000       0x1e ./elibrary/bin/libsyscall.a(syscall.o)
 .text.esEXEC_PDel
                0x0000000000000000       0x1a ./elibrary/bin/libsyscall.a(syscall.o)
 .text.esEXEC_PDelReq
                0x0000000000000000       0x1a ./elibrary/bin/libsyscall.a(syscall.o)
 .text.esEXEC_Run
                0x0000000000000000       0x1e ./elibrary/bin/libsyscall.a(syscall.o)
 .text.esFSYS_clearpartupdateflag
                0x0000000000000000       0x18 ./elibrary/bin/libsyscall.a(syscall.o)
 .text.esFSYS_closedir
                0x0000000000000000       0x18 ./elibrary/bin/libsyscall.a(syscall.o)
 .text.esFSYS_fd2file
                0x0000000000000000       0x16 ./elibrary/bin/libsyscall.a(syscall.o)
 .text.esFSYS_ferrclr
                0x0000000000000000       0x16 ./elibrary/bin/libsyscall.a(syscall.o)
 .text.esFSYS_ferror
                0x0000000000000000       0x18 ./elibrary/bin/libsyscall.a(syscall.o)
 .text.esFSYS_file2fd
                0x0000000000000000       0x18 ./elibrary/bin/libsyscall.a(syscall.o)
 .text.esFSYS_fioctrl
                0x0000000000000000       0x18 ./elibrary/bin/libsyscall.a(syscall.o)
 .text.esFSYS_format
                0x0000000000000000       0x18 ./elibrary/bin/libsyscall.a(syscall.o)
 .text.esFSYS_fsdbg
                0x0000000000000000       0x18 ./elibrary/bin/libsyscall.a(syscall.o)
 .text.esFSYS_fseekex
                0x0000000000000000       0x16 ./elibrary/bin/libsyscall.a(syscall.o)
 .text.esFSYS_fsreg
                0x0000000000000000       0x18 ./elibrary/bin/libsyscall.a(syscall.o)
 .text.esFSYS_fstat
                0x0000000000000000       0x18 ./elibrary/bin/libsyscall.a(syscall.o)
 .text.esFSYS_fsunreg
                0x0000000000000000       0x18 ./elibrary/bin/libsyscall.a(syscall.o)
 .text.esFSYS_fsync
                0x0000000000000000       0x18 ./elibrary/bin/libsyscall.a(syscall.o)
 .text.esFSYS_ftell
                0x0000000000000000       0x18 ./elibrary/bin/libsyscall.a(syscall.o)
 .text.esFSYS_ftellex
                0x0000000000000000       0x18 ./elibrary/bin/libsyscall.a(syscall.o)
 .text.esFSYS_ftruncate
                0x0000000000000000       0x1c ./elibrary/bin/libsyscall.a(syscall.o)
 .text.esFSYS_fwrite
                0x0000000000000000       0x20 ./elibrary/bin/libsyscall.a(syscall.o)
 .text.esFSYS_getfscharset
                0x0000000000000000       0x18 ./elibrary/bin/libsyscall.a(syscall.o)
 .text.esFSYS_mkdir
                0x0000000000000000       0x18 ./elibrary/bin/libsyscall.a(syscall.o)
 .text.esFSYS_mntfs
                0x0000000000000000       0x18 ./elibrary/bin/libsyscall.a(syscall.o)
 .text.esFSYS_mntparts
                0x0000000000000000       0x18 ./elibrary/bin/libsyscall.a(syscall.o)
 .text.esFSYS_open
                0x0000000000000000       0x18 ./elibrary/bin/libsyscall.a(syscall.o)
 .text.esFSYS_opendir
                0x0000000000000000       0x16 ./elibrary/bin/libsyscall.a(syscall.o)
 .text.esFSYS_partfslck
                0x0000000000000000       0x18 ./elibrary/bin/libsyscall.a(syscall.o)
 .text.esFSYS_partfsunlck
                0x0000000000000000       0x18 ./elibrary/bin/libsyscall.a(syscall.o)
 .text.esFSYS_pclose
                0x0000000000000000       0x18 ./elibrary/bin/libsyscall.a(syscall.o)
 .text.esFSYS_pdreg
                0x0000000000000000       0x18 ./elibrary/bin/libsyscall.a(syscall.o)
 .text.esFSYS_pdunreg
                0x0000000000000000       0x18 ./elibrary/bin/libsyscall.a(syscall.o)
 .text.esFSYS_perrclr
                0x0000000000000000       0x16 ./elibrary/bin/libsyscall.a(syscall.o)
 .text.esFSYS_perror
                0x0000000000000000       0x18 ./elibrary/bin/libsyscall.a(syscall.o)
 .text.esFSYS_pioctrl
                0x0000000000000000       0x1c ./elibrary/bin/libsyscall.a(syscall.o)
 .text.esFSYS_popen
                0x0000000000000000       0x16 ./elibrary/bin/libsyscall.a(syscall.o)
 .text.esFSYS_pread
                0x0000000000000000       0x20 ./elibrary/bin/libsyscall.a(syscall.o)
 .text.esFSYS_premove
                0x0000000000000000       0x18 ./elibrary/bin/libsyscall.a(syscall.o)
 .text.esFSYS_prename
                0x0000000000000000       0x18 ./elibrary/bin/libsyscall.a(syscall.o)
 .text.esFSYS_pwrite
                0x0000000000000000       0x20 ./elibrary/bin/libsyscall.a(syscall.o)
 .text.esFSYS_querypartupdateflag
                0x0000000000000000       0x18 ./elibrary/bin/libsyscall.a(syscall.o)
 .text.esFSYS_readdir
                0x0000000000000000       0x16 ./elibrary/bin/libsyscall.a(syscall.o)
 .text.esFSYS_remove
                0x0000000000000000       0x18 ./elibrary/bin/libsyscall.a(syscall.o)
 .text.esFSYS_rename
                0x0000000000000000       0x18 ./elibrary/bin/libsyscall.a(syscall.o)
 .text.esFSYS_rewinddir
                0x0000000000000000       0x16 ./elibrary/bin/libsyscall.a(syscall.o)
 .text.esFSYS_rmdir
                0x0000000000000000       0x18 ./elibrary/bin/libsyscall.a(syscall.o)
 .text.esFSYS_setfs
                0x0000000000000000       0x1c ./elibrary/bin/libsyscall.a(syscall.o)
 .text.esFSYS_statfs
                0x0000000000000000       0x1c ./elibrary/bin/libsyscall.a(syscall.o)
 .text.esFSYS_statpt
                0x0000000000000000       0x18 ./elibrary/bin/libsyscall.a(syscall.o)
 .text.esFSYS_umntfs
                0x0000000000000000       0x18 ./elibrary/bin/libsyscall.a(syscall.o)
 .text.esFSYS_umntparts
                0x0000000000000000       0x1c ./elibrary/bin/libsyscall.a(syscall.o)
 .text.esHID_hiddevreg
                0x0000000000000000       0x18 ./elibrary/bin/libsyscall.a(syscall.o)
 .text.esHID_hiddevunreg
                0x0000000000000000       0x1c ./elibrary/bin/libsyscall.a(syscall.o)
 .text.esHID_SendMsg
                0x0000000000000000       0x1c ./elibrary/bin/libsyscall.a(syscall.o)
 .text.esINPUT_GetLdevID
                0x0000000000000000       0x18 ./elibrary/bin/libsyscall.a(syscall.o)
 .text.esINPUT_LdevCtl
                0x0000000000000000       0x18 ./elibrary/bin/libsyscall.a(syscall.o)
 .text.esINPUT_LdevFeedback
                0x0000000000000000       0x18 ./elibrary/bin/libsyscall.a(syscall.o)
 .text.esINPUT_LdevGrab
                0x0000000000000000       0x16 ./elibrary/bin/libsyscall.a(syscall.o)
 .text.esINPUT_LdevRelease
                0x0000000000000000       0x18 ./elibrary/bin/libsyscall.a(syscall.o)
 .text.esINPUT_RegDev
                0x0000000000000000       0x18 ./elibrary/bin/libsyscall.a(syscall.o)
 .text.esINPUT_SendEvent
                0x0000000000000000       0x20 ./elibrary/bin/libsyscall.a(syscall.o)
 .text.esINPUT_UnregDev
                0x0000000000000000       0x18 ./elibrary/bin/libsyscall.a(syscall.o)
 .text.esINT_DisableINT
                0x0000000000000000       0x1c ./elibrary/bin/libsyscall.a(syscall.o)
 .text.esINT_EnableINT
                0x0000000000000000       0x1c ./elibrary/bin/libsyscall.a(syscall.o)
 .text.esINT_InsFIR
                0x0000000000000000       0x1c ./elibrary/bin/libsyscall.a(syscall.o)
 .text.esINT_InsISR
                0x0000000000000000       0x1c ./elibrary/bin/libsyscall.a(syscall.o)
 .text.esINT_SetIRQPrio
                0x0000000000000000       0x20 ./elibrary/bin/libsyscall.a(syscall.o)
 .text.esINT_UniFIR
                0x0000000000000000       0x1c ./elibrary/bin/libsyscall.a(syscall.o)
 .text.esINT_UniISR
                0x0000000000000000       0x1c ./elibrary/bin/libsyscall.a(syscall.o)
 .text.esKRNL_DumpStack
                0x0000000000000000       0x16 ./elibrary/bin/libsyscall.a(syscall.o)
 .text.esKRNL_FlagAccept
                0x0000000000000000       0x1c ./elibrary/bin/libsyscall.a(syscall.o)
 .text.esKRNL_FlagNameGet
                0x0000000000000000       0x1a ./elibrary/bin/libsyscall.a(syscall.o)
 .text.esKRNL_FlagNameSet
                0x0000000000000000       0x16 ./elibrary/bin/libsyscall.a(syscall.o)
 .text.esKRNL_FlagPendGetFlagsRdy
                0x0000000000000000       0x18 ./elibrary/bin/libsyscall.a(syscall.o)
 .text.esKRNL_InterruptDisable
                0x0000000000000000       0x16 ./elibrary/bin/libsyscall.a(syscall.o)
 .text.esKRNL_InterruptEnable
                0x0000000000000000       0x16 ./elibrary/bin/libsyscall.a(syscall.o)
 .text.esKRNL_MboxAccept
                0x0000000000000000       0x16 ./elibrary/bin/libsyscall.a(syscall.o)
 .text.esKRNL_MboxDel
                0x0000000000000000       0x16 ./elibrary/bin/libsyscall.a(syscall.o)
 .text.esKRNL_MboxPend
                0x0000000000000000       0x18 ./elibrary/bin/libsyscall.a(syscall.o)
 .text.esKRNL_MboxPost
                0x0000000000000000       0x1a ./elibrary/bin/libsyscall.a(syscall.o)
 .text.esKRNL_MboxPostOpt
                0x0000000000000000       0x1e ./elibrary/bin/libsyscall.a(syscall.o)
 .text.esKRNL_MboxQuery
                0x0000000000000000       0x1a ./elibrary/bin/libsyscall.a(syscall.o)
 .text.esKRNL_MemLeakChk
                0x0000000000000000       0x1a ./elibrary/bin/libsyscall.a(syscall.o)
 .text.esKRNL_MutexCreate
                0x0000000000000000       0x16 ./elibrary/bin/libsyscall.a(syscall.o)
 .text.esKRNL_MutexDel
                0x0000000000000000       0x16 ./elibrary/bin/libsyscall.a(syscall.o)
 .text.esKRNL_MutexPend
                0x0000000000000000       0x16 ./elibrary/bin/libsyscall.a(syscall.o)
 .text.esKRNL_MutexPost
                0x0000000000000000       0x1a ./elibrary/bin/libsyscall.a(syscall.o)
 .text.esKRNL_QAccept
                0x0000000000000000       0x16 ./elibrary/bin/libsyscall.a(syscall.o)
 .text.esKRNL_QPostFront
                0x0000000000000000       0x1a ./elibrary/bin/libsyscall.a(syscall.o)
 .text.esKRNL_QPostOpt
                0x0000000000000000       0x1a ./elibrary/bin/libsyscall.a(syscall.o)
 .text.esKRNL_SchedLock
                0x0000000000000000       0x16 ./elibrary/bin/libsyscall.a(syscall.o)
 .text.esKRNL_SchedUnlock
                0x0000000000000000       0x16 ./elibrary/bin/libsyscall.a(syscall.o)
 .text.esKRNL_SemSet
                0x0000000000000000       0x16 ./elibrary/bin/libsyscall.a(syscall.o)
 .text.esKRNL_SktAccept
                0x0000000000000000       0x16 ./elibrary/bin/libsyscall.a(syscall.o)
 .text.esKRNL_SktCreate
                0x0000000000000000       0x22 ./elibrary/bin/libsyscall.a(syscall.o)
 .text.esKRNL_SktDel
                0x0000000000000000       0x18 ./elibrary/bin/libsyscall.a(syscall.o)
 .text.esKRNL_SktPend
                0x0000000000000000       0x1a ./elibrary/bin/libsyscall.a(syscall.o)
 .text.esKRNL_SktPost
                0x0000000000000000       0x18 ./elibrary/bin/libsyscall.a(syscall.o)
 .text.esKRNL_TaskPrefEn
                0x0000000000000000       0x1a ./elibrary/bin/libsyscall.a(syscall.o)
 .text.esKRNL_Time
                0x0000000000000000       0x18 ./elibrary/bin/libsyscall.a(syscall.o)
 .text.esKRNL_TimeDlyResume
                0x0000000000000000       0x1e ./elibrary/bin/libsyscall.a(syscall.o)
 .text.esKRNL_TimeGet
                0x0000000000000000       0x18 ./elibrary/bin/libsyscall.a(syscall.o)
 .text.esKRNL_TimeSet
                0x0000000000000000       0x1a ./elibrary/bin/libsyscall.a(syscall.o)
 .text.esKRNL_TmrCreate
                0x0000000000000000       0x1a ./elibrary/bin/libsyscall.a(syscall.o)
 .text.esKRNL_TmrDel
                0x0000000000000000       0x18 ./elibrary/bin/libsyscall.a(syscall.o)
 .text.esKRNL_TmrError
                0x0000000000000000       0x1a ./elibrary/bin/libsyscall.a(syscall.o)
 .text.esKRNL_TmrRemainGet
                0x0000000000000000       0x18 ./elibrary/bin/libsyscall.a(syscall.o)
 .text.esKRNL_TmrStart
                0x0000000000000000       0x18 ./elibrary/bin/libsyscall.a(syscall.o)
 .text.esKRNL_TmrStateGet
                0x0000000000000000       0x1a ./elibrary/bin/libsyscall.a(syscall.o)
 .text.esKRNL_TmrStop
                0x0000000000000000       0x18 ./elibrary/bin/libsyscall.a(syscall.o)
 .text.esKRNL_Version
                0x0000000000000000       0x1a ./elibrary/bin/libsyscall.a(syscall.o)
 .text.esKSRV_ClearWatchDog
                0x0000000000000000       0x18 ./elibrary/bin/libsyscall.a(syscall.o)
 .text.esKSRV_DisableWatchDog
                0x0000000000000000       0x18 ./elibrary/bin/libsyscall.a(syscall.o)
 .text.esKSRV_DisableWatchDogSrv
                0x0000000000000000       0x18 ./elibrary/bin/libsyscall.a(syscall.o)
 .text.esKSRV_EnableWatchDog
                0x0000000000000000       0x18 ./elibrary/bin/libsyscall.a(syscall.o)
 .text.esKSRV_EnableWatchDogSrv
                0x0000000000000000       0x18 ./elibrary/bin/libsyscall.a(syscall.o)
 .text.esKSRV_GetAddPara
                0x0000000000000000       0x18 ./elibrary/bin/libsyscall.a(syscall.o)
 .text.esKSRV_GetDramCfgPara
                0x0000000000000000       0x18 ./elibrary/bin/libsyscall.a(syscall.o)
 .text.esKSRV_GetHighMsg
                0x0000000000000000       0x16 ./elibrary/bin/libsyscall.a(syscall.o)
 .text.esKSRV_GetLowMsg
                0x0000000000000000       0x16 ./elibrary/bin/libsyscall.a(syscall.o)
 .text.esKSRV_GetMsg
                0x0000000000000000       0x16 ./elibrary/bin/libsyscall.a(syscall.o)
 .text.esKSRV_GetPara
                0x0000000000000000       0x1c ./elibrary/bin/libsyscall.a(syscall.o)
 .text.esKSRV_GetSocID
                0x0000000000000000       0x1a ./elibrary/bin/libsyscall.a(syscall.o)
 .text.esKSRV_GetTargetPara
                0x0000000000000000       0x18 ./elibrary/bin/libsyscall.a(syscall.o)
 .text.esKSRV_GetVersion
                0x0000000000000000       0x18 ./elibrary/bin/libsyscall.a(syscall.o)
 .text.esKSRV_Save_Mixture_Hld
                0x0000000000000000       0x16 ./elibrary/bin/libsyscall.a(syscall.o)
 .text.esKSRV_Get_Mixture_Hld
                0x0000000000000000       0x16 ./elibrary/bin/libsyscall.a(syscall.o)
 .text.esKSRV_memcpy
                0x0000000000000000       0x18 ./elibrary/bin/libsyscall.a(syscall.o)
 .text.esKSRV_memset
                0x0000000000000000       0x18 ./elibrary/bin/libsyscall.a(syscall.o)
 .text.esKSRV_PowerOff
                0x0000000000000000       0x16 ./elibrary/bin/libsyscall.a(syscall.o)
 .text.esKSRV_Random
                0x0000000000000000       0x1c ./elibrary/bin/libsyscall.a(syscall.o)
 .text.esKSRV_Reset
                0x0000000000000000       0x16 ./elibrary/bin/libsyscall.a(syscall.o)
 .text.esKSRV_Save_Display_Hld
                0x0000000000000000       0x16 ./elibrary/bin/libsyscall.a(syscall.o)
 .text.esKSRV_SendMsg
                0x0000000000000000       0x20 ./elibrary/bin/libsyscall.a(syscall.o)
 .text.esKSRV_SendMsgEx
                0x0000000000000000       0x18 ./elibrary/bin/libsyscall.a(syscall.o)
 .text.esKSRV_SysInfo
                0x0000000000000000       0x18 ./elibrary/bin/libsyscall.a(syscall.o)
 .text.esMEMS_Calloc
                0x0000000000000000       0x1e ./elibrary/bin/libsyscall.a(syscall.o)
 .text.esMEMS_CleanDCache
                0x0000000000000000       0x16 ./elibrary/bin/libsyscall.a(syscall.o)
 .text.esMEMS_CleanDCacheRegion
                0x0000000000000000       0x1a ./elibrary/bin/libsyscall.a(syscall.o)
 .text.esMEMS_CleanFlushCache
                0x0000000000000000       0x16 ./elibrary/bin/libsyscall.a(syscall.o)
 .text.esMEMS_CleanFlushCacheRegion
                0x0000000000000000       0x1a ./elibrary/bin/libsyscall.a(syscall.o)
 .text.esMEMS_CleanFlushDCache
                0x0000000000000000       0x16 ./elibrary/bin/libsyscall.a(syscall.o)
 .text.esMEMS_CleanInvalidateCacheAll
                0x0000000000000000       0x16 ./elibrary/bin/libsyscall.a(syscall.o)
 .text.esMEMS_FlushCache
                0x0000000000000000       0x16 ./elibrary/bin/libsyscall.a(syscall.o)
 .text.esMEMS_FlushCacheRegion
                0x0000000000000000       0x1a ./elibrary/bin/libsyscall.a(syscall.o)
 .text.esMEMS_FlushDCache
                0x0000000000000000       0x16 ./elibrary/bin/libsyscall.a(syscall.o)
 .text.esMEMS_FlushDCacheRegion
                0x0000000000000000       0x1a ./elibrary/bin/libsyscall.a(syscall.o)
 .text.esMEMS_FlushICache
                0x0000000000000000       0x16 ./elibrary/bin/libsyscall.a(syscall.o)
 .text.esMEMS_FlushICacheRegion
                0x0000000000000000       0x1a ./elibrary/bin/libsyscall.a(syscall.o)
 .text.esMEMS_FreeMemSize
                0x0000000000000000       0x18 ./elibrary/bin/libsyscall.a(syscall.o)
 .text.esMEMS_GetIoVAByPA
                0x0000000000000000       0x1c ./elibrary/bin/libsyscall.a(syscall.o)
 .text.esMEMS_HeapCreate
                0x0000000000000000       0x1c ./elibrary/bin/libsyscall.a(syscall.o)
 .text.esMEMS_HeapDel
                0x0000000000000000       0x16 ./elibrary/bin/libsyscall.a(syscall.o)
 .text.esMEMS_Info
                0x0000000000000000       0x18 ./elibrary/bin/libsyscall.a(syscall.o)
 .text.esMEMS_Realloc
                0x0000000000000000       0x1a ./elibrary/bin/libsyscall.a(syscall.o)
 .text.esMEMS_TotalMemSize
                0x0000000000000000       0x18 ./elibrary/bin/libsyscall.a(syscall.o)
 .text.esMEMS_VA2PA
                0x0000000000000000       0x16 ./elibrary/bin/libsyscall.a(syscall.o)
 .text.esMEMS_VMalloc
                0x0000000000000000       0x16 ./elibrary/bin/libsyscall.a(syscall.o)
 .text.esMEMS_VMCreate
                0x0000000000000000       0x1c ./elibrary/bin/libsyscall.a(syscall.o)
 .text.esMEMS_VMDelete
                0x0000000000000000       0x1a ./elibrary/bin/libsyscall.a(syscall.o)
 .text.esMEMS_VMfree
                0x0000000000000000       0x16 ./elibrary/bin/libsyscall.a(syscall.o)
 .text.esMEM_BWDisable
                0x0000000000000000       0x18 ./elibrary/bin/libsyscall.a(syscall.o)
 .text.esMEM_BWEnable
                0x0000000000000000       0x18 ./elibrary/bin/libsyscall.a(syscall.o)
 .text.esMEM_BWGet
                0x0000000000000000       0x18 ./elibrary/bin/libsyscall.a(syscall.o)
 .text.esMEM_DramSuspend
                0x0000000000000000       0x18 ./elibrary/bin/libsyscall.a(syscall.o)
 .text.esMEM_DramWakeup
                0x0000000000000000       0x18 ./elibrary/bin/libsyscall.a(syscall.o)
 .text.esMEM_MasterGet
                0x0000000000000000       0x18 ./elibrary/bin/libsyscall.a(syscall.o)
 .text.esMEM_MasterSet
                0x0000000000000000       0x18 ./elibrary/bin/libsyscall.a(syscall.o)
 .text.esMEM_RegDramAccess
                0x0000000000000000       0x16 ./elibrary/bin/libsyscall.a(syscall.o)
 .text.esMEM_ReleaseDramUsrMode
                0x0000000000000000       0x18 ./elibrary/bin/libsyscall.a(syscall.o)
 .text.esMEM_RequestDramUsrMode
                0x0000000000000000       0x18 ./elibrary/bin/libsyscall.a(syscall.o)
 .text.esMEM_SramRelBlk
                0x0000000000000000       0x18 ./elibrary/bin/libsyscall.a(syscall.o)
 .text.esMEM_SramReqBlk
                0x0000000000000000       0x16 ./elibrary/bin/libsyscall.a(syscall.o)
 .text.esMEM_SramSwitchBlk
                0x0000000000000000       0x18 ./elibrary/bin/libsyscall.a(syscall.o)
 .text.esMEM_UnRegDramAccess
                0x0000000000000000       0x18 ./elibrary/bin/libsyscall.a(syscall.o)
 .text.esMODS_MClose
                0x0000000000000000       0x18 ./elibrary/bin/libsyscall.a(syscall.o)
 .text.esMODS_MInstall
                0x0000000000000000       0x18 ./elibrary/bin/libsyscall.a(syscall.o)
 .text.esMODS_MOpen
                0x0000000000000000       0x16 ./elibrary/bin/libsyscall.a(syscall.o)
 .text.esMODS_MRead
                0x0000000000000000       0x20 ./elibrary/bin/libsyscall.a(syscall.o)
 .text.esMODS_MUninstall
                0x0000000000000000       0x18 ./elibrary/bin/libsyscall.a(syscall.o)
 .text.esMODS_MWrite
                0x0000000000000000       0x20 ./elibrary/bin/libsyscall.a(syscall.o)
 .text.esMSTUB_GetFuncEntry
                0x0000000000000000       0x1e ./elibrary/bin/libsyscall.a(syscall.o)
 .text.esMSTUB_RegFuncTbl
                0x0000000000000000       0x18 ./elibrary/bin/libsyscall.a(syscall.o)
 .text.esMSTUB_UnRegFuncTbl
                0x0000000000000000       0x18 ./elibrary/bin/libsyscall.a(syscall.o)
 .text.esPINS_ClearPending
                0x0000000000000000       0x16 ./elibrary/bin/libsyscall.a(syscall.o)
 .text.esPINS_DisbaleInt
                0x0000000000000000       0x16 ./elibrary/bin/libsyscall.a(syscall.o)
 .text.esPINS_EnbaleInt
                0x0000000000000000       0x16 ./elibrary/bin/libsyscall.a(syscall.o)
 .text.esPINS_GetPinGrpStat
                0x0000000000000000       0x1a ./elibrary/bin/libsyscall.a(syscall.o)
 .text.esPINS_GetPinStat
                0x0000000000000000       0x16 ./elibrary/bin/libsyscall.a(syscall.o)
 .text.esPINS_PinGrpRel
                0x0000000000000000       0x16 ./elibrary/bin/libsyscall.a(syscall.o)
 .text.esPINS_PinGrpReq
                0x0000000000000000       0x16 ./elibrary/bin/libsyscall.a(syscall.o)
 .text.esPINS_QueryInt
                0x0000000000000000       0x16 ./elibrary/bin/libsyscall.a(syscall.o)
 .text.esPINS_ReadPinData
                0x0000000000000000       0x16 ./elibrary/bin/libsyscall.a(syscall.o)
 .text.esPINS_RegIntHdler
                0x0000000000000000       0x16 ./elibrary/bin/libsyscall.a(syscall.o)
 .text.esPINS_SetIntMode
                0x0000000000000000       0x1a ./elibrary/bin/libsyscall.a(syscall.o)
 .text.esPINS_SetPinDrive
                0x0000000000000000       0x1a ./elibrary/bin/libsyscall.a(syscall.o)
 .text.esPINS_SetPinIO
                0x0000000000000000       0x16 ./elibrary/bin/libsyscall.a(syscall.o)
 .text.esPINS_SetPinPull
                0x0000000000000000       0x1a ./elibrary/bin/libsyscall.a(syscall.o)
 .text.esPINS_SetPinStat
                0x0000000000000000       0x16 ./elibrary/bin/libsyscall.a(syscall.o)
 .text.esPINS_UnregIntHdler
                0x0000000000000000       0x16 ./elibrary/bin/libsyscall.a(syscall.o)
 .text.esPINS_WritePinData
                0x0000000000000000       0x1a ./elibrary/bin/libsyscall.a(syscall.o)
 .text.esPWRMAN_EnterStandby
                0x0000000000000000       0x1a ./elibrary/bin/libsyscall.a(syscall.o)
 .text.esPWRMAN_GetStandbyPara
                0x0000000000000000       0x18 ./elibrary/bin/libsyscall.a(syscall.o)
 .text.esPWRMAN_LockCpuFreq
                0x0000000000000000       0x18 ./elibrary/bin/libsyscall.a(syscall.o)
 .text.esPWRMAN_RegDevice
                0x0000000000000000       0x18 ./elibrary/bin/libsyscall.a(syscall.o)
 .text.esPWRMAN_RelPwrmanMode
                0x0000000000000000       0x18 ./elibrary/bin/libsyscall.a(syscall.o)
 .text.esPWRMAN_ReqPwrmanMode
                0x0000000000000000       0x18 ./elibrary/bin/libsyscall.a(syscall.o)
 .text.esPWRMAN_SetStandbyMode
                0x0000000000000000       0x1c ./elibrary/bin/libsyscall.a(syscall.o)
 .text.esPWRMAN_UnlockCpuFreq
                0x0000000000000000       0x18 ./elibrary/bin/libsyscall.a(syscall.o)
 .text.esPWRMAN_UnregDevice
                0x0000000000000000       0x18 ./elibrary/bin/libsyscall.a(syscall.o)
 .text.esPWRMAN_UsrEventNotify
                0x0000000000000000       0x16 ./elibrary/bin/libsyscall.a(syscall.o)
 .text.esSIOS_getchar
                0x0000000000000000       0x16 ./elibrary/bin/libsyscall.a(syscall.o)
 .text.esSIOS_gets
                0x0000000000000000       0x14 ./elibrary/bin/libsyscall.a(syscall.o)
 .text.esSIOS_putarg
                0x0000000000000000       0x18 ./elibrary/bin/libsyscall.a(syscall.o)
 .text.esSIOS_setbaud
                0x0000000000000000       0x18 ./elibrary/bin/libsyscall.a(syscall.o)
 .text.esSVC_RegCloseNode
                0x0000000000000000       0x18 ./elibrary/bin/libsyscall.a(syscall.o)
 .text.esSVC_RegClrError
                0x0000000000000000       0x18 ./elibrary/bin/libsyscall.a(syscall.o)
 .text.esSVC_RegCreateKey
                0x0000000000000000       0x18 ./elibrary/bin/libsyscall.a(syscall.o)
 .text.esSVC_RegCreatePath
                0x0000000000000000       0x18 ./elibrary/bin/libsyscall.a(syscall.o)
 .text.esSVC_RegCreateSet
                0x0000000000000000       0x18 ./elibrary/bin/libsyscall.a(syscall.o)
 .text.esSVC_RegDeleteKey
                0x0000000000000000       0x18 ./elibrary/bin/libsyscall.a(syscall.o)
 .text.esSVC_RegDeleteNode
                0x0000000000000000       0x18 ./elibrary/bin/libsyscall.a(syscall.o)
 .text.esSVC_RegDeletePath
                0x0000000000000000       0x18 ./elibrary/bin/libsyscall.a(syscall.o)
 .text.esSVC_RegDeleteSet
                0x0000000000000000       0x18 ./elibrary/bin/libsyscall.a(syscall.o)
 .text.esSVC_RegGetError
                0x0000000000000000       0x18 ./elibrary/bin/libsyscall.a(syscall.o)
 .text.esSVC_RegGetFirstKey
                0x0000000000000000       0x18 ./elibrary/bin/libsyscall.a(syscall.o)
 .text.esSVC_RegGetFirstSet
                0x0000000000000000       0x18 ./elibrary/bin/libsyscall.a(syscall.o)
 .text.esSVC_RegGetKeyCount
                0x0000000000000000       0x18 ./elibrary/bin/libsyscall.a(syscall.o)
 .text.esSVC_RegGetKeyValue
                0x0000000000000000       0x18 ./elibrary/bin/libsyscall.a(syscall.o)
 .text.esSVC_RegGetNextKey
                0x0000000000000000       0x18 ./elibrary/bin/libsyscall.a(syscall.o)
 .text.esSVC_RegGetNextSet
                0x0000000000000000       0x18 ./elibrary/bin/libsyscall.a(syscall.o)
 .text.esSVC_RegGetRootPath
                0x0000000000000000       0x16 ./elibrary/bin/libsyscall.a(syscall.o)
 .text.esSVC_RegGetSetCount
                0x0000000000000000       0x18 ./elibrary/bin/libsyscall.a(syscall.o)
 .text.esSVC_RegIni2Reg
                0x0000000000000000       0x18 ./elibrary/bin/libsyscall.a(syscall.o)
 .text.esSVC_RegOpenNode
                0x0000000000000000       0x16 ./elibrary/bin/libsyscall.a(syscall.o)
 .text.esSVC_RegReg2Ini
                0x0000000000000000       0x18 ./elibrary/bin/libsyscall.a(syscall.o)
 .text.esSVC_RegSetKeyValue
                0x0000000000000000       0x18 ./elibrary/bin/libsyscall.a(syscall.o)
 .text.esSVC_RegSetRootPath
                0x0000000000000000       0x16 ./elibrary/bin/libsyscall.a(syscall.o)
 .text.esSVC_ResourceRel
                0x0000000000000000       0x18 ./elibrary/bin/libsyscall.a(syscall.o)
 .text.esSVC_ResourceReq
                0x0000000000000000       0x22 ./elibrary/bin/libsyscall.a(syscall.o)
 .text.esTIME_ContiCntr
                0x0000000000000000       0x18 ./elibrary/bin/libsyscall.a(syscall.o)
 .text.esTIME_GetDate
                0x0000000000000000       0x18 ./elibrary/bin/libsyscall.a(syscall.o)
 .text.esTIME_GetTime
                0x0000000000000000       0x18 ./elibrary/bin/libsyscall.a(syscall.o)
 .text.esTIME_PauseCntr
                0x0000000000000000       0x18 ./elibrary/bin/libsyscall.a(syscall.o)
 .text.esTIME_QuerryAlarm
                0x0000000000000000       0x18 ./elibrary/bin/libsyscall.a(syscall.o)
 .text.esTIME_QuerryCntr
                0x0000000000000000       0x18 ./elibrary/bin/libsyscall.a(syscall.o)
 .text.esTIME_QuerryCntrStat
                0x0000000000000000       0x18 ./elibrary/bin/libsyscall.a(syscall.o)
 .text.esTIME_QuerryTimer
                0x0000000000000000       0x18 ./elibrary/bin/libsyscall.a(syscall.o)
 .text.esTIME_ReleaseAlarm
                0x0000000000000000       0x18 ./elibrary/bin/libsyscall.a(syscall.o)
 .text.esTIME_ReleaseCntr
                0x0000000000000000       0x18 ./elibrary/bin/libsyscall.a(syscall.o)
 .text.esTIME_ReleaseTimer
                0x0000000000000000       0x18 ./elibrary/bin/libsyscall.a(syscall.o)
 .text.esTIME_RequestAlarm
                0x0000000000000000       0x1a ./elibrary/bin/libsyscall.a(syscall.o)
 .text.esTIME_RequestCntr
                0x0000000000000000       0x16 ./elibrary/bin/libsyscall.a(syscall.o)
 .text.esTIME_RequestTimer
                0x0000000000000000       0x18 ./elibrary/bin/libsyscall.a(syscall.o)
 .text.esTIME_SetCntrPrescale
                0x0000000000000000       0x18 ./elibrary/bin/libsyscall.a(syscall.o)
 .text.esTIME_SetCntrValue
                0x0000000000000000       0x1c ./elibrary/bin/libsyscall.a(syscall.o)
 .text.esTIME_SetDate
                0x0000000000000000       0x18 ./elibrary/bin/libsyscall.a(syscall.o)
 .text.esTIME_SetTime
                0x0000000000000000       0x18 ./elibrary/bin/libsyscall.a(syscall.o)
 .text.esTIME_StartAlarm
                0x0000000000000000       0x1c ./elibrary/bin/libsyscall.a(syscall.o)
 .text.esTIME_StartCntr
                0x0000000000000000       0x18 ./elibrary/bin/libsyscall.a(syscall.o)
 .text.esTIME_StartTimer
                0x0000000000000000       0x18 ./elibrary/bin/libsyscall.a(syscall.o)
 .text.esTIME_StopAlarm
                0x0000000000000000       0x18 ./elibrary/bin/libsyscall.a(syscall.o)
 .text.esTIME_StopCntr
                0x0000000000000000       0x18 ./elibrary/bin/libsyscall.a(syscall.o)
 .text.esTIME_StopTimer
                0x0000000000000000       0x18 ./elibrary/bin/libsyscall.a(syscall.o)
 .text.backtrace
                0x0000000000000000       0x18 ./elibrary/bin/libsyscall.a(syscall.o)
 .text          0x0000000000000000        0x0 ./elibrary/bin/libsyscall.a(syscall_fops.o)
 .data          0x0000000000000000        0x0 ./elibrary/bin/libsyscall.a(syscall_fops.o)
 .bss           0x0000000000000000        0x0 ./elibrary/bin/libsyscall.a(syscall_fops.o)
 .text._close_r
                0x0000000000000000       0x18 ./elibrary/bin/libsyscall.a(syscall_fops.o)
 .text.closedir
                0x0000000000000000       0x18 ./elibrary/bin/libsyscall.a(syscall_fops.o)
 .text.fioctrl  0x0000000000000000       0x18 ./elibrary/bin/libsyscall.a(syscall_fops.o)
 .text._fstat_r
                0x0000000000000000       0x18 ./elibrary/bin/libsyscall.a(syscall_fops.o)
 .text._lseek_r
                0x0000000000000000       0x18 ./elibrary/bin/libsyscall.a(syscall_fops.o)
 .text._rename_r
                0x0000000000000000       0x18 ./elibrary/bin/libsyscall.a(syscall_fops.o)
 .text._stat_r  0x0000000000000000       0x18 ./elibrary/bin/libsyscall.a(syscall_fops.o)
 .text._mkdir_r
                0x0000000000000000       0x18 ./elibrary/bin/libsyscall.a(syscall_fops.o)
 .text._open_r  0x0000000000000000       0x18 ./elibrary/bin/libsyscall.a(syscall_fops.o)
 .text.fsync    0x0000000000000000       0x18 ./elibrary/bin/libsyscall.a(syscall_fops.o)
 .text._unlink_r
                0x0000000000000000       0x18 ./elibrary/bin/libsyscall.a(syscall_fops.o)
 .text._read_r  0x0000000000000000       0x16 ./elibrary/bin/libsyscall.a(syscall_fops.o)
 .text._write_r
                0x0000000000000000       0x16 ./elibrary/bin/libsyscall.a(syscall_fops.o)
 .text._gettimeofday_r
                0x0000000000000000       0x18 ./elibrary/bin/libsyscall.a(syscall_fops.o)
 .text.settimeofday
                0x0000000000000000       0x18 ./elibrary/bin/libsyscall.a(syscall_fops.o)
 .text._malloc_r
                0x0000000000000000       0x16 ./elibrary/bin/libsyscall.a(syscall_fops.o)
 .text._realloc_r
                0x0000000000000000       0x16 ./elibrary/bin/libsyscall.a(syscall_fops.o)
 .text._calloc_r
                0x0000000000000000       0x16 ./elibrary/bin/libsyscall.a(syscall_fops.o)
 .text._free_r  0x0000000000000000       0x16 ./elibrary/bin/libsyscall.a(syscall_fops.o)
 .text._isatty_r
                0x0000000000000000       0x16 ./elibrary/bin/libsyscall.a(syscall_fops.o)
 .text._isatty  0x0000000000000000       0x16 ./elibrary/bin/libsyscall.a(syscall_fops.o)
 .text.__libc_init_array
                0x0000000000000000       0x16 ./elibrary/bin/libsyscall.a(syscall_fops.o)
 .text._system  0x0000000000000000       0x16 ./elibrary/bin/libsyscall.a(syscall_fops.o)
 .text.__malloc_lock
                0x0000000000000000        0x2 ./elibrary/bin/libsyscall.a(syscall_fops.o)
 .text.__malloc_unlock
                0x0000000000000000        0x2 ./elibrary/bin/libsyscall.a(syscall_fops.o)
 .text.ftruncate
                0x0000000000000000       0x18 ./elibrary/bin/libsyscall.a(syscall_fops.o)
 .text.ioctl    0x0000000000000000       0x28 ./elibrary/bin/libsyscall.a(syscall_fops.o)
 .text.mkdir    0x0000000000000000       0x1c ./elibrary/bin/libsyscall.a(syscall_fops.o)
 .text.opendir  0x0000000000000000       0x16 ./elibrary/bin/libsyscall.a(syscall_fops.o)
 .text.readdir  0x0000000000000000       0x16 ./elibrary/bin/libsyscall.a(syscall_fops.o)
 .text.remove   0x0000000000000000       0x18 ./elibrary/bin/libsyscall.a(syscall_fops.o)
 .text.rewinddir
                0x0000000000000000       0x16 ./elibrary/bin/libsyscall.a(syscall_fops.o)
 .text.rmdir    0x0000000000000000       0x18 ./elibrary/bin/libsyscall.a(syscall_fops.o)
 .text.statfs   0x0000000000000000       0x18 ./elibrary/bin/libsyscall.a(syscall_fops.o)
 .debug_info    0x0000000000000000     0x2d27 ./elibrary/bin/libsyscall.a(syscall_fops.o)
 .debug_abbrev  0x0000000000000000      0x376 ./elibrary/bin/libsyscall.a(syscall_fops.o)
 .debug_loc     0x0000000000000000     0x116f ./elibrary/bin/libsyscall.a(syscall_fops.o)
 .debug_aranges
                0x0000000000000000      0x230 ./elibrary/bin/libsyscall.a(syscall_fops.o)
 .debug_line    0x0000000000000000     0x165e ./elibrary/bin/libsyscall.a(syscall_fops.o)
 .debug_str     0x0000000000000000      0xf9e ./elibrary/bin/libsyscall.a(syscall_fops.o)
 .comment       0x0000000000000000       0x33 ./elibrary/bin/libsyscall.a(syscall_fops.o)
 .debug_frame   0x0000000000000000      0x540 ./elibrary/bin/libsyscall.a(syscall_fops.o)
 .riscv.attributes
                0x0000000000000000       0x3d ./elibrary/bin/libsyscall.a(syscall_fops.o)
 .text          0x0000000000000000        0x0 ./elibrary/bin/libminic.a(elibs_stdio.o)
 .data          0x0000000000000000        0x0 ./elibrary/bin/libminic.a(elibs_stdio.o)
 .bss           0x0000000000000000        0x0 ./elibrary/bin/libminic.a(elibs_stdio.o)
 .text.eLIBs_remove
                0x0000000000000000        0x8 ./elibrary/bin/libminic.a(elibs_stdio.o)
 .text.eLIBs_rename
                0x0000000000000000        0x8 ./elibrary/bin/libminic.a(elibs_stdio.o)
 .text.eLIBs_fsync
                0x0000000000000000        0x8 ./elibrary/bin/libminic.a(elibs_stdio.o)
 .text.eLIBs_fwrite
                0x0000000000000000        0x8 ./elibrary/bin/libminic.a(elibs_stdio.o)
 .text.eLIBs_ftruncate
                0x0000000000000000        0x8 ./elibrary/bin/libminic.a(elibs_stdio.o)
 .text.eLIBs_ftell
                0x0000000000000000        0x8 ./elibrary/bin/libminic.a(elibs_stdio.o)
 .text.eLIBs_flltell
                0x0000000000000000       0x26 ./elibrary/bin/libminic.a(elibs_stdio.o)
 .text.eLIBs_fioctrl
                0x0000000000000000        0x8 ./elibrary/bin/libminic.a(elibs_stdio.o)
 .text.eLIBs_ferror
                0x0000000000000000        0x8 ./elibrary/bin/libminic.a(elibs_stdio.o)
 .text.eLIBs_ferrclr
                0x0000000000000000        0x8 ./elibrary/bin/libminic.a(elibs_stdio.o)
 .text.eLIBs_opendir
                0x0000000000000000        0x8 ./elibrary/bin/libminic.a(elibs_stdio.o)
 .text.eLIBs_closedir
                0x0000000000000000        0x8 ./elibrary/bin/libminic.a(elibs_stdio.o)
 .text.eLIBs_readdir
                0x0000000000000000        0x8 ./elibrary/bin/libminic.a(elibs_stdio.o)
 .text.eLIBs_rewinddir
                0x0000000000000000        0x8 ./elibrary/bin/libminic.a(elibs_stdio.o)
 .text.eLIBs_mkdir
                0x0000000000000000        0x8 ./elibrary/bin/libminic.a(elibs_stdio.o)
 .text.eLIBs_rmdir
                0x0000000000000000        0x8 ./elibrary/bin/libminic.a(elibs_stdio.o)
 .text.eLIBs_DirEnt2Attr
                0x0000000000000000        0x8 ./elibrary/bin/libminic.a(elibs_stdio.o)
 .text.eLIBs_DirEnt2Name
                0x0000000000000000       0x2e ./elibrary/bin/libminic.a(elibs_stdio.o)
 .text.eLIBs_DirEnt2Size
                0x0000000000000000        0x6 ./elibrary/bin/libminic.a(elibs_stdio.o)
 .text.eLIBs_DirEnt2Time
                0x0000000000000000        0x4 ./elibrary/bin/libminic.a(elibs_stdio.o)
 .text.eLIBs_GetNumFiles
                0x0000000000000000       0x3e ./elibrary/bin/libminic.a(elibs_stdio.o)
 .text.eLIBs_GetNumSubItems
                0x0000000000000000       0x4e ./elibrary/bin/libminic.a(elibs_stdio.o)
 .text.eLIBs_GetFileAttributes
                0x0000000000000000       0x4c ./elibrary/bin/libminic.a(elibs_stdio.o)
 .text.eLIBs_SetFileAttributes
                0x0000000000000000        0x4 ./elibrary/bin/libminic.a(elibs_stdio.o)
 .text.eLIBs_GetDirSize
                0x0000000000000000      0x108 ./elibrary/bin/libminic.a(elibs_stdio.o)
 .text.eLIBs_GetFileSize
                0x0000000000000000       0x40 ./elibrary/bin/libminic.a(elibs_stdio.o)
 .text.eLIBs_format
                0x0000000000000000        0x8 ./elibrary/bin/libminic.a(elibs_stdio.o)
 .text.eLIBs_GetVolName
                0x0000000000000000       0x4a ./elibrary/bin/libminic.a(elibs_stdio.o)
 .text.eLIBs_GetVolNameCharset
                0x0000000000000000       0x52 ./elibrary/bin/libminic.a(elibs_stdio.o)
 .text.eLIBs_GetVolTSpace
                0x0000000000000000       0x30 ./elibrary/bin/libminic.a(elibs_stdio.o)
 .text.eLIBs_GetVolFSpace
                0x0000000000000000       0x30 ./elibrary/bin/libminic.a(elibs_stdio.o)
 .text.eLIBs_GetVolClustSize
                0x0000000000000000       0x26 ./elibrary/bin/libminic.a(elibs_stdio.o)
 .text.eLIBs_GetFSName
                0x0000000000000000       0x48 ./elibrary/bin/libminic.a(elibs_stdio.o)
 .text.eLIBs_GetFSAttribute
                0x0000000000000000       0x36 ./elibrary/bin/libminic.a(elibs_stdio.o)
 .text.eLIBs_disklock
                0x0000000000000000        0x8 ./elibrary/bin/libminic.a(elibs_stdio.o)
 .text.eLIBs_diskunlock
                0x0000000000000000        0x8 ./elibrary/bin/libminic.a(elibs_stdio.o)
 .text.eLIBs_GetDiskArray
                0x0000000000000000       0x62 ./elibrary/bin/libminic.a(elibs_stdio.o)
 .text.eLIBs_feof
                0x0000000000000000       0x1e ./elibrary/bin/libminic.a(elibs_stdio.o)
 .text.eLIBs_fgetc
                0x0000000000000000       0x2c ./elibrary/bin/libminic.a(elibs_stdio.o)
 .text.eLIBs_fgets
                0x0000000000000000       0x6c ./elibrary/bin/libminic.a(elibs_stdio.o)
 .text.eLIBs_fputc
                0x0000000000000000       0x32 ./elibrary/bin/libminic.a(elibs_stdio.o)
 .text.eLIBs_fputs
                0x0000000000000000       0x42 ./elibrary/bin/libminic.a(elibs_stdio.o)
 .text.eLIBs_GetFileATime
                0x0000000000000000       0x50 ./elibrary/bin/libminic.a(elibs_stdio.o)
 .text.eLIBs_GetFileMTime
                0x0000000000000000       0x50 ./elibrary/bin/libminic.a(elibs_stdio.o)
 .text.eLIBs_GetFileCTime
                0x0000000000000000       0x50 ./elibrary/bin/libminic.a(elibs_stdio.o)
 .text.eLIBs_GetDirATime
                0x0000000000000000       0x48 ./elibrary/bin/libminic.a(elibs_stdio.o)
 .text.eLIBs_GetDirMTime
                0x0000000000000000       0x48 ./elibrary/bin/libminic.a(elibs_stdio.o)
 .text.eLIBs_GetDirCTime
                0x0000000000000000       0x48 ./elibrary/bin/libminic.a(elibs_stdio.o)
 .text.eLIBs_GetFSCharset
                0x0000000000000000       0x10 ./elibrary/bin/libminic.a(elibs_stdio.o)
 .text.eLIBs_file2fd
                0x0000000000000000        0x8 ./elibrary/bin/libminic.a(elibs_stdio.o)
 .text.eLIBs_fd2file
                0x0000000000000000        0x8 ./elibrary/bin/libminic.a(elibs_stdio.o)
 .text.eLIBs_open
                0x0000000000000000        0x8 ./elibrary/bin/libminic.a(elibs_stdio.o)
 .text.eLIBs_fstat
                0x0000000000000000        0x8 ./elibrary/bin/libminic.a(elibs_stdio.o)
 .text.eLIBs_statfs
                0x0000000000000000        0xc ./elibrary/bin/libminic.a(elibs_stdio.o)
 .text.eLIBs_fllseek
                0x0000000000000000       0x6c ./elibrary/bin/libminic.a(elibs_stdio.o)
 .text.eLIBs_GetPTName
                0x0000000000000000       0xa2 ./elibrary/bin/libminic.a(elibs_stdio.o)
 .text.eLIBs_IsPartFormated
                0x0000000000000000       0xdc ./elibrary/bin/libminic.a(elibs_stdio.o)
 .text.eLIBs_GetDevName.part.0
                0x0000000000000000       0x4c ./elibrary/bin/libminic.a(elibs_stdio.o)
 .text.eLIBs_GetDevName
                0x0000000000000000       0x76 ./elibrary/bin/libminic.a(elibs_stdio.o)
 .text.eLIBs_GetDevParts
                0x0000000000000000       0x88 ./elibrary/bin/libminic.a(elibs_stdio.o)
 .text.eLIBs_GetTime
                0x0000000000000000        0x8 ./elibrary/bin/libminic.a(elibs_stdio.o)
 .text.eLIBs_GetDate
                0x0000000000000000        0x8 ./elibrary/bin/libminic.a(elibs_stdio.o)
 .text.eLIBs_setfs
                0x0000000000000000        0x8 ./elibrary/bin/libminic.a(elibs_stdio.o)
 .bss.dir_level.6341
                0x0000000000000000        0x4 ./elibrary/bin/libminic.a(elibs_stdio.o)
 .rodata.__func__.6254
                0x0000000000000000        0xe ./elibrary/bin/libminic.a(elibs_stdio.o)
 .rodata.__func__.6395
                0x0000000000000000       0x10 ./elibrary/bin/libminic.a(elibs_stdio.o)
 .rodata.__func__.6400
                0x0000000000000000       0x15 ./elibrary/bin/libminic.a(elibs_stdio.o)
 .rodata.__func__.6530
                0x0000000000000000       0x11 ./elibrary/bin/libminic.a(elibs_stdio.o)
 .rodata.eLIBs_GetDirSize.str1.8
                0x0000000000000000        0x2 ./elibrary/bin/libminic.a(elibs_stdio.o)
 .rodata.eLIBs_GetFileAttributes.str1.8
                0x0000000000000000        0x3 ./elibrary/bin/libminic.a(elibs_stdio.o)
 .rodata.eLIBs_GetPTName.str1.8
                0x0000000000000000       0x2e ./elibrary/bin/libminic.a(elibs_stdio.o)
 .rodata.eLIBs_GetVolNameCharset.str1.8
                0x0000000000000000        0x5 ./elibrary/bin/libminic.a(elibs_stdio.o)
 .text          0x0000000000000000        0x0 ./elibrary/bin/libminic.a(elibs_stdlib.o)
 .data          0x0000000000000000        0x0 ./elibrary/bin/libminic.a(elibs_stdlib.o)
 .bss           0x0000000000000000        0x0 ./elibrary/bin/libminic.a(elibs_stdlib.o)
 .text.eLIBs_int2str_dec
                0x0000000000000000        0xc ./elibrary/bin/libminic.a(elibs_stdlib.o)
 .text.eLIBs_uint2str_dec
                0x0000000000000000        0xc ./elibrary/bin/libminic.a(elibs_stdlib.o)
 .text.eLIBs_int2str_hex
                0x0000000000000000        0xc ./elibrary/bin/libminic.a(elibs_stdlib.o)
 .text.eLIBs_atoi
                0x0000000000000000        0xc ./elibrary/bin/libminic.a(elibs_stdlib.o)
 .text.eLIBs_toupper
                0x0000000000000000        0xc ./elibrary/bin/libminic.a(elibs_stdlib.o)
 .text.eLIBs_isspace
                0x0000000000000000        0xc ./elibrary/bin/libminic.a(elibs_stdlib.o)
 .text.eLIBs_strtol
                0x0000000000000000        0xc ./elibrary/bin/libminic.a(elibs_stdlib.o)
 .text.eLIBs_ramdom
                0x0000000000000000        0x8 ./elibrary/bin/libminic.a(elibs_stdlib.o)
 .text.eLIBs_realloc
                0x0000000000000000       0x10 ./elibrary/bin/libminic.a(elibs_stdlib.o)
 .text.eLIBs_atof
                0x0000000000000000       0x18 ./elibrary/bin/libminic.a(elibs_stdlib.o)
 .text.eLIBs_sscanf
                0x0000000000000000       0x24 ./elibrary/bin/libminic.a(elibs_stdlib.o)
 .text._exit    0x0000000000000000       0x48 ./elibrary/bin/libminic.a(elibs_stdlib.o)
 .text._write   0x0000000000000000       0x46 ./elibrary/bin/libminic.a(elibs_stdlib.o)
 .text._kill    0x0000000000000000       0x46 ./elibrary/bin/libminic.a(elibs_stdlib.o)
 .text._getpid  0x0000000000000000       0x46 ./elibrary/bin/libminic.a(elibs_stdlib.o)
 .text._sbrk    0x0000000000000000       0x46 ./elibrary/bin/libminic.a(elibs_stdlib.o)
 .rodata.__func__.5398
                0x0000000000000000        0x6 ./elibrary/bin/libminic.a(elibs_stdlib.o)
 .rodata.__func__.5403
                0x0000000000000000        0x7 ./elibrary/bin/libminic.a(elibs_stdlib.o)
 .rodata.__func__.5408
                0x0000000000000000        0x6 ./elibrary/bin/libminic.a(elibs_stdlib.o)
 .rodata.__func__.5413
                0x0000000000000000        0x8 ./elibrary/bin/libminic.a(elibs_stdlib.o)
 .rodata.__func__.5418
                0x0000000000000000        0x6 ./elibrary/bin/libminic.a(elibs_stdlib.o)
 .rodata._exit.str1.8
                0x0000000000000000       0x5f ./elibrary/bin/libminic.a(elibs_stdlib.o)
 .rodata._write.str1.8
                0x0000000000000000       0x29 ./elibrary/bin/libminic.a(elibs_stdlib.o)
 .text          0x0000000000000000        0x0 ./elibrary/bin/libminic.a(elibs_string.o)
 .data          0x0000000000000000        0x0 ./elibrary/bin/libminic.a(elibs_string.o)
 .bss           0x0000000000000000        0x0 ./elibrary/bin/libminic.a(elibs_string.o)
 .text.eLIBs_strnlen
                0x0000000000000000        0xc ./elibrary/bin/libminic.a(elibs_string.o)
 .text.eLIBs_strcat
                0x0000000000000000        0xc ./elibrary/bin/libminic.a(elibs_string.o)
 .text.eLIBs_strncat
                0x0000000000000000        0xc ./elibrary/bin/libminic.a(elibs_string.o)
 .text.eLIBs_stricmp
                0x0000000000000000        0xc ./elibrary/bin/libminic.a(elibs_string.o)
 .text.eLIBs_strnicmp
                0x0000000000000000        0xc ./elibrary/bin/libminic.a(elibs_string.o)
 .text.eLIBs_strchr
                0x0000000000000000        0xc ./elibrary/bin/libminic.a(elibs_string.o)
 .text.eLIBs_strnchr
                0x0000000000000000        0xc ./elibrary/bin/libminic.a(elibs_string.o)
 .text.eLIBs_strchrlast
                0x0000000000000000        0xc ./elibrary/bin/libminic.a(elibs_string.o)
 .text.eLIBs_strstr
                0x0000000000000000        0xc ./elibrary/bin/libminic.a(elibs_string.o)
 .text.eLIBs_memcmp
                0x0000000000000000       0x18 ./elibrary/bin/libminic.a(elibs_string.o)
 .text.eLIBs_memmove
                0x0000000000000000       0x3c ./elibrary/bin/libminic.a(elibs_string.o)
 .text          0x0000000000000000        0x0 ./elibrary/bin/libminic.a(elibs_sprintf.o)
 .data          0x0000000000000000        0x0 ./elibrary/bin/libminic.a(elibs_sprintf.o)
 .bss           0x0000000000000000        0x0 ./elibrary/bin/libminic.a(elibs_sprintf.o)
 .text.eLIBs_snprintf
                0x0000000000000000       0x20 ./elibrary/bin/libminic.a(elibs_sprintf.o)
 .text.eLIBs_scnprintf
                0x0000000000000000       0x2e ./elibrary/bin/libminic.a(elibs_sprintf.o)
 .text.eLIBs_vsprintf
                0x0000000000000000        0xe ./elibrary/bin/libminic.a(elibs_sprintf.o)
 .text.eLIBs_sprintf
                0x0000000000000000       0x26 ./elibrary/bin/libminic.a(elibs_sprintf.o)
 .text          0x0000000000000000        0x0 ./elibrary/bin/liblzma.a(az100.o)
 .data          0x0000000000000000        0x0 ./elibrary/bin/liblzma.a(az100.o)
 .bss           0x0000000000000000        0x0 ./elibrary/bin/liblzma.a(az100.o)
 .text.AZ100_IsCompress
                0x0000000000000000       0x32 ./elibrary/bin/liblzma.a(az100.o)
 .text          0x0000000000000000        0x0 ./elibrary/bin/liblzma.a(compress.o)
 .data          0x0000000000000000        0x0 ./elibrary/bin/liblzma.a(compress.o)
 .bss           0x0000000000000000        0x0 ./elibrary/bin/liblzma.a(compress.o)
 .text          0x0000000000000000        0x0 ./elibrary/bin/liblzma.a(LzmaLib.o)
 .data          0x0000000000000000        0x0 ./elibrary/bin/liblzma.a(LzmaLib.o)
 .bss           0x0000000000000000        0x0 ./elibrary/bin/liblzma.a(LzmaLib.o)
 .text          0x0000000000000000        0x0 ./elibrary/bin/liblzma.a(LzmaDec.o)
 .data          0x0000000000000000        0x0 ./elibrary/bin/liblzma.a(LzmaDec.o)
 .bss           0x0000000000000000        0x0 ./elibrary/bin/liblzma.a(LzmaDec.o)
 .text.LzmaDec_InitDicAndState
                0x0000000000000000       0x1e ./elibrary/bin/liblzma.a(LzmaDec.o)
 .text.LzmaDec_DecodeToBuf
                0x0000000000000000       0xd6 ./elibrary/bin/liblzma.a(LzmaDec.o)
 .text.LzmaDec_Free
                0x0000000000000000       0x2a ./elibrary/bin/liblzma.a(LzmaDec.o)
 .text.LzmaDec_Allocate
                0x0000000000000000       0x80 ./elibrary/bin/liblzma.a(LzmaDec.o)
 .text          0x0000000000000000       0x80 /home/yuzuki/WorkSpace/melis-v3.0/melis-4.x-release/toolchain/riscv64-elf-x86_64-20201104/bin/../lib/gcc/riscv64-unknown-elf/8.4.0/../../../../riscv64-unknown-elf/lib/rv64imafdcxtheadc/lp64d/libc.a(lib_a-memcmp.o)
 .data          0x0000000000000000        0x0 /home/yuzuki/WorkSpace/melis-v3.0/melis-4.x-release/toolchain/riscv64-elf-x86_64-20201104/bin/../lib/gcc/riscv64-unknown-elf/8.4.0/../../../../riscv64-unknown-elf/lib/rv64imafdcxtheadc/lp64d/libc.a(lib_a-memcmp.o)
 .bss           0x0000000000000000        0x0 /home/yuzuki/WorkSpace/melis-v3.0/melis-4.x-release/toolchain/riscv64-elf-x86_64-20201104/bin/../lib/gcc/riscv64-unknown-elf/8.4.0/../../../../riscv64-unknown-elf/lib/rv64imafdcxtheadc/lp64d/libc.a(lib_a-memcmp.o)
 .comment       0x0000000000000000       0x33 /home/yuzuki/WorkSpace/melis-v3.0/melis-4.x-release/toolchain/riscv64-elf-x86_64-20201104/bin/../lib/gcc/riscv64-unknown-elf/8.4.0/../../../../riscv64-unknown-elf/lib/rv64imafdcxtheadc/lp64d/libc.a(lib_a-memcmp.o)
 .riscv.attributes
                0x0000000000000000       0x3e /home/yuzuki/WorkSpace/melis-v3.0/melis-4.x-release/toolchain/riscv64-elf-x86_64-20201104/bin/../lib/gcc/riscv64-unknown-elf/8.4.0/../../../../riscv64-unknown-elf/lib/rv64imafdcxtheadc/lp64d/libc.a(lib_a-memcmp.o)
 .data          0x0000000000000000        0x0 /home/yuzuki/WorkSpace/melis-v3.0/melis-4.x-release/toolchain/riscv64-elf-x86_64-20201104/bin/../lib/gcc/riscv64-unknown-elf/8.4.0/../../../../riscv64-unknown-elf/lib/rv64imafdcxtheadc/lp64d/libc.a(lib_a-memcpy.o)
 .bss           0x0000000000000000        0x0 /home/yuzuki/WorkSpace/melis-v3.0/melis-4.x-release/toolchain/riscv64-elf-x86_64-20201104/bin/../lib/gcc/riscv64-unknown-elf/8.4.0/../../../../riscv64-unknown-elf/lib/rv64imafdcxtheadc/lp64d/libc.a(lib_a-memcpy.o)
 .data          0x0000000000000000        0x0 /home/yuzuki/WorkSpace/melis-v3.0/melis-4.x-release/toolchain/riscv64-elf-x86_64-20201104/bin/../lib/gcc/riscv64-unknown-elf/8.4.0/../../../../riscv64-unknown-elf/lib/rv64imafdcxtheadc/lp64d/libc.a(lib_a-memmove-stub.o)
 .bss           0x0000000000000000        0x0 /home/yuzuki/WorkSpace/melis-v3.0/melis-4.x-release/toolchain/riscv64-elf-x86_64-20201104/bin/../lib/gcc/riscv64-unknown-elf/8.4.0/../../../../riscv64-unknown-elf/lib/rv64imafdcxtheadc/lp64d/libc.a(lib_a-memmove-stub.o)
 .data          0x0000000000000000        0x0 /home/yuzuki/WorkSpace/melis-v3.0/melis-4.x-release/toolchain/riscv64-elf-x86_64-20201104/bin/../lib/gcc/riscv64-unknown-elf/8.4.0/../../../../riscv64-unknown-elf/lib/rv64imafdcxtheadc/lp64d/libc.a(lib_a-memset.o)
 .bss           0x0000000000000000        0x0 /home/yuzuki/WorkSpace/melis-v3.0/melis-4.x-release/toolchain/riscv64-elf-x86_64-20201104/bin/../lib/gcc/riscv64-unknown-elf/8.4.0/../../../../riscv64-unknown-elf/lib/rv64imafdcxtheadc/lp64d/libc.a(lib_a-memset.o)
 .text          0x0000000000000000       0xb8 /home/yuzuki/WorkSpace/melis-v3.0/melis-4.x-release/toolchain/riscv64-elf-x86_64-20201104/bin/../lib/gcc/riscv64-unknown-elf/8.4.0/../../../../riscv64-unknown-elf/lib/rv64imafdcxtheadc/lp64d/libc.a(lib_a-strcpy.o)
 .data          0x0000000000000000        0x0 /home/yuzuki/WorkSpace/melis-v3.0/melis-4.x-release/toolchain/riscv64-elf-x86_64-20201104/bin/../lib/gcc/riscv64-unknown-elf/8.4.0/../../../../riscv64-unknown-elf/lib/rv64imafdcxtheadc/lp64d/libc.a(lib_a-strcpy.o)
 .bss           0x0000000000000000        0x0 /home/yuzuki/WorkSpace/melis-v3.0/melis-4.x-release/toolchain/riscv64-elf-x86_64-20201104/bin/../lib/gcc/riscv64-unknown-elf/8.4.0/../../../../riscv64-unknown-elf/lib/rv64imafdcxtheadc/lp64d/libc.a(lib_a-strcpy.o)
 .rodata.cst8   0x0000000000000000        0x8 /home/yuzuki/WorkSpace/melis-v3.0/melis-4.x-release/toolchain/riscv64-elf-x86_64-20201104/bin/../lib/gcc/riscv64-unknown-elf/8.4.0/../../../../riscv64-unknown-elf/lib/rv64imafdcxtheadc/lp64d/libc.a(lib_a-strcpy.o)
 .comment       0x0000000000000000       0x33 /home/yuzuki/WorkSpace/melis-v3.0/melis-4.x-release/toolchain/riscv64-elf-x86_64-20201104/bin/../lib/gcc/riscv64-unknown-elf/8.4.0/../../../../riscv64-unknown-elf/lib/rv64imafdcxtheadc/lp64d/libc.a(lib_a-strcpy.o)
 .riscv.attributes
                0x0000000000000000       0x3e /home/yuzuki/WorkSpace/melis-v3.0/melis-4.x-release/toolchain/riscv64-elf-x86_64-20201104/bin/../lib/gcc/riscv64-unknown-elf/8.4.0/../../../../riscv64-unknown-elf/lib/rv64imafdcxtheadc/lp64d/libc.a(lib_a-strcpy.o)
 .data          0x0000000000000000        0x0 /home/yuzuki/WorkSpace/melis-v3.0/melis-4.x-release/toolchain/riscv64-elf-x86_64-20201104/bin/../lib/gcc/riscv64-unknown-elf/8.4.0/../../../../riscv64-unknown-elf/lib/rv64imafdcxtheadc/lp64d/libc.a(lib_a-strlen.o)
 .bss           0x0000000000000000        0x0 /home/yuzuki/WorkSpace/melis-v3.0/melis-4.x-release/toolchain/riscv64-elf-x86_64-20201104/bin/../lib/gcc/riscv64-unknown-elf/8.4.0/../../../../riscv64-unknown-elf/lib/rv64imafdcxtheadc/lp64d/libc.a(lib_a-strlen.o)
 .data          0x0000000000000000        0x0 /home/yuzuki/WorkSpace/melis-v3.0/melis-4.x-release/toolchain/riscv64-elf-x86_64-20201104/bin/../lib/gcc/riscv64-unknown-elf/8.4.0/../../../../riscv64-unknown-elf/lib/rv64imafdcxtheadc/lp64d/libm.a(lib_a-s_ceil.o)
 .bss           0x0000000000000000        0x0 /home/yuzuki/WorkSpace/melis-v3.0/melis-4.x-release/toolchain/riscv64-elf-x86_64-20201104/bin/../lib/gcc/riscv64-unknown-elf/8.4.0/../../../../riscv64-unknown-elf/lib/rv64imafdcxtheadc/lp64d/libm.a(lib_a-s_ceil.o)
 .data          0x0000000000000000        0x0 /home/yuzuki/WorkSpace/melis-v3.0/melis-4.x-release/toolchain/riscv64-elf-x86_64-20201104/bin/../lib/gcc/riscv64-unknown-elf/8.4.0/../../../../riscv64-unknown-elf/lib/rv64imafdcxtheadc/lp64d/libm.a(lib_a-s_cos.o)
 .bss           0x0000000000000000        0x0 /home/yuzuki/WorkSpace/melis-v3.0/melis-4.x-release/toolchain/riscv64-elf-x86_64-20201104/bin/../lib/gcc/riscv64-unknown-elf/8.4.0/../../../../riscv64-unknown-elf/lib/rv64imafdcxtheadc/lp64d/libm.a(lib_a-s_cos.o)
 .data          0x0000000000000000        0x0 /home/yuzuki/WorkSpace/melis-v3.0/melis-4.x-release/toolchain/riscv64-elf-x86_64-20201104/bin/../lib/gcc/riscv64-unknown-elf/8.4.0/../../../../riscv64-unknown-elf/lib/rv64imafdcxtheadc/lp64d/libm.a(lib_a-s_floor.o)
 .bss           0x0000000000000000        0x0 /home/yuzuki/WorkSpace/melis-v3.0/melis-4.x-release/toolchain/riscv64-elf-x86_64-20201104/bin/../lib/gcc/riscv64-unknown-elf/8.4.0/../../../../riscv64-unknown-elf/lib/rv64imafdcxtheadc/lp64d/libm.a(lib_a-s_floor.o)
 .data          0x0000000000000000        0x0 /home/yuzuki/WorkSpace/melis-v3.0/melis-4.x-release/toolchain/riscv64-elf-x86_64-20201104/bin/../lib/gcc/riscv64-unknown-elf/8.4.0/../../../../riscv64-unknown-elf/lib/rv64imafdcxtheadc/lp64d/libm.a(lib_a-s_sin.o)
 .bss           0x0000000000000000        0x0 /home/yuzuki/WorkSpace/melis-v3.0/melis-4.x-release/toolchain/riscv64-elf-x86_64-20201104/bin/../lib/gcc/riscv64-unknown-elf/8.4.0/../../../../riscv64-unknown-elf/lib/rv64imafdcxtheadc/lp64d/libm.a(lib_a-s_sin.o)
 .text          0x0000000000000000       0xb0 /home/yuzuki/WorkSpace/melis-v3.0/melis-4.x-release/toolchain/riscv64-elf-x86_64-20201104/bin/../lib/gcc/riscv64-unknown-elf/8.4.0/../../../../riscv64-unknown-elf/lib/rv64imafdcxtheadc/lp64d/libm.a(lib_a-w_sqrt.o)
 .data          0x0000000000000000        0x0 /home/yuzuki/WorkSpace/melis-v3.0/melis-4.x-release/toolchain/riscv64-elf-x86_64-20201104/bin/../lib/gcc/riscv64-unknown-elf/8.4.0/../../../../riscv64-unknown-elf/lib/rv64imafdcxtheadc/lp64d/libm.a(lib_a-w_sqrt.o)
 .bss           0x0000000000000000        0x0 /home/yuzuki/WorkSpace/melis-v3.0/melis-4.x-release/toolchain/riscv64-elf-x86_64-20201104/bin/../lib/gcc/riscv64-unknown-elf/8.4.0/../../../../riscv64-unknown-elf/lib/rv64imafdcxtheadc/lp64d/libm.a(lib_a-w_sqrt.o)
 .rodata.str1.8
                0x0000000000000000        0x5 /home/yuzuki/WorkSpace/melis-v3.0/melis-4.x-release/toolchain/riscv64-elf-x86_64-20201104/bin/../lib/gcc/riscv64-unknown-elf/8.4.0/../../../../riscv64-unknown-elf/lib/rv64imafdcxtheadc/lp64d/libm.a(lib_a-w_sqrt.o)
 .comment       0x0000000000000000       0x33 /home/yuzuki/WorkSpace/melis-v3.0/melis-4.x-release/toolchain/riscv64-elf-x86_64-20201104/bin/../lib/gcc/riscv64-unknown-elf/8.4.0/../../../../riscv64-unknown-elf/lib/rv64imafdcxtheadc/lp64d/libm.a(lib_a-w_sqrt.o)
 .riscv.attributes
                0x0000000000000000       0x3e /home/yuzuki/WorkSpace/melis-v3.0/melis-4.x-release/toolchain/riscv64-elf-x86_64-20201104/bin/../lib/gcc/riscv64-unknown-elf/8.4.0/../../../../riscv64-unknown-elf/lib/rv64imafdcxtheadc/lp64d/libm.a(lib_a-w_sqrt.o)
 .data          0x0000000000000000        0x0 /home/yuzuki/WorkSpace/melis-v3.0/melis-4.x-release/toolchain/riscv64-elf-x86_64-20201104/bin/../lib/gcc/riscv64-unknown-elf/8.4.0/../../../../riscv64-unknown-elf/lib/rv64imafdcxtheadc/lp64d/libm.a(lib_a-e_rem_pio2.o)
 .bss           0x0000000000000000        0x0 /home/yuzuki/WorkSpace/melis-v3.0/melis-4.x-release/toolchain/riscv64-elf-x86_64-20201104/bin/../lib/gcc/riscv64-unknown-elf/8.4.0/../../../../riscv64-unknown-elf/lib/rv64imafdcxtheadc/lp64d/libm.a(lib_a-e_rem_pio2.o)
 .text          0x0000000000000000      0x220 /home/yuzuki/WorkSpace/melis-v3.0/melis-4.x-release/toolchain/riscv64-elf-x86_64-20201104/bin/../lib/gcc/riscv64-unknown-elf/8.4.0/../../../../riscv64-unknown-elf/lib/rv64imafdcxtheadc/lp64d/libm.a(lib_a-e_sqrt.o)
 .data          0x0000000000000000        0x0 /home/yuzuki/WorkSpace/melis-v3.0/melis-4.x-release/toolchain/riscv64-elf-x86_64-20201104/bin/../lib/gcc/riscv64-unknown-elf/8.4.0/../../../../riscv64-unknown-elf/lib/rv64imafdcxtheadc/lp64d/libm.a(lib_a-e_sqrt.o)
 .bss           0x0000000000000000        0x0 /home/yuzuki/WorkSpace/melis-v3.0/melis-4.x-release/toolchain/riscv64-elf-x86_64-20201104/bin/../lib/gcc/riscv64-unknown-elf/8.4.0/../../../../riscv64-unknown-elf/lib/rv64imafdcxtheadc/lp64d/libm.a(lib_a-e_sqrt.o)
 .comment       0x0000000000000000       0x33 /home/yuzuki/WorkSpace/melis-v3.0/melis-4.x-release/toolchain/riscv64-elf-x86_64-20201104/bin/../lib/gcc/riscv64-unknown-elf/8.4.0/../../../../riscv64-unknown-elf/lib/rv64imafdcxtheadc/lp64d/libm.a(lib_a-e_sqrt.o)
 .riscv.attributes
                0x0000000000000000       0x3e /home/yuzuki/WorkSpace/melis-v3.0/melis-4.x-release/toolchain/riscv64-elf-x86_64-20201104/bin/../lib/gcc/riscv64-unknown-elf/8.4.0/../../../../riscv64-unknown-elf/lib/rv64imafdcxtheadc/lp64d/libm.a(lib_a-e_sqrt.o)
 .data          0x0000000000000000        0x0 /home/yuzuki/WorkSpace/melis-v3.0/melis-4.x-release/toolchain/riscv64-elf-x86_64-20201104/bin/../lib/gcc/riscv64-unknown-elf/8.4.0/../../../../riscv64-unknown-elf/lib/rv64imafdcxtheadc/lp64d/libm.a(lib_a-k_cos.o)
 .bss           0x0000000000000000        0x0 /home/yuzuki/WorkSpace/melis-v3.0/melis-4.x-release/toolchain/riscv64-elf-x86_64-20201104/bin/../lib/gcc/riscv64-unknown-elf/8.4.0/../../../../riscv64-unknown-elf/lib/rv64imafdcxtheadc/lp64d/libm.a(lib_a-k_cos.o)
 .data          0x0000000000000000        0x0 /home/yuzuki/WorkSpace/melis-v3.0/melis-4.x-release/toolchain/riscv64-elf-x86_64-20201104/bin/../lib/gcc/riscv64-unknown-elf/8.4.0/../../../../riscv64-unknown-elf/lib/rv64imafdcxtheadc/lp64d/libm.a(lib_a-k_rem_pio2.o)
 .bss           0x0000000000000000        0x0 /home/yuzuki/WorkSpace/melis-v3.0/melis-4.x-release/toolchain/riscv64-elf-x86_64-20201104/bin/../lib/gcc/riscv64-unknown-elf/8.4.0/../../../../riscv64-unknown-elf/lib/rv64imafdcxtheadc/lp64d/libm.a(lib_a-k_rem_pio2.o)
 .data          0x0000000000000000        0x0 /home/yuzuki/WorkSpace/melis-v3.0/melis-4.x-release/toolchain/riscv64-elf-x86_64-20201104/bin/../lib/gcc/riscv64-unknown-elf/8.4.0/../../../../riscv64-unknown-elf/lib/rv64imafdcxtheadc/lp64d/libm.a(lib_a-k_sin.o)
 .bss           0x0000000000000000        0x0 /home/yuzuki/WorkSpace/melis-v3.0/melis-4.x-release/toolchain/riscv64-elf-x86_64-20201104/bin/../lib/gcc/riscv64-unknown-elf/8.4.0/../../../../riscv64-unknown-elf/lib/rv64imafdcxtheadc/lp64d/libm.a(lib_a-k_sin.o)
 .data          0x0000000000000000        0x0 /home/yuzuki/WorkSpace/melis-v3.0/melis-4.x-release/toolchain/riscv64-elf-x86_64-20201104/bin/../lib/gcc/riscv64-unknown-elf/8.4.0/../../../../riscv64-unknown-elf/lib/rv64imafdcxtheadc/lp64d/libm.a(lib_a-s_fabs.o)
 .bss           0x0000000000000000        0x0 /home/yuzuki/WorkSpace/melis-v3.0/melis-4.x-release/toolchain/riscv64-elf-x86_64-20201104/bin/../lib/gcc/riscv64-unknown-elf/8.4.0/../../../../riscv64-unknown-elf/lib/rv64imafdcxtheadc/lp64d/libm.a(lib_a-s_fabs.o)
 .text          0x0000000000000000        0x0 /home/yuzuki/WorkSpace/melis-v3.0/melis-4.x-release/toolchain/riscv64-elf-x86_64-20201104/bin/../lib/gcc/riscv64-unknown-elf/8.4.0/../../../../riscv64-unknown-elf/lib/rv64imafdcxtheadc/lp64d/libm.a(lib_a-s_lib_ver.o)
 .data          0x0000000000000000        0x4 /home/yuzuki/WorkSpace/melis-v3.0/melis-4.x-release/toolchain/riscv64-elf-x86_64-20201104/bin/../lib/gcc/riscv64-unknown-elf/8.4.0/../../../../riscv64-unknown-elf/lib/rv64imafdcxtheadc/lp64d/libm.a(lib_a-s_lib_ver.o)
 .bss           0x0000000000000000        0x0 /home/yuzuki/WorkSpace/melis-v3.0/melis-4.x-release/toolchain/riscv64-elf-x86_64-20201104/bin/../lib/gcc/riscv64-unknown-elf/8.4.0/../../../../riscv64-unknown-elf/lib/rv64imafdcxtheadc/lp64d/libm.a(lib_a-s_lib_ver.o)
 .comment       0x0000000000000000       0x33 /home/yuzuki/WorkSpace/melis-v3.0/melis-4.x-release/toolchain/riscv64-elf-x86_64-20201104/bin/../lib/gcc/riscv64-unknown-elf/8.4.0/../../../../riscv64-unknown-elf/lib/rv64imafdcxtheadc/lp64d/libm.a(lib_a-s_lib_ver.o)
 .riscv.attributes
                0x0000000000000000       0x3e /home/yuzuki/WorkSpace/melis-v3.0/melis-4.x-release/toolchain/riscv64-elf-x86_64-20201104/bin/../lib/gcc/riscv64-unknown-elf/8.4.0/../../../../riscv64-unknown-elf/lib/rv64imafdcxtheadc/lp64d/libm.a(lib_a-s_lib_ver.o)
 .text          0x0000000000000000       0x20 /home/yuzuki/WorkSpace/melis-v3.0/melis-4.x-release/toolchain/riscv64-elf-x86_64-20201104/bin/../lib/gcc/riscv64-unknown-elf/8.4.0/../../../../riscv64-unknown-elf/lib/rv64imafdcxtheadc/lp64d/libm.a(lib_a-s_matherr.o)
 .data          0x0000000000000000        0x0 /home/yuzuki/WorkSpace/melis-v3.0/melis-4.x-release/toolchain/riscv64-elf-x86_64-20201104/bin/../lib/gcc/riscv64-unknown-elf/8.4.0/../../../../riscv64-unknown-elf/lib/rv64imafdcxtheadc/lp64d/libm.a(lib_a-s_matherr.o)
 .bss           0x0000000000000000        0x0 /home/yuzuki/WorkSpace/melis-v3.0/melis-4.x-release/toolchain/riscv64-elf-x86_64-20201104/bin/../lib/gcc/riscv64-unknown-elf/8.4.0/../../../../riscv64-unknown-elf/lib/rv64imafdcxtheadc/lp64d/libm.a(lib_a-s_matherr.o)
 .comment       0x0000000000000000       0x33 /home/yuzuki/WorkSpace/melis-v3.0/melis-4.x-release/toolchain/riscv64-elf-x86_64-20201104/bin/../lib/gcc/riscv64-unknown-elf/8.4.0/../../../../riscv64-unknown-elf/lib/rv64imafdcxtheadc/lp64d/libm.a(lib_a-s_matherr.o)
 .riscv.attributes
                0x0000000000000000       0x3e /home/yuzuki/WorkSpace/melis-v3.0/melis-4.x-release/toolchain/riscv64-elf-x86_64-20201104/bin/../lib/gcc/riscv64-unknown-elf/8.4.0/../../../../riscv64-unknown-elf/lib/rv64imafdcxtheadc/lp64d/libm.a(lib_a-s_matherr.o)
 .data          0x0000000000000000        0x0 /home/yuzuki/WorkSpace/melis-v3.0/melis-4.x-release/toolchain/riscv64-elf-x86_64-20201104/bin/../lib/gcc/riscv64-unknown-elf/8.4.0/../../../../riscv64-unknown-elf/lib/rv64imafdcxtheadc/lp64d/libm.a(lib_a-s_scalbn.o)
 .bss           0x0000000000000000        0x0 /home/yuzuki/WorkSpace/melis-v3.0/melis-4.x-release/toolchain/riscv64-elf-x86_64-20201104/bin/../lib/gcc/riscv64-unknown-elf/8.4.0/../../../../riscv64-unknown-elf/lib/rv64imafdcxtheadc/lp64d/libm.a(lib_a-s_scalbn.o)
 .data          0x0000000000000000        0x0 /home/yuzuki/WorkSpace/melis-v3.0/melis-4.x-release/toolchain/riscv64-elf-x86_64-20201104/bin/../lib/gcc/riscv64-unknown-elf/8.4.0/../../../../riscv64-unknown-elf/lib/rv64imafdcxtheadc/lp64d/libm.a(lib_a-s_copysign.o)
 .bss           0x0000000000000000        0x0 /home/yuzuki/WorkSpace/melis-v3.0/melis-4.x-release/toolchain/riscv64-elf-x86_64-20201104/bin/../lib/gcc/riscv64-unknown-elf/8.4.0/../../../../riscv64-unknown-elf/lib/rv64imafdcxtheadc/lp64d/libm.a(lib_a-s_copysign.o)
 .text          0x0000000000000000       0x20 /home/yuzuki/WorkSpace/melis-v3.0/melis-4.x-release/toolchain/riscv64-elf-x86_64-20201104/bin/../lib/gcc/riscv64-unknown-elf/8.4.0/../../../../riscv64-unknown-elf/lib/rv64imafdcxtheadc/lp64d/libc.a(lib_a-errno.o)
 .data          0x0000000000000000        0x0 /home/yuzuki/WorkSpace/melis-v3.0/melis-4.x-release/toolchain/riscv64-elf-x86_64-20201104/bin/../lib/gcc/riscv64-unknown-elf/8.4.0/../../../../riscv64-unknown-elf/lib/rv64imafdcxtheadc/lp64d/libc.a(lib_a-errno.o)
 .bss           0x0000000000000000        0x0 /home/yuzuki/WorkSpace/melis-v3.0/melis-4.x-release/toolchain/riscv64-elf-x86_64-20201104/bin/../lib/gcc/riscv64-unknown-elf/8.4.0/../../../../riscv64-unknown-elf/lib/rv64imafdcxtheadc/lp64d/libc.a(lib_a-errno.o)
 .comment       0x0000000000000000       0x33 /home/yuzuki/WorkSpace/melis-v3.0/melis-4.x-release/toolchain/riscv64-elf-x86_64-20201104/bin/../lib/gcc/riscv64-unknown-elf/8.4.0/../../../../riscv64-unknown-elf/lib/rv64imafdcxtheadc/lp64d/libc.a(lib_a-errno.o)
 .riscv.attributes
                0x0000000000000000       0x3e /home/yuzuki/WorkSpace/melis-v3.0/melis-4.x-release/toolchain/riscv64-elf-x86_64-20201104/bin/../lib/gcc/riscv64-unknown-elf/8.4.0/../../../../riscv64-unknown-elf/lib/rv64imafdcxtheadc/lp64d/libc.a(lib_a-errno.o)
 .text          0x0000000000000000        0x0 /home/yuzuki/WorkSpace/melis-v3.0/melis-4.x-release/toolchain/riscv64-elf-x86_64-20201104/bin/../lib/gcc/riscv64-unknown-elf/8.4.0/../../../../riscv64-unknown-elf/lib/rv64imafdcxtheadc/lp64d/libc.a(lib_a-impure.o)
 .data          0x0000000000000000      0x750 /home/yuzuki/WorkSpace/melis-v3.0/melis-4.x-release/toolchain/riscv64-elf-x86_64-20201104/bin/../lib/gcc/riscv64-unknown-elf/8.4.0/../../../../riscv64-unknown-elf/lib/rv64imafdcxtheadc/lp64d/libc.a(lib_a-impure.o)
 .bss           0x0000000000000000        0x0 /home/yuzuki/WorkSpace/melis-v3.0/melis-4.x-release/toolchain/riscv64-elf-x86_64-20201104/bin/../lib/gcc/riscv64-unknown-elf/8.4.0/../../../../riscv64-unknown-elf/lib/rv64imafdcxtheadc/lp64d/libc.a(lib_a-impure.o)
 .rodata        0x0000000000000000        0x8 /home/yuzuki/WorkSpace/melis-v3.0/melis-4.x-release/toolchain/riscv64-elf-x86_64-20201104/bin/../lib/gcc/riscv64-unknown-elf/8.4.0/../../../../riscv64-unknown-elf/lib/rv64imafdcxtheadc/lp64d/libc.a(lib_a-impure.o)
 .comment       0x0000000000000000       0x33 /home/yuzuki/WorkSpace/melis-v3.0/melis-4.x-release/toolchain/riscv64-elf-x86_64-20201104/bin/../lib/gcc/riscv64-unknown-elf/8.4.0/../../../../riscv64-unknown-elf/lib/rv64imafdcxtheadc/lp64d/libc.a(lib_a-impure.o)
 .riscv.attributes
                0x0000000000000000       0x3e /home/yuzuki/WorkSpace/melis-v3.0/melis-4.x-release/toolchain/riscv64-elf-x86_64-20201104/bin/../lib/gcc/riscv64-unknown-elf/8.4.0/../../../../riscv64-unknown-elf/lib/rv64imafdcxtheadc/lp64d/libc.a(lib_a-impure.o)

Memory Configuration

Name             Origin             Length             Attributes
dram0_0_seg      0x00000000c2000000 0x0000000004000000 xrw
dram0_1_seg      0x00000000e0000000 0x0000000010000000 xrw
dram0_2_seg      0x00000000e1800000 0x0000000000110000 xrw
magic_info_seg   0x00000000ffff0000 0x0000000000000100 r
*default*        0x0000000000000000 0xffffffffffffffff

Linker script and memory map

LOAD emodules/mod_orange/mod_orange.o
LOAD emodules/mod_orange/orange_mod_api.o
LOAD emodules/mod_orange/magic.o
LOAD emodules/mod_orange/built-in.o
START GROUP
START GROUP
LOAD ./elibrary/bin/libsyscall.a
LOAD ./elibrary/bin/libminic.a
LOAD ./elibrary/bin/liblzma.a
LOAD ./elibrary/bin/libpub0.a
END GROUP
LOAD /home/yuzuki/WorkSpace/melis-v3.0/melis-4.x-release/toolchain/riscv64-elf-x86_64-20201104/bin/../lib/gcc/riscv64-unknown-elf/8.4.0/../../../../riscv64-unknown-elf/lib/rv64imafdcxtheadc/lp64d/libstdc++.a
LOAD /home/yuzuki/WorkSpace/melis-v3.0/melis-4.x-release/toolchain/riscv64-elf-x86_64-20201104/bin/../lib/gcc/riscv64-unknown-elf/8.4.0/../../../../riscv64-unknown-elf/lib/rv64imafdcxtheadc/lp64d/libc.a
LOAD /home/yuzuki/WorkSpace/melis-v3.0/melis-4.x-release/toolchain/riscv64-elf-x86_64-20201104/bin/../lib/gcc/riscv64-unknown-elf/8.4.0/rv64imafdcxtheadc/lp64d/libgcc.a
LOAD /home/yuzuki/WorkSpace/melis-v3.0/melis-4.x-release/toolchain/riscv64-elf-x86_64-20201104/bin/../lib/gcc/riscv64-unknown-elf/8.4.0/../../../../riscv64-unknown-elf/lib/rv64imafdcxtheadc/lp64d/libm.a
END GROUP
                0x00000000e1801058                __DRAM0_MOD_BASE = ORIGIN (dram0_2_seg)
                0x00000000ffff0000                __DRAM0_INF_BASE = ORIGIN (magic_info_seg)

ORANGE_API_TBL  0x00000000e1800000     0x1058
 *orange_mod_api.o(ORANGE_API_TBL)
 ORANGE_API_TBL
                0x00000000e1800000     0x1058 emodules/mod_orange/orange_mod_api.o
                0x00000000e1800000                orangemod_api
                0x00000000e1801058                __DRAM0_MOD_BASE = ABSOLUTE (.)

.mod.text       0x00000000e1801058    0x25f38
 *(.text)
 .text          0x00000000e1801058       0xd0 /home/yuzuki/WorkSpace/melis-v3.0/melis-4.x-release/toolchain/riscv64-elf-x86_64-20201104/bin/../lib/gcc/riscv64-unknown-elf/8.4.0/../../../../riscv64-unknown-elf/lib/rv64imafdcxtheadc/lp64d/libc.a(lib_a-memcpy.o)
                0x00000000e1801058                memcpy
 .text          0x00000000e1801128       0xd2 /home/yuzuki/WorkSpace/melis-v3.0/melis-4.x-release/toolchain/riscv64-elf-x86_64-20201104/bin/../lib/gcc/riscv64-unknown-elf/8.4.0/../../../../riscv64-unknown-elf/lib/rv64imafdcxtheadc/lp64d/libc.a(lib_a-memmove-stub.o)
                0x00000000e1801128                memmove
 *fill*         0x00000000e18011fa        0x2 
 .text          0x00000000e18011fc       0xaa /home/yuzuki/WorkSpace/melis-v3.0/melis-4.x-release/toolchain/riscv64-elf-x86_64-20201104/bin/../lib/gcc/riscv64-unknown-elf/8.4.0/../../../../riscv64-unknown-elf/lib/rv64imafdcxtheadc/lp64d/libc.a(lib_a-memset.o)
                0x00000000e18011fc                memset
 *fill*         0x00000000e18012a6        0x2 
 .text          0x00000000e18012a8       0xa0 /home/yuzuki/WorkSpace/melis-v3.0/melis-4.x-release/toolchain/riscv64-elf-x86_64-20201104/bin/../lib/gcc/riscv64-unknown-elf/8.4.0/../../../../riscv64-unknown-elf/lib/rv64imafdcxtheadc/lp64d/libc.a(lib_a-strlen.o)
                0x00000000e18012a8                strlen
 *fill*         0x00000000e1801348        0x8 
 .text          0x00000000e1801350      0x138 /home/yuzuki/WorkSpace/melis-v3.0/melis-4.x-release/toolchain/riscv64-elf-x86_64-20201104/bin/../lib/gcc/riscv64-unknown-elf/8.4.0/../../../../riscv64-unknown-elf/lib/rv64imafdcxtheadc/lp64d/libm.a(lib_a-s_ceil.o)
                0x00000000e1801350                ceil
 *fill*         0x00000000e1801488        0x8 
 .text          0x00000000e1801490       0x88 /home/yuzuki/WorkSpace/melis-v3.0/melis-4.x-release/toolchain/riscv64-elf-x86_64-20201104/bin/../lib/gcc/riscv64-unknown-elf/8.4.0/../../../../riscv64-unknown-elf/lib/rv64imafdcxtheadc/lp64d/libm.a(lib_a-s_cos.o)
                0x00000000e1801490                cos
 *fill*         0x00000000e1801518        0x8 
 .text          0x00000000e1801520      0x13c /home/yuzuki/WorkSpace/melis-v3.0/melis-4.x-release/toolchain/riscv64-elf-x86_64-20201104/bin/../lib/gcc/riscv64-unknown-elf/8.4.0/../../../../riscv64-unknown-elf/lib/rv64imafdcxtheadc/lp64d/libm.a(lib_a-s_floor.o)
                0x00000000e1801520                floor
 *fill*         0x00000000e180165c        0x4 
 .text          0x00000000e1801660       0x84 /home/yuzuki/WorkSpace/melis-v3.0/melis-4.x-release/toolchain/riscv64-elf-x86_64-20201104/bin/../lib/gcc/riscv64-unknown-elf/8.4.0/../../../../riscv64-unknown-elf/lib/rv64imafdcxtheadc/lp64d/libm.a(lib_a-s_sin.o)
                0x00000000e1801660                sin
 *fill*         0x00000000e18016e4        0xc 
 .text          0x00000000e18016f0      0x2c2 /home/yuzuki/WorkSpace/melis-v3.0/melis-4.x-release/toolchain/riscv64-elf-x86_64-20201104/bin/../lib/gcc/riscv64-unknown-elf/8.4.0/../../../../riscv64-unknown-elf/lib/rv64imafdcxtheadc/lp64d/libm.a(lib_a-e_rem_pio2.o)
                0x00000000e18016f0                __ieee754_rem_pio2
 *fill*         0x00000000e18019b2        0xe 
 .text          0x00000000e18019c0      0x150 /home/yuzuki/WorkSpace/melis-v3.0/melis-4.x-release/toolchain/riscv64-elf-x86_64-20201104/bin/../lib/gcc/riscv64-unknown-elf/8.4.0/../../../../riscv64-unknown-elf/lib/rv64imafdcxtheadc/lp64d/libm.a(lib_a-k_cos.o)
                0x00000000e18019c0                __kernel_cos
 .text          0x00000000e1801b10      0x714 /home/yuzuki/WorkSpace/melis-v3.0/melis-4.x-release/toolchain/riscv64-elf-x86_64-20201104/bin/../lib/gcc/riscv64-unknown-elf/8.4.0/../../../../riscv64-unknown-elf/lib/rv64imafdcxtheadc/lp64d/libm.a(lib_a-k_rem_pio2.o)
                0x00000000e1801b10                __kernel_rem_pio2
 *fill*         0x00000000e1802224        0xc 
 .text          0x00000000e1802230       0xb0 /home/yuzuki/WorkSpace/melis-v3.0/melis-4.x-release/toolchain/riscv64-elf-x86_64-20201104/bin/../lib/gcc/riscv64-unknown-elf/8.4.0/../../../../riscv64-unknown-elf/lib/rv64imafdcxtheadc/lp64d/libm.a(lib_a-k_sin.o)
                0x00000000e1802230                __kernel_sin
 .text          0x00000000e18022e0       0x22 /home/yuzuki/WorkSpace/melis-v3.0/melis-4.x-release/toolchain/riscv64-elf-x86_64-20201104/bin/../lib/gcc/riscv64-unknown-elf/8.4.0/../../../../riscv64-unknown-elf/lib/rv64imafdcxtheadc/lp64d/libm.a(lib_a-s_fabs.o)
                0x00000000e18022e0                fabs
 *fill*         0x00000000e1802302        0xe 
 .text          0x00000000e1802310      0x13a /home/yuzuki/WorkSpace/melis-v3.0/melis-4.x-release/toolchain/riscv64-elf-x86_64-20201104/bin/../lib/gcc/riscv64-unknown-elf/8.4.0/../../../../riscv64-unknown-elf/lib/rv64imafdcxtheadc/lp64d/libm.a(lib_a-s_scalbn.o)
                0x00000000e1802310                scalbn
 *fill*         0x00000000e180244a        0x6 
 .text          0x00000000e1802450       0x32 /home/yuzuki/WorkSpace/melis-v3.0/melis-4.x-release/toolchain/riscv64-elf-x86_64-20201104/bin/../lib/gcc/riscv64-unknown-elf/8.4.0/../../../../riscv64-unknown-elf/lib/rv64imafdcxtheadc/lp64d/libm.a(lib_a-s_copysign.o)
                0x00000000e1802450                copysign
 *(.text.*)
 .text.ORANGE_MInit
                0x00000000e1802482        0x4 emodules/mod_orange/mod_orange.o
                0x00000000e1802482                ORANGE_MInit
 .text.ORANGE_MExit
                0x00000000e1802486        0x4 emodules/mod_orange/mod_orange.o
                0x00000000e1802486                ORANGE_MExit
 .text.ORANGE_MOpen
                0x00000000e180248a       0x26 emodules/mod_orange/mod_orange.o
                0x00000000e180248a                ORANGE_MOpen
 .text.ORANGE_MClose
                0x00000000e18024b0       0x20 emodules/mod_orange/mod_orange.o
                0x00000000e18024b0                ORANGE_MClose
 .text.ORANGE_MRead
                0x00000000e18024d0        0x6 emodules/mod_orange/mod_orange.o
                0x00000000e18024d0                ORANGE_MRead
 .text.ORANGE_MWrite
                0x00000000e18024d6        0x6 emodules/mod_orange/mod_orange.o
                0x00000000e18024d6                ORANGE_MWrite
 .text.ORANGE_MIoctrl
                0x00000000e18024dc       0x12 emodules/mod_orange/mod_orange.o
                0x00000000e18024dc                ORANGE_MIoctrl
 .text.GUI_Init
                0x00000000e18024ee       0x9a emodules/mod_orange/built-in.o
                0x00000000e18024ee                GUI_Init
 .text.GUI_Exit
                0x00000000e1802588        0x4 emodules/mod_orange/built-in.o
                0x00000000e1802588                GUI_Exit
 .text.GUI_GetScnDir
                0x00000000e180258c        0xa emodules/mod_orange/built-in.o
                0x00000000e180258c                GUI_GetScnDir
 .text.GUI_SetScnDir
                0x00000000e1802596        0xc emodules/mod_orange/built-in.o
                0x00000000e1802596                GUI_SetScnDir
 .text.GUI_SetZoomWin
                0x00000000e18025a2       0x14 emodules/mod_orange/built-in.o
                0x00000000e18025a2                GUI_SetZoomWin
 .text.GUI_CharSetToEncode
                0x00000000e18025b6       0xea emodules/mod_orange/built-in.o
                0x00000000e18025b6                GUI_CharSetToEncode
 .text.GUI_ScnPhyPt2LogPt
                0x00000000e18026a0       0x92 emodules/mod_orange/built-in.o
                0x00000000e18026a0                GUI_ScnPhyPt2LogPt
 .text.GUI_TouchPhyDirToLogDir
                0x00000000e1802732       0x60 emodules/mod_orange/built-in.o
                0x00000000e1802732                GUI_TouchPhyDirToLogDir
 .text.GUI_GetScreenSize
                0x00000000e1802792       0xa0 emodules/mod_orange/built-in.o
                0x00000000e1802792                GUI_GetScreenSize
 .text.GUI_X_InitOS
                0x00000000e1802832       0x26 emodules/mod_orange/built-in.o
                0x00000000e1802832                GUI_X_InitOS
 .text.GUI_X_GetTaskId
                0x00000000e1802858       0x12 emodules/mod_orange/built-in.o
                0x00000000e1802858                GUI_X_GetTaskId
 .text.GUI_X_Lock
                0x00000000e180286a       0x1e emodules/mod_orange/built-in.o
                0x00000000e180286a                GUI_X_Lock
 .text.GUI_X_Unlock
                0x00000000e1802888        0xe emodules/mod_orange/built-in.o
                0x00000000e1802888                GUI_X_Unlock
 .text.GUI_X_LockAccept
                0x00000000e1802896        0xe emodules/mod_orange/built-in.o
                0x00000000e1802896                GUI_X_LockAccept
 .text.GUI_X_Init
                0x00000000e18028a4       0x18 emodules/mod_orange/built-in.o
                0x00000000e18028a4                GUI_X_Init
 .text.GUI_TOUCH_X_ActivateX
                0x00000000e18028bc        0x2 emodules/mod_orange/built-in.o
                0x00000000e18028bc                GUI_TOUCH_X_ActivateX
 .text.GUI_TOUCH_X_ActivateY
                0x00000000e18028be        0x2 emodules/mod_orange/built-in.o
                0x00000000e18028be                GUI_TOUCH_X_ActivateY
 .text.GUI_TOUCH_X_MeasureX
                0x00000000e18028c0        0x4 emodules/mod_orange/built-in.o
                0x00000000e18028c0                GUI_TOUCH_X_MeasureX
 .text.GUI_TOUCH_X_MeasureY
                0x00000000e18028c4        0x4 emodules/mod_orange/built-in.o
                0x00000000e18028c4                GUI_TOUCH_X_MeasureY
 .text.GUI_X_Log
                0x00000000e18028c8        0x2 emodules/mod_orange/built-in.o
                0x00000000e18028c8                GUI_X_Log
 .text.GUI_X_Warn
                0x00000000e18028ca        0x2 emodules/mod_orange/built-in.o
                0x00000000e18028ca                GUI_X_Warn
 .text.GUI_X_ErrorOut
                0x00000000e18028cc        0x2 emodules/mod_orange/built-in.o
                0x00000000e18028cc                GUI_X_ErrorOut
 .text.InitMemBlockLink
                0x00000000e18028ce       0x2c emodules/mod_orange/built-in.o
                0x00000000e18028ce                InitMemBlockLink
 .text.MemBlockAlloc
                0x00000000e18028fa       0x82 emodules/mod_orange/built-in.o
                0x00000000e18028fa                MemBlockAlloc
 .text.MemBlockFree
                0x00000000e180297c       0x5e emodules/mod_orange/built-in.o
                0x00000000e180297c                MemBlockFree
 .text.DestroyMemBlockLink
                0x00000000e18029da       0x2e emodules/mod_orange/built-in.o
                0x00000000e18029da                DestroyMemBlockLink
 .text.PtInRect
                0x00000000e1802a08       0x22 emodules/mod_orange/built-in.o
                0x00000000e1802a08                PtInRect
 .text.SysRectToGuiRect
                0x00000000e1802a2a       0x2a emodules/mod_orange/built-in.o
                0x00000000e1802a2a                SysRectToGuiRect
 .text.GUI_Core_Init
                0x00000000e1802a54       0x16 emodules/mod_orange/built-in.o
                0x00000000e1802a54                GUI_Core_Init
 .text.pthread_mutex_lock
                0x00000000e1802a6a       0x3c emodules/mod_orange/built-in.o
 .text.get_string_piexl_rect
                0x00000000e1802aa6       0x74 emodules/mod_orange/built-in.o
                0x00000000e1802aa6                get_string_piexl_rect
 .text.get_string_encode_group
                0x00000000e1802b1a       0x70 emodules/mod_orange/built-in.o
                0x00000000e1802b1a                get_string_encode_group
 .text.local_get_string_piexl_rect
                0x00000000e1802b8a       0x72 emodules/mod_orange/built-in.o
                0x00000000e1802b8a                local_get_string_piexl_rect
 .text.GUI_LongStringMove
                0x00000000e1802bfc      0x166 emodules/mod_orange/built-in.o
                0x00000000e1802bfc                GUI_LongStringMove
 .text.GUI_LongString_Task
                0x00000000e1802d62       0xe8 emodules/mod_orange/built-in.o
                0x00000000e1802d62                GUI_LongString_Task
 .text.GUI_LongStringStart
                0x00000000e1802e4a       0x94 emodules/mod_orange/built-in.o
                0x00000000e1802e4a                GUI_LongStringStart
 .text.GUI_LongStringReset
                0x00000000e1802ede       0xa8 emodules/mod_orange/built-in.o
                0x00000000e1802ede                GUI_LongStringReset
 .text.GUI_LongStringStop
                0x00000000e1802f86       0x70 emodules/mod_orange/built-in.o
                0x00000000e1802f86                GUI_LongStringStop
 .text.GUI_LongStringInit
                0x00000000e1802ff6        0x2 emodules/mod_orange/built-in.o
                0x00000000e1802ff6                GUI_LongStringInit
 .text.GUI_LongStringCreate
                0x00000000e1802ff8      0x1a6 emodules/mod_orange/built-in.o
                0x00000000e1802ff8                GUI_LongStringCreate
 .text.GUI_LongStringDelete
                0x00000000e180319e       0x5e emodules/mod_orange/built-in.o
                0x00000000e180319e                GUI_LongStringDelete
 .text.LCD_GetIndexMask_M233
                0x00000000e18031fc        0x6 emodules/mod_orange/built-in.o
                0x00000000e18031fc                LCD_GetIndexMask_M233
 .text.LCD_Color2Index_M565
                0x00000000e1803202       0x22 emodules/mod_orange/built-in.o
                0x00000000e1803202                LCD_Color2Index_M565
 .text.LCD_GetIndexMask_M565
                0x00000000e1803224        0x6 emodules/mod_orange/built-in.o
                0x00000000e1803224                LCD_GetIndexMask_M565
 .text.LCD_Color2Index_M8888
                0x00000000e180322a       0x26 emodules/mod_orange/built-in.o
                0x00000000e180322a                LCD_Color2Index_M8888
 .text.LCD_Index2Color_M8888
                0x00000000e1803250       0x4c emodules/mod_orange/built-in.o
                0x00000000e1803250                LCD_Index2Color_M8888
 .text.LCD_GetIndexMask_M8888
                0x00000000e180329c        0x4 emodules/mod_orange/built-in.o
                0x00000000e180329c                LCD_GetIndexMask_M8888
 .text.LCD_GetIndexMask_2
                0x00000000e18032a0        0x4 emodules/mod_orange/built-in.o
                0x00000000e18032a0                LCD_GetIndexMask_2
 .text.GUI_SetFrameColor8bpp32
                0x00000000e18032a4       0x14 emodules/mod_orange/built-in.o
                0x00000000e18032a4                GUI_SetFrameColor8bpp32
 .text.shadow_Dilation
                0x00000000e18032b8      0x14c emodules/mod_orange/built-in.o
                0x00000000e18032b8                shadow_Dilation
 .text.shadow_smooth
                0x00000000e1803404       0xa8 emodules/mod_orange/built-in.o
 .text.shadow   0x00000000e18034ac      0x1bc emodules/mod_orange/built-in.o
                0x00000000e18034ac                shadow
 .text.GUI_GetDefaultFont
                0x00000000e1803668        0xa emodules/mod_orange/built-in.o
                0x00000000e1803668                GUI_GetDefaultFont
 .text._GetFontInfo
                0x00000000e1803672       0x20 emodules/mod_orange/built-in.o
 .text._IsInFont
                0x00000000e1803692        0x4 emodules/mod_orange/built-in.o
 .text._DispLine
                0x00000000e1803696       0xaa emodules/mod_orange/built-in.o
 .text._GetCharDistX
                0x00000000e1803740       0x34 emodules/mod_orange/built-in.o
 .text._RequestGlyph.constprop.3
                0x00000000e1803774      0x748 emodules/mod_orange/built-in.o
 .text._DispChar
                0x00000000e1803ebc       0x50 emodules/mod_orange/built-in.o
 .text.GUI_SFT_CreateFont
                0x00000000e1803f0c      0x15a emodules/mod_orange/built-in.o
                0x00000000e1803f0c                GUI_SFT_CreateFont
 .text.GUI_SFT_ReleaseFont
                0x00000000e1804066       0x3a emodules/mod_orange/built-in.o
                0x00000000e1804066                GUI_SFT_ReleaseFont
 .text.__sft_get_block_part
                0x00000000e18040a0      0x204 emodules/mod_orange/built-in.o
 .text.sft_fopen
                0x00000000e18042a4       0xea emodules/mod_orange/built-in.o
                0x00000000e18042a4                sft_fopen
 .text.sft_fclose
                0x00000000e180438e       0x50 emodules/mod_orange/built-in.o
                0x00000000e180438e                sft_fclose
 .text.sft_fread
                0x00000000e18043de      0x2a0 emodules/mod_orange/built-in.o
                0x00000000e18043de                sft_fread
 .text.sft_fseek
                0x00000000e180467e       0x4e emodules/mod_orange/built-in.o
                0x00000000e180467e                sft_fseek
 .text.is_valid_face
                0x00000000e18046cc       0x1a emodules/mod_orange/built-in.o
 .text.release_hdl_res
                0x00000000e18046e6       0x84 emodules/mod_orange/built-in.o
 .text.SFTE_New_Face
                0x00000000e180476a      0x212 emodules/mod_orange/built-in.o
                0x00000000e180476a                SFTE_New_Face
 .text.SFTE_Done_Face
                0x00000000e180497c       0x2a emodules/mod_orange/built-in.o
                0x00000000e180497c                SFTE_Done_Face
 .text.SFTE_Set_Pixel_Sizes
                0x00000000e18049a6      0x172 emodules/mod_orange/built-in.o
                0x00000000e18049a6                SFTE_Set_Pixel_Sizes
 .text.SFTE_Get_Index_Table
                0x00000000e1804b18       0xee emodules/mod_orange/built-in.o
                0x00000000e1804b18                SFTE_Get_Index_Table
 .text.SFTE_Get_Glyph
                0x00000000e1804c06      0x1c8 emodules/mod_orange/built-in.o
                0x00000000e1804c06                SFTE_Get_Glyph
 .text.SFTE_Get_XAdvance
                0x00000000e1804dce       0x62 emodules/mod_orange/built-in.o
                0x00000000e1804dce                SFTE_Get_XAdvance
 .text.GUI_sin  0x00000000e1804e30       0x82 emodules/mod_orange/built-in.o
                0x00000000e1804e30                GUI_sin
 .text.GUI_cos  0x00000000e1804eb2        0x8 emodules/mod_orange/built-in.o
                0x00000000e1804eb2                GUI_cos
 .text.GUI_MoveRel
                0x00000000e1804eba       0x48 emodules/mod_orange/built-in.o
                0x00000000e1804eba                GUI_MoveRel
 .text.GUI_MoveTo
                0x00000000e1804f02       0x30 emodules/mod_orange/built-in.o
                0x00000000e1804f02                GUI_MoveTo
 .text.GUI_DrawRect
                0x00000000e1804f32       0x54 emodules/mod_orange/built-in.o
                0x00000000e1804f32                GUI_DrawRect
 .text.GL_DrawPoint
                0x00000000e1804f86       0x1e emodules/mod_orange/built-in.o
                0x00000000e1804f86                GL_DrawPoint
 .text.GL_DrawLine1
                0x00000000e1804fa4      0x1b4 emodules/mod_orange/built-in.o
                0x00000000e1804fa4                GL_DrawLine1
 .text.GL_DrawLine
                0x00000000e1805158      0x210 emodules/mod_orange/built-in.o
                0x00000000e1805158                GL_DrawLine
 .text.GUI_DrawLine
                0x00000000e1805368       0x24 emodules/mod_orange/built-in.o
                0x00000000e1805368                GUI_DrawLine
 .text.GUI_DrawLineRel
                0x00000000e180538c       0x48 emodules/mod_orange/built-in.o
                0x00000000e180538c                GUI_DrawLineRel
 .text.GL_DrawLineTo
                0x00000000e18053d4       0x4a emodules/mod_orange/built-in.o
                0x00000000e18053d4                GL_DrawLineTo
 .text.GL_DrawPolygon
                0x00000000e180541e       0xaa emodules/mod_orange/built-in.o
                0x00000000e180541e                GL_DrawPolygon
 .text.GUI_DrawPolygon
                0x00000000e18054c8       0x24 emodules/mod_orange/built-in.o
                0x00000000e18054c8                GUI_DrawPolygon
 .text.GUI_DrawLineTo
                0x00000000e18054ec       0x50 emodules/mod_orange/built-in.o
                0x00000000e18054ec                GUI_DrawLineTo
 .text.GUI_DrawPoint
                0x00000000e180553c       0x1c emodules/mod_orange/built-in.o
                0x00000000e180553c                GUI_DrawPoint
 .text.GUI_OpenAlphaBlend
                0x00000000e1805558       0x1a emodules/mod_orange/built-in.o
                0x00000000e1805558                GUI_OpenAlphaBlend
 .text.GUI_CloseAlphaBlend
                0x00000000e1805572       0x18 emodules/mod_orange/built-in.o
                0x00000000e1805572                GUI_CloseAlphaBlend
 .text.GUI__AddSpaceHex
                0x00000000e180558a       0x10 emodules/mod_orange/built-in.o
                0x00000000e180558a                GUI__AddSpaceHex
 .text.GUI__DivideRound32
                0x00000000e180559a       0x18 emodules/mod_orange/built-in.o
                0x00000000e180559a                GUI__DivideRound32
 .text.GUI__GetFontSizeY
                0x00000000e18055b2       0x1a emodules/mod_orange/built-in.o
                0x00000000e18055b2                GUI__GetFontSizeY
 .text.GUI__HandleEOLine
                0x00000000e18055cc       0x22 emodules/mod_orange/built-in.o
                0x00000000e18055cc                GUI__HandleEOLine
 .text.GUI__IntersectRect
                0x00000000e18055ee       0x42 emodules/mod_orange/built-in.o
                0x00000000e18055ee                GUI__IntersectRect
 .text.GUI__IntersectRects
                0x00000000e1805630       0x8a emodules/mod_orange/built-in.o
                0x00000000e1805630                GUI__IntersectRects
 .text.GUI__memset
                0x00000000e18056ba       0x6c emodules/mod_orange/built-in.o
                0x00000000e18056ba                GUI__memset
 .text.GUI__memset16
                0x00000000e1805726       0x74 emodules/mod_orange/built-in.o
                0x00000000e1805726                GUI__memset16
 .text.GUI__memset32
                0x00000000e180579a       0x14 emodules/mod_orange/built-in.o
                0x00000000e180579a                GUI__memset32
 .text.GUI__Read16
                0x00000000e18057ae        0xc emodules/mod_orange/built-in.o
                0x00000000e18057ae                GUI__Read16
 .text.GUI__Read32
                0x00000000e18057ba        0xc emodules/mod_orange/built-in.o
                0x00000000e18057ba                GUI__Read32
 .text.GUI__strlen
                0x00000000e18057c6       0x1a emodules/mod_orange/built-in.o
                0x00000000e18057c6                GUI__strlen
 .text.GUI__WrapGetNumCharsDisp
                0x00000000e18057e0       0xda emodules/mod_orange/built-in.o
                0x00000000e18057e0                GUI__WrapGetNumCharsDisp
 .text.GUI__WrapGetNumCharsToNextLine
                0x00000000e18058ba       0x72 emodules/mod_orange/built-in.o
                0x00000000e18058ba                GUI__WrapGetNumCharsToNextLine
 .text.GUI__WrapGetNumBytesToNextLine
                0x00000000e180592c       0x1a emodules/mod_orange/built-in.o
                0x00000000e180592c                GUI__WrapGetNumBytesToNextLine
 .text.GUI_AddBin
                0x00000000e1805946       0x5e emodules/mod_orange/built-in.o
                0x00000000e1805946                GUI_AddBin
 .text.GUI_AddHex
                0x00000000e18059a4       0x3c emodules/mod_orange/built-in.o
                0x00000000e18059a4                GUI_AddHex
 .text.GUI_ALLOC_AllocInit
                0x00000000e18059e0       0x4a emodules/mod_orange/built-in.o
                0x00000000e18059e0                GUI_ALLOC_AllocInit
 .text.GUI_ALLOC_AllocZero
                0x00000000e1805a2a       0x48 emodules/mod_orange/built-in.o
                0x00000000e1805a2a                GUI_ALLOC_AllocZero
 .text.GUI_ARGB_Draw
                0x00000000e1805a72      0x1e0 emodules/mod_orange/built-in.o
                0x00000000e1805a72                GUI_ARGB_Draw
 .text._Draw_FB_ARGB
                0x00000000e1805c52       0x72 emodules/mod_orange/built-in.o
 .text._DrawBitmap_32bpp_Alpha
                0x00000000e1805cc4       0xa0 emodules/mod_orange/built-in.o
 .text.GUI_BitString_Draw
                0x00000000e1805d64       0x42 emodules/mod_orange/built-in.o
                0x00000000e1805d64                GUI_BitString_Draw
 .text.GUI_BitString_DrawEx
                0x00000000e1805da6       0x6e emodules/mod_orange/built-in.o
                0x00000000e1805da6                GUI_BitString_DrawEx
 .text._GetStep
                0x00000000e1805e14       0x20 emodules/mod_orange/built-in.o
 .text._DrawBitmap_32bpp
                0x00000000e1805e34       0x84 emodules/mod_orange/built-in.o
 .text._DrawBitmap_24bpp
                0x00000000e1805eb8      0x110 emodules/mod_orange/built-in.o
 .text._DrawBitmap_Pal
                0x00000000e1805fc8      0x106 emodules/mod_orange/built-in.o
 .text._DrawBitmap_16bpp
                0x00000000e18060ce       0xd4 emodules/mod_orange/built-in.o
 .text.GUI_BMP_GetXSize
                0x00000000e18061a2       0x1c emodules/mod_orange/built-in.o
                0x00000000e18061a2                GUI_BMP_GetXSize
 .text.GUI_BMP_GetYSize
                0x00000000e18061be       0x24 emodules/mod_orange/built-in.o
                0x00000000e18061be                GUI_BMP_GetYSize
 .text.GUI_BMP_Draw_Rotate
                0x00000000e18061e2        0xa emodules/mod_orange/built-in.o
                0x00000000e18061e2                GUI_BMP_Draw_Rotate
 .text.GUI_BMP_Draw
                0x00000000e18061ec      0x22c emodules/mod_orange/built-in.o
                0x00000000e18061ec                GUI_BMP_Draw
 .text.GUI_BMP_DrawEx
                0x00000000e1806418      0x2ce emodules/mod_orange/built-in.o
                0x00000000e1806418                GUI_BMP_DrawEx
 .text.GUI_BMP_Draw_Trans
                0x00000000e18066e6      0x2c4 emodules/mod_orange/built-in.o
                0x00000000e18066e6                GUI_BMP_Draw_Trans
 .text.GUI_ClearRectEx
                0x00000000e18069aa       0x14 emodules/mod_orange/built-in.o
                0x00000000e18069aa                GUI_ClearRectEx
 .text.GUI_MemCopyEx
                0x00000000e18069be      0x1dc emodules/mod_orange/built-in.o
 .text.GUI_SetRectMem
                0x00000000e1806b9a      0x23e emodules/mod_orange/built-in.o
                0x00000000e1806b9a                GUI_SetRectMem
 .text.GUI_GetRectMem
                0x00000000e1806dd8      0x246 emodules/mod_orange/built-in.o
                0x00000000e1806dd8                GUI_GetRectMem
 .text.GUI_GetRectMemEx
                0x00000000e180701e      0x128 emodules/mod_orange/built-in.o
                0x00000000e180701e                GUI_GetRectMemEx
 .text.GUI_DispBin
                0x00000000e1807146       0x1e emodules/mod_orange/built-in.o
                0x00000000e1807146                GUI_DispBin
 .text.GUI_DispBinAt
                0x00000000e1807164       0x30 emodules/mod_orange/built-in.o
                0x00000000e1807164                GUI_DispBinAt
 .text.GUI_DispCEOL
                0x00000000e1807194       0x4e emodules/mod_orange/built-in.o
                0x00000000e1807194                GUI_DispCEOL
 .text.GUI_DispChar
                0x00000000e18071e2       0x18 emodules/mod_orange/built-in.o
                0x00000000e18071e2                GUI_DispChar
 .text.GUI_DispCharAt
                0x00000000e18071fa       0x38 emodules/mod_orange/built-in.o
                0x00000000e18071fa                GUI_DispCharAt
 .text.GUI_DispChars
                0x00000000e1807232       0x22 emodules/mod_orange/built-in.o
                0x00000000e1807232                GUI_DispChars
 .text.GUI_DispHex
                0x00000000e1807254       0x1e emodules/mod_orange/built-in.o
                0x00000000e1807254                GUI_DispHex
 .text.GUI_DispHexAt
                0x00000000e1807272       0x30 emodules/mod_orange/built-in.o
                0x00000000e1807272                GUI_DispHexAt
 .text.GUI_DispString
                0x00000000e18072a2      0x1c6 emodules/mod_orange/built-in.o
                0x00000000e18072a2                GUI_DispString
 .text.GUI_DispStringAt
                0x00000000e1807468       0x38 emodules/mod_orange/built-in.o
                0x00000000e1807468                GUI_DispStringAt
 .text.GUI_DispStringAtCEOL
                0x00000000e18074a0       0x10 emodules/mod_orange/built-in.o
                0x00000000e18074a0                GUI_DispStringAtCEOL
 .text.GUI_DispStringHCenterAt
                0x00000000e18074b0       0x40 emodules/mod_orange/built-in.o
                0x00000000e18074b0                GUI_DispStringHCenterAt
 .text.GUI__DispStringInRect
                0x00000000e18074f0      0x182 emodules/mod_orange/built-in.o
                0x00000000e18074f0                GUI__DispStringInRect
 .text.GUI_DispStringInRectMax
                0x00000000e1807672       0x62 emodules/mod_orange/built-in.o
                0x00000000e1807672                GUI_DispStringInRectMax
 .text.GUI_DispStringInRect
                0x00000000e18076d4        0x8 emodules/mod_orange/built-in.o
                0x00000000e18076d4                GUI_DispStringInRect
 .text.GUI_DispStringInRectWrap
                0x00000000e18076dc      0x172 emodules/mod_orange/built-in.o
                0x00000000e18076dc                GUI_DispStringInRectWrap
 .text.GUI_DispStringLen
                0x00000000e180784e       0x46 emodules/mod_orange/built-in.o
                0x00000000e180784e                GUI_DispStringLen
 .text.GUI_DrawGraph
                0x00000000e1807894       0xf4 emodules/mod_orange/built-in.o
                0x00000000e1807894                GUI_DrawGraph
 .text.GUI_DrawHLine
                0x00000000e1807988       0x26 emodules/mod_orange/built-in.o
                0x00000000e1807988                GUI_DrawHLine
 .text.GUI_DrawPie
                0x00000000e18079ae       0x50 emodules/mod_orange/built-in.o
                0x00000000e18079ae                GUI_DrawPie
 .text.GUI_DrawPixel
                0x00000000e18079fe       0x1c emodules/mod_orange/built-in.o
                0x00000000e18079fe                GUI_DrawPixel
 .text.GUI_DrawRectEx
                0x00000000e1807a1a       0x14 emodules/mod_orange/built-in.o
                0x00000000e1807a1a                GUI_DrawRectEx
 .text.GUI_DrawVLine
                0x00000000e1807a2e       0x20 emodules/mod_orange/built-in.o
                0x00000000e1807a2e                GUI_DrawVLine
 .text._CopyString.constprop.0
                0x00000000e1807a4e       0x54 emodules/mod_orange/built-in.o
 .text.GUI_ErrorOut
                0x00000000e1807aa2        0x4 emodules/mod_orange/built-in.o
                0x00000000e1807aa2                GUI_ErrorOut
 .text.GUI_ErrorOut1
                0x00000000e1807aa6       0x4e emodules/mod_orange/built-in.o
                0x00000000e1807aa6                GUI_ErrorOut1
 .text.GUI_ErrorOut2
                0x00000000e1807af4       0x5e emodules/mod_orange/built-in.o
                0x00000000e1807af4                GUI_ErrorOut2
 .text.GUI_ErrorOut3
                0x00000000e1807b52       0x6c emodules/mod_orange/built-in.o
                0x00000000e1807b52                GUI_ErrorOut3
 .text.GUI_ErrorOut4
                0x00000000e1807bbe       0x86 emodules/mod_orange/built-in.o
                0x00000000e1807bbe                GUI_ErrorOut4
 .text._Add     0x00000000e1807c44       0x3e emodules/mod_orange/built-in.o
 .text.GL_FillPolygon
                0x00000000e1807c82      0x220 emodules/mod_orange/built-in.o
                0x00000000e1807c82                GL_FillPolygon
 .text.GUI_FillPolygon
                0x00000000e1807ea2       0x24 emodules/mod_orange/built-in.o
                0x00000000e1807ea2                GUI_FillPolygon
 .text.GUI_FillRect
                0x00000000e1807ec6       0x24 emodules/mod_orange/built-in.o
                0x00000000e1807ec6                GUI_FillRect
 .text.GUI_FillRectEx
                0x00000000e1807eea       0x14 emodules/mod_orange/built-in.o
                0x00000000e1807eea                GUI_FillRectEx
 .text.GUI_GetClientRect
                0x00000000e1807efe       0x28 emodules/mod_orange/built-in.o
                0x00000000e1807efe                GUI_GetClientRect
 .text.GUI_GetFont
                0x00000000e1807f26       0x22 emodules/mod_orange/built-in.o
                0x00000000e1807f26                GUI_GetFont
 .text.GUI_GetFontInfo
                0x00000000e1807f48       0x42 emodules/mod_orange/built-in.o
                0x00000000e1807f48                GUI_GetFontInfo
 .text.GUI_GetFontSizeY
                0x00000000e1807f8a       0x1a emodules/mod_orange/built-in.o
                0x00000000e1807f8a                GUI_GetFontSizeY
 .text.GUI_GetLineStyle
                0x00000000e1807fa4       0x1e emodules/mod_orange/built-in.o
                0x00000000e1807fa4                GUI_GetLineStyle
 .text.GUI_GetStringDistX
                0x00000000e1807fc2       0x1a emodules/mod_orange/built-in.o
                0x00000000e1807fc2                GUI_GetStringDistX
 .text.GUI_GetTextAlign
                0x00000000e1807fdc       0x22 emodules/mod_orange/built-in.o
                0x00000000e1807fdc                GUI_GetTextAlign
 .text.GUI_GetTextExtend
                0x00000000e1807ffe       0xbe emodules/mod_orange/built-in.o
                0x00000000e1807ffe                GUI_GetTextExtend
 .text.GUI_GetTextMode
                0x00000000e18080bc       0x22 emodules/mod_orange/built-in.o
                0x00000000e18080bc                GUI_GetTextMode
 .text.GUI_GetYSizeOfFont
                0x00000000e18080de        0xe emodules/mod_orange/built-in.o
                0x00000000e18080de                GUI_GetYSizeOfFont
 .text.GUI_GetYDistOfFont
                0x00000000e18080ec        0xe emodules/mod_orange/built-in.o
                0x00000000e18080ec                GUI_GetYDistOfFont
 .text.GUI_GotoY
                0x00000000e18080fa       0x2c emodules/mod_orange/built-in.o
                0x00000000e18080fa                GUI_GotoY
 .text.GUI_GotoX
                0x00000000e1808126       0x2c emodules/mod_orange/built-in.o
                0x00000000e1808126                GUI_GotoX
 .text.GUI_GotoXY
                0x00000000e1808152       0x34 emodules/mod_orange/built-in.o
                0x00000000e1808152                GUI_GotoXY
 .text.GUI_InvertRect
                0x00000000e1808186       0x3a emodules/mod_orange/built-in.o
                0x00000000e1808186                GUI_InvertRect
 .text.GUI_IsInFont
                0x00000000e18081c0       0x14 emodules/mod_orange/built-in.o
                0x00000000e18081c0                GUI_IsInFont
 .text.GUI_Log  0x00000000e18081d4        0x4 emodules/mod_orange/built-in.o
                0x00000000e18081d4                GUI_Log
 .text.GUI_Log1
                0x00000000e18081d8       0x40 emodules/mod_orange/built-in.o
                0x00000000e18081d8                GUI_Log1
 .text.GUI_Log2
                0x00000000e1808218       0x50 emodules/mod_orange/built-in.o
                0x00000000e1808218                GUI_Log2
 .text.GUI_Log3
                0x00000000e1808268       0x5e emodules/mod_orange/built-in.o
                0x00000000e1808268                GUI_Log3
 .text.GUI_Log4
                0x00000000e18082c6       0x6c emodules/mod_orange/built-in.o
                0x00000000e18082c6                GUI_Log4
 .text.GUI_MergeRect
                0x00000000e1808332       0x78 emodules/mod_orange/built-in.o
                0x00000000e1808332                GUI_MergeRect
 .text.GUI_MoveRect
                0x00000000e18083aa       0x34 emodules/mod_orange/built-in.o
                0x00000000e18083aa                GUI_MoveRect
 .text.GUI_GetPenSize
                0x00000000e18083de       0x1e emodules/mod_orange/built-in.o
                0x00000000e18083de                GUI_GetPenSize
 .text.GUI_GetPenShape
                0x00000000e18083fc       0x1e emodules/mod_orange/built-in.o
                0x00000000e18083fc                GUI_GetPenShape
 .text.GUI_SetPenSize
                0x00000000e180841a       0x2c emodules/mod_orange/built-in.o
                0x00000000e180841a                GUI_SetPenSize
 .text.GUI_SetPenShape
                0x00000000e1808446       0x2c emodules/mod_orange/built-in.o
                0x00000000e1808446                GUI_SetPenShape
 .text.GUI_RectsIntersect
                0x00000000e1808472       0x40 emodules/mod_orange/built-in.o
                0x00000000e1808472                GUI_RectsIntersect
 .text.GUI_SaveContext
                0x00000000e18084b2       0x1a emodules/mod_orange/built-in.o
                0x00000000e18084b2                GUI_SaveContext
 .text.GUI_RestoreContext
                0x00000000e18084cc       0x1c emodules/mod_orange/built-in.o
                0x00000000e18084cc                GUI_RestoreContext
 .text.GUI_ReleaseLayer
                0x00000000e18084e8       0x10 emodules/mod_orange/built-in.o
                0x00000000e18084e8                GUI_ReleaseLayer
 .text.GUI_SelectLayer
                0x00000000e18084f8       0x3e emodules/mod_orange/built-in.o
                0x00000000e18084f8                GUI_SelectLayer
 .text.GUI_CreateLayer
                0x00000000e1808536       0xd4 emodules/mod_orange/built-in.o
                0x00000000e1808536                GUI_CreateLayer
 .text.GUI_SelectLCD
                0x00000000e180860a       0x18 emodules/mod_orange/built-in.o
                0x00000000e180860a                GUI_SelectLCD
 .text.GUI_SetClipRect
                0x00000000e1808622       0x2c emodules/mod_orange/built-in.o
                0x00000000e1808622                GUI_SetClipRect
 .text.GUI_SetBkColor
                0x00000000e180864e       0x18 emodules/mod_orange/built-in.o
                0x00000000e180864e                GUI_SetBkColor
 .text.GUI_SetColor
                0x00000000e1808666       0x18 emodules/mod_orange/built-in.o
                0x00000000e1808666                GUI_SetColor
 .text.GL_SetDefault
                0x00000000e180867e       0x40 emodules/mod_orange/built-in.o
                0x00000000e180867e                GL_SetDefault
 .text.GUI_SetDefault
                0x00000000e18086be       0x14 emodules/mod_orange/built-in.o
                0x00000000e18086be                GUI_SetDefault
 .text.GUI_SetDrawMode
                0x00000000e18086d2       0x1e emodules/mod_orange/built-in.o
                0x00000000e18086d2                GUI_SetDrawMode
 .text.GUI_SetFont
                0x00000000e18086f0       0x34 emodules/mod_orange/built-in.o
                0x00000000e18086f0                GUI_SetFont
 .text.GUI_SetLineStyle
                0x00000000e1808724       0x2c emodules/mod_orange/built-in.o
                0x00000000e1808724                GUI_SetLineStyle
 .text.LCD_SetPixelIndex
                0x00000000e1808750       0x3c emodules/mod_orange/built-in.o
                0x00000000e1808750                LCD_SetPixelIndex
 .text.GUI_SetLCDDirection
                0x00000000e180878c       0x36 emodules/mod_orange/built-in.o
                0x00000000e180878c                GUI_SetLCDDirection
 .text.GUI_SetLCDSize
                0x00000000e18087c2       0x38 emodules/mod_orange/built-in.o
                0x00000000e18087c2                GUI_SetLCDSize
 .text.GUI_SetTextAlign
                0x00000000e18087fa       0x2c emodules/mod_orange/built-in.o
                0x00000000e18087fa                GUI_SetTextAlign
 .text.GUI_SetTextMode
                0x00000000e1808826       0x2c emodules/mod_orange/built-in.o
                0x00000000e1808826                GUI_SetTextMode
 .text.GUI_UC_GetCharSize
                0x00000000e1808852       0x2a emodules/mod_orange/built-in.o
                0x00000000e1808852                GUI_UC_GetCharSize
 .text.GUI_UC_GetCharCode
                0x00000000e180887c       0x2a emodules/mod_orange/built-in.o
                0x00000000e180887c                GUI_UC_GetCharCode
 .text.GUI_UC__GetCharCodeInc
                0x00000000e18088a6       0x42 emodules/mod_orange/built-in.o
                0x00000000e18088a6                GUI_UC__GetCharCodeInc
 .text.GUI_UC__NumChars2NumBytes
                0x00000000e18088e8       0x44 emodules/mod_orange/built-in.o
                0x00000000e18088e8                GUI_UC__NumChars2NumBytes
 .text.Big5_to_Unicode
                0x00000000e180892c       0x4e emodules/mod_orange/built-in.o
                0x00000000e180892c                Big5_to_Unicode
 .text._GetCharCode
                0x00000000e180897a      0x512 emodules/mod_orange/built-in.o
 .text._GetCharSize
                0x00000000e1808e8c      0x142 emodules/mod_orange/built-in.o
 .text._CalcSizeOfChar
                0x00000000e1808fce      0x166 emodules/mod_orange/built-in.o
 .text._Encode  0x00000000e1809134      0x476 emodules/mod_orange/built-in.o
 .text.GUI_UC_SetEncodeNone
                0x00000000e18095aa       0x20 emodules/mod_orange/built-in.o
                0x00000000e18095aa                GUI_UC_SetEncodeNone
 .text.GUI_UC_SetEncodeUTF8
                0x00000000e18095ca       0x2a emodules/mod_orange/built-in.o
                0x00000000e18095ca                GUI_UC_SetEncodeUTF8
 .text.GUI_Warn
                0x00000000e18095f4        0x4 emodules/mod_orange/built-in.o
                0x00000000e18095f4                GUI_Warn
 .text.GUI_Warn1
                0x00000000e18095f8       0x40 emodules/mod_orange/built-in.o
                0x00000000e18095f8                GUI_Warn1
 .text.GUI_Warn2
                0x00000000e1809638       0x50 emodules/mod_orange/built-in.o
                0x00000000e1809638                GUI_Warn2
 .text.GUI_Warn3
                0x00000000e1809688       0x5e emodules/mod_orange/built-in.o
                0x00000000e1809688                GUI_Warn3
 .text.GUI_Warn4
                0x00000000e18096e6       0x6c emodules/mod_orange/built-in.o
                0x00000000e18096e6                GUI_Warn4
 .text.GUI_ALLOC_Init
                0x00000000e1809752       0xcc emodules/mod_orange/built-in.o
                0x00000000e1809752                GUI_ALLOC_Init
 .text._CheckInit
                0x00000000e180981e       0x12 emodules/mod_orange/built-in.o
 .text.GUI_Memdev_FrameBuffer_Release
                0x00000000e1809830       0x82 emodules/mod_orange/built-in.o
                0x00000000e1809830                GUI_Memdev_FrameBuffer_Release
 .text.GUI_ALLOC_AllocNoInit
                0x00000000e18098b2      0x234 emodules/mod_orange/built-in.o
                0x00000000e18098b2                GUI_ALLOC_AllocNoInit
 .text.GUI_ALLOC_h2p
                0x00000000e1809ae6       0x5a emodules/mod_orange/built-in.o
                0x00000000e1809ae6                GUI_ALLOC_h2p
 .text.GUI_ALLOC_GetNumFreeBytes
                0x00000000e1809b40       0x20 emodules/mod_orange/built-in.o
                0x00000000e1809b40                GUI_ALLOC_GetNumFreeBytes
 .text.GUI_ALLOC_GetMaxSize
                0x00000000e1809b60       0x8a emodules/mod_orange/built-in.o
                0x00000000e1809b60                GUI_ALLOC_GetMaxSize
 .text.GUI_ALLOC_GetSize
                0x00000000e1809bea       0x2e emodules/mod_orange/built-in.o
                0x00000000e1809bea                GUI_ALLOC_GetSize
 .text.GUI_ALLOC_Free
                0x00000000e1809c18       0xa2 emodules/mod_orange/built-in.o
                0x00000000e1809c18                GUI_ALLOC_Free
 .text.GUI_ALLOC_FreePtr
                0x00000000e1809cba       0x22 emodules/mod_orange/built-in.o
                0x00000000e1809cba                GUI_ALLOC_FreePtr
 .text._DrawArc.isra.0
                0x00000000e1809cdc      0x2a4 emodules/mod_orange/built-in.o
 .text.GL_DrawArc
                0x00000000e1809f80      0x142 emodules/mod_orange/built-in.o
                0x00000000e1809f80                GL_DrawArc
 .text.GUI_DrawArc
                0x00000000e180a0c2       0x2c emodules/mod_orange/built-in.o
                0x00000000e180a0c2                GUI_DrawArc
 .text.GUI_GetYAdjust
                0x00000000e180a0ee       0x4e emodules/mod_orange/built-in.o
                0x00000000e180a0ee                GUI_GetYAdjust
 .text.GUI_GetFontDistY
                0x00000000e180a13c       0x42 emodules/mod_orange/built-in.o
                0x00000000e180a13c                GUI_GetFontDistY
 .text.GUI_DispNextLine
                0x00000000e180a17e       0x3e emodules/mod_orange/built-in.o
                0x00000000e180a17e                GUI_DispNextLine
 .text.GL_DispChar
                0x00000000e180a1bc       0x3a emodules/mod_orange/built-in.o
                0x00000000e180a1bc                GL_DispChar
 .text.GUI_GetCharDistX
                0x00000000e180a1f6       0x2a emodules/mod_orange/built-in.o
                0x00000000e180a1f6                GUI_GetCharDistX
 .text.GUI__GetLineNumChars
                0x00000000e180a220       0x68 emodules/mod_orange/built-in.o
                0x00000000e180a220                GUI__GetLineNumChars
 .text.GUI__GetLineDistX
                0x00000000e180a288       0x4c emodules/mod_orange/built-in.o
                0x00000000e180a288                GUI__GetLineDistX
 .text.GUI__DispLine
                0x00000000e180a2d4       0x3e emodules/mod_orange/built-in.o
                0x00000000e180a2d4                GUI__DispLine
 .text.GUIMONO_DispChar
                0x00000000e180a312      0x1b0 emodules/mod_orange/built-in.o
                0x00000000e180a312                GUIMONO_DispChar
 .text.GUIMONO_GetCharDistX
                0x00000000e180a4c2       0x1c emodules/mod_orange/built-in.o
                0x00000000e180a4c2                GUIMONO_GetCharDistX
 .text.GUIMONO_GetFontInfo
                0x00000000e180a4de        0x8 emodules/mod_orange/built-in.o
                0x00000000e180a4de                GUIMONO_GetFontInfo
 .text.GUIMONO_IsInFont
                0x00000000e180a4e6       0x34 emodules/mod_orange/built-in.o
                0x00000000e180a4e6                GUIMONO_IsInFont
 .text.Draw8Point
                0x00000000e180a51a       0xaa emodules/mod_orange/built-in.o
 .text.GL_DrawCircle
                0x00000000e180a5c4       0x7a emodules/mod_orange/built-in.o
                0x00000000e180a5c4                GL_DrawCircle
 .text.GUI_DrawCircle
                0x00000000e180a63e       0x20 emodules/mod_orange/built-in.o
                0x00000000e180a63e                GUI_DrawCircle
 .text.GL_FillCircle
                0x00000000e180a65e       0xd2 emodules/mod_orange/built-in.o
                0x00000000e180a65e                GL_FillCircle
 .text.GUI_FillCircle
                0x00000000e180a730       0x20 emodules/mod_orange/built-in.o
                0x00000000e180a730                GUI_FillCircle
 .text.GL_FillEllipse
                0x00000000e180a750       0xb2 emodules/mod_orange/built-in.o
                0x00000000e180a750                GL_FillEllipse
 .text.GUI_FillEllipse
                0x00000000e180a802       0x24 emodules/mod_orange/built-in.o
                0x00000000e180a802                GUI_FillEllipse
 .text.GL_DrawEllipse
                0x00000000e180a826      0x10e emodules/mod_orange/built-in.o
                0x00000000e180a826                GL_DrawEllipse
 .text.GUI_DrawEllipse
                0x00000000e180a934       0x24 emodules/mod_orange/built-in.o
                0x00000000e180a934                GUI_DrawEllipse
 .text.GUI_ClearRect
                0x00000000e180a958       0x3a emodules/mod_orange/built-in.o
                0x00000000e180a958                GUI_ClearRect
 .text.GUI_Clear
                0x00000000e180a992       0x20 emodules/mod_orange/built-in.o
                0x00000000e180a992                GUI_Clear
 .text.GUI_Kernel_Init
                0x00000000e180a9b2       0xf0 emodules/mod_orange/built-in.o
                0x00000000e180a9b2                GUI_Kernel_Init
 .text.GUI_Init_layer
                0x00000000e180aaa2       0x24 emodules/mod_orange/built-in.o
                0x00000000e180aaa2                GUI_Init_layer
 .text._GetTaskNo
                0x00000000e180aac6       0xc0 emodules/mod_orange/built-in.o
 .text.GUI_Unlock
                0x00000000e180ab86       0x68 emodules/mod_orange/built-in.o
                0x00000000e180ab86                GUI_Unlock
 .text.GUI_Lock
                0x00000000e180abee      0x112 emodules/mod_orange/built-in.o
                0x00000000e180abee                GUI_Lock
 .text.GUI_LockAccept
                0x00000000e180ad00      0x130 emodules/mod_orange/built-in.o
                0x00000000e180ad00                GUI_LockAccept
 .text.GUITASK_Init
                0x00000000e180ae30        0xe emodules/mod_orange/built-in.o
                0x00000000e180ae30                GUITASK_Init
 .text.GUITASK_CopyContext
                0x00000000e180ae3e       0x48 emodules/mod_orange/built-in.o
                0x00000000e180ae3e                GUITASK_CopyContext
 .text.LCD_SetColorIndex
                0x00000000e180ae86       0x1a emodules/mod_orange/built-in.o
                0x00000000e180ae86                LCD_SetColorIndex
 .text.LCD_SetBkColorIndex
                0x00000000e180aea0       0x1a emodules/mod_orange/built-in.o
                0x00000000e180aea0                LCD_SetBkColorIndex
 .text.LCD_SetDrawMode
                0x00000000e180aeba       0x24 emodules/mod_orange/built-in.o
                0x00000000e180aeba                LCD_SetDrawMode
 .text.LCD_SetFontMode
                0x00000000e180aede       0x14 emodules/mod_orange/built-in.o
                0x00000000e180aede                LCD_SetFontMode
 .text.LCD_DrawPixel
                0x00000000e180aef2       0x4c emodules/mod_orange/built-in.o
                0x00000000e180aef2                LCD_DrawPixel
 .text.LCD_DrawHLine
                0x00000000e180af3e       0x54 emodules/mod_orange/built-in.o
                0x00000000e180af3e                LCD_DrawHLine
 .text.LCD_FillRect
                0x00000000e180af92       0x6c emodules/mod_orange/built-in.o
                0x00000000e180af92                LCD_FillRect
 .text.LCD_DrawBitmap
                0x00000000e180affe      0x28c emodules/mod_orange/built-in.o
                0x00000000e180affe                LCD_DrawBitmap
 .text.LCD_DrawBitmap_Trans
                0x00000000e180b28a      0x112 emodules/mod_orange/built-in.o
                0x00000000e180b28a                LCD_DrawBitmap_Trans
 .text.LCD_SetClipRectMax
                0x00000000e180b39c       0x1c emodules/mod_orange/built-in.o
                0x00000000e180b39c                LCD_SetClipRectMax
 .text.LCD_Init
                0x00000000e180b3b8       0x26 emodules/mod_orange/built-in.o
                0x00000000e180b3b8                LCD_Init
 .text.LCD_Init_layer
                0x00000000e180b3de       0x30 emodules/mod_orange/built-in.o
                0x00000000e180b3de                LCD_Init_layer
 .text.LCD_Color2Index
                0x00000000e180b40e       0x12 emodules/mod_orange/built-in.o
                0x00000000e180b40e                LCD_Color2Index
 .text.LCD_Index2Color
                0x00000000e180b420       0x12 emodules/mod_orange/built-in.o
                0x00000000e180b420                LCD_Index2Color
 .text.LCD_SetBkColor
                0x00000000e180b432       0x26 emodules/mod_orange/built-in.o
                0x00000000e180b432                LCD_SetBkColor
 .text.LCD_SetColor
                0x00000000e180b458       0x26 emodules/mod_orange/built-in.o
                0x00000000e180b458                LCD_SetColor
 .text.LCD_DrawVLine
                0x00000000e180b47e       0x54 emodules/mod_orange/built-in.o
                0x00000000e180b47e                LCD_DrawVLine
 .text.LCD_GetXSizeEx
                0x00000000e180b4d2        0xe emodules/mod_orange/built-in.o
                0x00000000e180b4d2                LCD_GetXSizeEx
 .text.LCD_GetYSizeEx
                0x00000000e180b4e0       0x12 emodules/mod_orange/built-in.o
                0x00000000e180b4e0                LCD_GetYSizeEx
 .text.LCD_GetBitsPerPixelEx
                0x00000000e180b4f2        0x6 emodules/mod_orange/built-in.o
                0x00000000e180b4f2                LCD_GetBitsPerPixelEx
 .text.LCD_GetNumColorsEx
                0x00000000e180b4f8       0x1e emodules/mod_orange/built-in.o
                0x00000000e180b4f8                LCD_GetNumColorsEx
 .text.LCD_GetXMagEx
                0x00000000e180b516        0x6 emodules/mod_orange/built-in.o
                0x00000000e180b516                LCD_GetXMagEx
 .text.LCD_GetFixedPaletteEx
                0x00000000e180b51c       0x24 emodules/mod_orange/built-in.o
                0x00000000e180b51c                LCD_GetFixedPaletteEx
 .text.LCD_GetSwapRBEx
                0x00000000e180b540        0x4 emodules/mod_orange/built-in.o
                0x00000000e180b540                LCD_GetSwapRBEx
 .text.LCD_GetPixelColor
                0x00000000e180b544       0x12 emodules/mod_orange/built-in.o
                0x00000000e180b544                LCD_GetPixelColor
 .text.LCD_L0_Color2Index
                0x00000000e180b556        0x4 emodules/mod_orange/built-in.o
                0x00000000e180b556                LCD_L0_Color2Index
 .text.LCD_L0_1_Color2Index
                0x00000000e180b55a        0x4 emodules/mod_orange/built-in.o
                0x00000000e180b55a                LCD_L0_1_Color2Index
 .text.LCD_L0_2_Color2Index
                0x00000000e180b55e        0x2 emodules/mod_orange/built-in.o
                0x00000000e180b55e                LCD_L0_2_Color2Index
 .text.LCD_L0_3_Color2Index
                0x00000000e180b560        0x2 emodules/mod_orange/built-in.o
                0x00000000e180b560                LCD_L0_3_Color2Index
 .text.LCD_L0_Index2Color
                0x00000000e180b562        0x4 emodules/mod_orange/built-in.o
                0x00000000e180b562                LCD_L0_Index2Color
 .text.LCD_L0_1_Index2Color
                0x00000000e180b566        0x4 emodules/mod_orange/built-in.o
                0x00000000e180b566                LCD_L0_1_Index2Color
 .text.LCD_L0_2_Index2Color
                0x00000000e180b56a        0x2 emodules/mod_orange/built-in.o
                0x00000000e180b56a                LCD_L0_2_Index2Color
 .text.LCD_L0_3_Index2Color
                0x00000000e180b56c        0x2 emodules/mod_orange/built-in.o
                0x00000000e180b56c                LCD_L0_3_Index2Color
 .text.LCD_L0_GetIndexMask
                0x00000000e180b56e        0x4 emodules/mod_orange/built-in.o
                0x00000000e180b56e                LCD_L0_GetIndexMask
 .text.LCD_L0_1_GetIndexMask
                0x00000000e180b572        0x4 emodules/mod_orange/built-in.o
                0x00000000e180b572                LCD_L0_1_GetIndexMask
 .text.LCD_L0_2_GetIndexMask
                0x00000000e180b576        0x4 emodules/mod_orange/built-in.o
                0x00000000e180b576                LCD_L0_2_GetIndexMask
 .text.LCD_L0_3_GetIndexMask
                0x00000000e180b57a        0x4 emodules/mod_orange/built-in.o
                0x00000000e180b57a                LCD_L0_3_GetIndexMask
 .text.LCD_L0_GetRect
                0x00000000e180b57e       0x36 emodules/mod_orange/built-in.o
                0x00000000e180b57e                LCD_L0_GetRect
 .text.LCD_L0_1_GetRect
                0x00000000e180b5b4        0x4 emodules/mod_orange/built-in.o
                0x00000000e180b5b4                LCD_L0_1_GetRect
 .text.LCD_L0_2_GetRect
                0x00000000e180b5b8        0x4 emodules/mod_orange/built-in.o
                0x00000000e180b5b8                LCD_L0_2_GetRect
 .text.LCD_MixColors256
                0x00000000e180b5bc       0x5a emodules/mod_orange/built-in.o
                0x00000000e180b5bc                LCD_MixColors256
 .text.LCD_SelectLCD
                0x00000000e180b616       0x86 emodules/mod_orange/built-in.o
                0x00000000e180b616                LCD_SelectLCD
 .text.LCD_SetClipRectEx
                0x00000000e180b69c       0x34 emodules/mod_orange/built-in.o
                0x00000000e180b69c                LCD_SetClipRectEx
 .text.LCD_UpdateColorIndices
                0x00000000e180b6d0       0x2c emodules/mod_orange/built-in.o
                0x00000000e180b6d0                LCD_UpdateColorIndices
 .text.LCD_GetpPalConvTableUncached
                0x00000000e180b6fc       0x5c emodules/mod_orange/built-in.o
                0x00000000e180b6fc                LCD_GetpPalConvTableUncached
 .text.LCD_GetpPalConvTable
                0x00000000e180b758        0x4 emodules/mod_orange/built-in.o
                0x00000000e180b758                LCD_GetpPalConvTable
 .text.LCD_InitLUT
                0x00000000e180b75c        0x2 emodules/mod_orange/built-in.o
                0x00000000e180b75c                LCD_InitLUT
 .text.LCD_GetPixelIndex
                0x00000000e180b75e       0x5a emodules/mod_orange/built-in.o
                0x00000000e180b75e                LCD_GetPixelIndex
 .text.LCD_GetXSize
                0x00000000e180b7b8       0x16 emodules/mod_orange/built-in.o
                0x00000000e180b7b8                LCD_GetXSize
 .text.LCD_GetYSize
                0x00000000e180b7ce       0x1a emodules/mod_orange/built-in.o
                0x00000000e180b7ce                LCD_GetYSize
 .text.LCD_GetYMag
                0x00000000e180b7e8        0x4 emodules/mod_orange/built-in.o
                0x00000000e180b7e8                LCD_GetYMag
 .text.LCD_GetXMag
                0x00000000e180b7ec        0x4 emodules/mod_orange/built-in.o
                0x00000000e180b7ec                LCD_GetXMag
 .text.LCD_Index2Color_M565
                0x00000000e180b7f0       0x3e emodules/mod_orange/built-in.o
                0x00000000e180b7f0                LCD_Index2Color_M565
 .text.GUI_SetFontMode
                0x00000000e180b82e       0x1e emodules/mod_orange/built-in.o
                0x00000000e180b82e                GUI_SetFontMode
 .text.GUI_UC_SetEncodeGBK
                0x00000000e180b84c       0x2a emodules/mod_orange/built-in.o
                0x00000000e180b84c                GUI_UC_SetEncodeGBK
 .text.GUI_UC_SetEncodeBig5
                0x00000000e180b876       0x2a emodules/mod_orange/built-in.o
                0x00000000e180b876                GUI_UC_SetEncodeBig5
 .text.GUI_UC_SetEncodeSJIS
                0x00000000e180b8a0       0x2a emodules/mod_orange/built-in.o
                0x00000000e180b8a0                GUI_UC_SetEncodeSJIS
 .text.GUI_UC_SetEncodeKIO8R
                0x00000000e180b8ca       0x2a emodules/mod_orange/built-in.o
                0x00000000e180b8ca                GUI_UC_SetEncodeKIO8R
 .text.GUI_UC_SetEncodeISO885916
                0x00000000e180b8f4       0x2a emodules/mod_orange/built-in.o
                0x00000000e180b8f4                GUI_UC_SetEncodeISO885916
 .text.GUI_UC_SetEncodeISO885915
                0x00000000e180b91e       0x2a emodules/mod_orange/built-in.o
                0x00000000e180b91e                GUI_UC_SetEncodeISO885915
 .text.GUI_UC_SetEncodeISO885914
                0x00000000e180b948       0x2a emodules/mod_orange/built-in.o
                0x00000000e180b948                GUI_UC_SetEncodeISO885914
 .text.GUI_UC_SetEncodeISO885913
                0x00000000e180b972       0x2a emodules/mod_orange/built-in.o
                0x00000000e180b972                GUI_UC_SetEncodeISO885913
 .text.GUI_UC_SetEncodeISO885912
                0x00000000e180b99c       0x2a emodules/mod_orange/built-in.o
                0x00000000e180b99c                GUI_UC_SetEncodeISO885912
 .text.GUI_UC_SetEncodeISO885911
                0x00000000e180b9c6       0x2a emodules/mod_orange/built-in.o
                0x00000000e180b9c6                GUI_UC_SetEncodeISO885911
 .text.GUI_UC_SetEncodeISO885910
                0x00000000e180b9f0       0x2a emodules/mod_orange/built-in.o
                0x00000000e180b9f0                GUI_UC_SetEncodeISO885910
 .text.GUI_UC_SetEncodeISO88599
                0x00000000e180ba1a       0x2a emodules/mod_orange/built-in.o
                0x00000000e180ba1a                GUI_UC_SetEncodeISO88599
 .text.GUI_UC_SetEncodeISO88598
                0x00000000e180ba44       0x2a emodules/mod_orange/built-in.o
                0x00000000e180ba44                GUI_UC_SetEncodeISO88598
 .text.GUI_UC_SetEncodeISO88597
                0x00000000e180ba6e       0x2a emodules/mod_orange/built-in.o
                0x00000000e180ba6e                GUI_UC_SetEncodeISO88597
 .text.GUI_UC_SetEncodeISO88596
                0x00000000e180ba98       0x2a emodules/mod_orange/built-in.o
                0x00000000e180ba98                GUI_UC_SetEncodeISO88596
 .text.GUI_UC_SetEncodeISO88595
                0x00000000e180bac2       0x2a emodules/mod_orange/built-in.o
                0x00000000e180bac2                GUI_UC_SetEncodeISO88595
 .text.GUI_UC_SetEncodeISO88594
                0x00000000e180baec       0x2a emodules/mod_orange/built-in.o
                0x00000000e180baec                GUI_UC_SetEncodeISO88594
 .text.GUI_UC_SetEncodeISO88593
                0x00000000e180bb16       0x2a emodules/mod_orange/built-in.o
                0x00000000e180bb16                GUI_UC_SetEncodeISO88593
 .text.GUI_UC_SetEncodeISO88592
                0x00000000e180bb40       0x2a emodules/mod_orange/built-in.o
                0x00000000e180bb40                GUI_UC_SetEncodeISO88592
 .text.GUI_UC_SetEncodeISO88591
                0x00000000e180bb6a       0x2a emodules/mod_orange/built-in.o
                0x00000000e180bb6a                GUI_UC_SetEncodeISO88591
 .text.GUI_UC_SetEncodeGB2312
                0x00000000e180bb94       0x28 emodules/mod_orange/built-in.o
                0x00000000e180bb94                GUI_UC_SetEncodeGB2312
 .text.GUI_UC_SetEncodeEUCKR
                0x00000000e180bbbc       0x2a emodules/mod_orange/built-in.o
                0x00000000e180bbbc                GUI_UC_SetEncodeEUCKR
 .text.GUI_UC_SetEncodeEUCJP
                0x00000000e180bbe6       0x2a emodules/mod_orange/built-in.o
                0x00000000e180bbe6                GUI_UC_SetEncodeEUCJP
 .text.GUI_UC_SetEncodeCP1258
                0x00000000e180bc10       0x2c emodules/mod_orange/built-in.o
                0x00000000e180bc10                GUI_UC_SetEncodeCP1258
 .text.GUI_UC_SetEncodeCP1257
                0x00000000e180bc3c       0x2c emodules/mod_orange/built-in.o
                0x00000000e180bc3c                GUI_UC_SetEncodeCP1257
 .text.GUI_UC_SetEncodeCP1256
                0x00000000e180bc68       0x2a emodules/mod_orange/built-in.o
                0x00000000e180bc68                GUI_UC_SetEncodeCP1256
 .text.GUI_UC_SetEncodeCP1255
                0x00000000e180bc92       0x2a emodules/mod_orange/built-in.o
                0x00000000e180bc92                GUI_UC_SetEncodeCP1255
 .text.GUI_UC_SetEncodeCP1253
                0x00000000e180bcbc       0x2a emodules/mod_orange/built-in.o
                0x00000000e180bcbc                GUI_UC_SetEncodeCP1253
 .text.GUI_UC_SetEncodeCP1251
                0x00000000e180bce6       0x2a emodules/mod_orange/built-in.o
                0x00000000e180bce6                GUI_UC_SetEncodeCP1251
 .text.GUI_UC_SetEncodeCP1250
                0x00000000e180bd10       0x2a emodules/mod_orange/built-in.o
                0x00000000e180bd10                GUI_UC_SetEncodeCP1250
 .text.GUI_UC_SetEncodeCP874
                0x00000000e180bd3a       0x2a emodules/mod_orange/built-in.o
                0x00000000e180bd3a                GUI_UC_SetEncodeCP874
 .text.GUI_Fb2Dispfb
                0x00000000e180bd64      0x26e emodules/mod_orange/built-in.o
                0x00000000e180bd64                GUI_Fb2Dispfb
 .text.GUI_Dispfb2Fb
                0x00000000e180bfd2      0x1d0 emodules/mod_orange/built-in.o
                0x00000000e180bfd2                GUI_Dispfb2Fb
 .text.GUI_LogicLyr2DispLyr
                0x00000000e180c1a2       0x82 emodules/mod_orange/built-in.o
                0x00000000e180c1a2                GUI_LogicLyr2DispLyr
 .text.GUI_DispLyr2LogicLyr
                0x00000000e180c224       0x7c emodules/mod_orange/built-in.o
                0x00000000e180c224                GUI_DispLyr2LogicLyr
 .text._XorPixel
                0x00000000e180c2a0      0x3c0 emodules/mod_orange/built-in.o
 .text.LCD2440_GetPixel
                0x00000000e180c660      0x1a6 emodules/mod_orange/built-in.o
 .text.LCD2440_SetPixel
                0x00000000e180c806      0x424 emodules/mod_orange/built-in.o
 .text.LCD_L0_DrawHLine
                0x00000000e180cc2a      0x104 emodules/mod_orange/built-in.o
                0x00000000e180cc2a                LCD_L0_DrawHLine
 .text.LCD_L0_DrawVLine
                0x00000000e180cd2e       0x54 emodules/mod_orange/built-in.o
                0x00000000e180cd2e                LCD_L0_DrawVLine
 .text.LCD_L0_FillRect
                0x00000000e180cd82       0x32 emodules/mod_orange/built-in.o
                0x00000000e180cd82                LCD_L0_FillRect
 .text.LCD_L0_DrawBitmap8bpp
                0x00000000e180cdb4       0x9a emodules/mod_orange/built-in.o
                0x00000000e180cdb4                LCD_L0_DrawBitmap8bpp
 .text.LCD_L0_DrawBitmap
                0x00000000e180ce4e      0x5e0 emodules/mod_orange/built-in.o
                0x00000000e180ce4e                LCD_L0_DrawBitmap
 .text.LCD_L0_SetLUTEntry
                0x00000000e180d42e        0x2 emodules/mod_orange/built-in.o
                0x00000000e180d42e                LCD_L0_SetLUTEntry
 .text.LCD_L0_Init
                0x00000000e180d430        0x4 emodules/mod_orange/built-in.o
                0x00000000e180d430                LCD_L0_Init
 .text.LCD_L0_CheckInit
                0x00000000e180d434        0x4 emodules/mod_orange/built-in.o
                0x00000000e180d434                LCD_L0_CheckInit
 .text.LCD_L0_GetPixelIndex
                0x00000000e180d438        0x4 emodules/mod_orange/built-in.o
                0x00000000e180d438                LCD_L0_GetPixelIndex
 .text.LCD_L0_XorPixel
                0x00000000e180d43c        0x4 emodules/mod_orange/built-in.o
                0x00000000e180d43c                LCD_L0_XorPixel
 .text.LCD_L0_SetPixelIndex
                0x00000000e180d440        0x4 emodules/mod_orange/built-in.o
                0x00000000e180d440                LCD_L0_SetPixelIndex
 .text.LCD_Normal_FillRect
                0x00000000e180d444       0x94 emodules/mod_orange/built-in.o
 .text._DrawBitLine8BPP
                0x00000000e180d4d8       0xcc emodules/mod_orange/built-in.o
 .text.LCD_L0_1_DrawHLine
                0x00000000e180d5a4       0x54 emodules/mod_orange/built-in.o
                0x00000000e180d5a4                LCD_L0_1_DrawHLine
 .text.LCD_L0_1_DrawVLine
                0x00000000e180d5f8       0x54 emodules/mod_orange/built-in.o
                0x00000000e180d5f8                LCD_L0_1_DrawVLine
 .text.LCD_L0_1_FillRect
                0x00000000e180d64c       0x7c emodules/mod_orange/built-in.o
                0x00000000e180d64c                LCD_L0_1_FillRect
 .text.LCD_L0_1_DrawBitmap
                0x00000000e180d6c8      0x778 emodules/mod_orange/built-in.o
                0x00000000e180d6c8                LCD_L0_1_DrawBitmap
 .text.LCD_L0_1_SetLUTEntry
                0x00000000e180de40        0x2 emodules/mod_orange/built-in.o
                0x00000000e180de40                LCD_L0_1_SetLUTEntry
 .text.LCD_L0_1_GetPixelIndex
                0x00000000e180de42        0x4 emodules/mod_orange/built-in.o
                0x00000000e180de42                LCD_L0_1_GetPixelIndex
 .text.LCD_L0_1_XorPixel
                0x00000000e180de46        0x4 emodules/mod_orange/built-in.o
                0x00000000e180de46                LCD_L0_1_XorPixel
 .text.LCD_L0_1_SetPixelIndex
                0x00000000e180de4a        0x4 emodules/mod_orange/built-in.o
                0x00000000e180de4a                LCD_L0_1_SetPixelIndex
 .text.LCD_L0_2_DrawHLine
                0x00000000e180de4e       0x54 emodules/mod_orange/built-in.o
                0x00000000e180de4e                LCD_L0_2_DrawHLine
 .text.LCD_L0_2_DrawVLine
                0x00000000e180dea2       0x54 emodules/mod_orange/built-in.o
                0x00000000e180dea2                LCD_L0_2_DrawVLine
 .text.LCD_L0_2_FillRect
                0x00000000e180def6       0x32 emodules/mod_orange/built-in.o
                0x00000000e180def6                LCD_L0_2_FillRect
 .text.LCD_L0_2_DrawBitmap
                0x00000000e180df28      0x5ba emodules/mod_orange/built-in.o
                0x00000000e180df28                LCD_L0_2_DrawBitmap
 .text.LCD_L0_2_SetLUTEntry
                0x00000000e180e4e2        0x2 emodules/mod_orange/built-in.o
                0x00000000e180e4e2                LCD_L0_2_SetLUTEntry
 .text.LCD_L0_2_GetPixelIndex
                0x00000000e180e4e4        0x4 emodules/mod_orange/built-in.o
                0x00000000e180e4e4                LCD_L0_2_GetPixelIndex
 .text.LCD_L0_2_XorPixel
                0x00000000e180e4e8        0x4 emodules/mod_orange/built-in.o
                0x00000000e180e4e8                LCD_L0_2_XorPixel
 .text.LCD_L0_2_SetPixelIndex
                0x00000000e180e4ec        0x4 emodules/mod_orange/built-in.o
                0x00000000e180e4ec                LCD_L0_2_SetPixelIndex
 .text.GUI_MEMDEV__GetRect
                0x00000000e180e4f0       0x50 emodules/mod_orange/built-in.o
                0x00000000e180e4f0                GUI_MEMDEV__GetRect
 .text.GUI_MEMDEV__Color2Index
                0x00000000e180e540       0x26 emodules/mod_orange/built-in.o
                0x00000000e180e540                GUI_MEMDEV__Color2Index
 .text.GUI_MEMDEV__Index2Color
                0x00000000e180e566       0x26 emodules/mod_orange/built-in.o
                0x00000000e180e566                GUI_MEMDEV__Index2Color
 .text.GUI_MEMDEV__GetIndexMask
                0x00000000e180e58c       0x1e emodules/mod_orange/built-in.o
                0x00000000e180e58c                GUI_MEMDEV__GetIndexMask
 .text.GUI_MEMDEV_Delete
                0x00000000e180e5aa       0x42 emodules/mod_orange/built-in.o
                0x00000000e180e5aa                GUI_MEMDEV_Delete
 .text.GUI_MEMDEV__CreateFixed
                0x00000000e180e5ec      0x302 emodules/mod_orange/built-in.o
                0x00000000e180e5ec                GUI_MEMDEV__CreateFixed
 .text.GUI_MEMDEV_CreateEx
                0x00000000e180e8ee       0xb6 emodules/mod_orange/built-in.o
                0x00000000e180e8ee                GUI_MEMDEV_CreateEx
 .text.GUI_MEMDEV_Create
                0x00000000e180e9a4        0x6 emodules/mod_orange/built-in.o
                0x00000000e180e9a4                GUI_MEMDEV_Create
 .text.GUI_MEMDEV_Select
                0x00000000e180e9aa       0x5e emodules/mod_orange/built-in.o
                0x00000000e180e9aa                GUI_MEMDEV_Select
 .text.GUI_MEMDEV__WriteToActiveAt
                0x00000000e180ea08      0x150 emodules/mod_orange/built-in.o
                0x00000000e180ea08                GUI_MEMDEV__WriteToActiveAt
 .text.GUI_MEMDEV_CopyToLCDAt
                0x00000000e180eb58       0x6e emodules/mod_orange/built-in.o
                0x00000000e180eb58                GUI_MEMDEV_CopyToLCDAt
 .text.GUI_MEMDEV_CopyToLCD
                0x00000000e180ebc6        0xa emodules/mod_orange/built-in.o
                0x00000000e180ebc6                GUI_MEMDEV_CopyToLCD
 .text._XY2PTR_BITOFFSET
                0x00000000e180ebd0       0xac emodules/mod_orange/built-in.o
 .text._SetPixelIndex
                0x00000000e180ec7c      0x342 emodules/mod_orange/built-in.o
 .text._GetPixelIndex
                0x00000000e180efbe       0x50 emodules/mod_orange/built-in.o
 .text._DrawVLine
                0x00000000e180f00e      0x35a emodules/mod_orange/built-in.o
 .text._FillRect
                0x00000000e180f368      0x3d2 emodules/mod_orange/built-in.o
 .text._DrawHLine
                0x00000000e180f73a       0x18 emodules/mod_orange/built-in.o
 .text._DrawBitmap
                0x00000000e180f752     0x1bd6 emodules/mod_orange/built-in.o
 .text._XY2PTR  0x00000000e1811328      0x1cc emodules/mod_orange/built-in.o
 .text.GUI_MEMDEV_Clear
                0x00000000e18114f4       0x3a emodules/mod_orange/built-in.o
                0x00000000e18114f4                GUI_MEMDEV_Clear
 .text.GUI_MEMDEV_CompareWithLCD
                0x00000000e181152e      0x168 emodules/mod_orange/built-in.o
                0x00000000e181152e                GUI_MEMDEV_CompareWithLCD
 .text.GUI_MEMDEV_CopyFromLCD
                0x00000000e1811696      0x128 emodules/mod_orange/built-in.o
                0x00000000e1811696                GUI_MEMDEV_CopyFromLCD
 .text.GUI_MEMDEV_CreateFixed
                0x00000000e18117be       0x4a emodules/mod_orange/built-in.o
                0x00000000e18117be                GUI_MEMDEV_CreateFixed
 .text.GUI_MEMDEV_GetDataPtr
                0x00000000e1811808       0x22 emodules/mod_orange/built-in.o
                0x00000000e1811808                GUI_MEMDEV_GetDataPtr
 .text.GUI_MEMDEV_GetXSize
                0x00000000e181182a       0x36 emodules/mod_orange/built-in.o
                0x00000000e181182a                GUI_MEMDEV_GetXSize
 .text.GUI_MEMDEV_GetYSize
                0x00000000e1811860       0x36 emodules/mod_orange/built-in.o
                0x00000000e1811860                GUI_MEMDEV_GetYSize
 .text.GUI_MEMDEV_ReduceYSize
                0x00000000e1811896       0x3a emodules/mod_orange/built-in.o
                0x00000000e1811896                GUI_MEMDEV_ReduceYSize
 .text.GUI_MEMDEV_SetOrg
                0x00000000e18118d0       0x80 emodules/mod_orange/built-in.o
                0x00000000e18118d0                GUI_MEMDEV_SetOrg
 .text.GUI_USAGE_DecUseCnt
                0x00000000e1811950       0x32 emodules/mod_orange/built-in.o
                0x00000000e1811950                GUI_USAGE_DecUseCnt
 .text.GUI_USAGE_AddRect
                0x00000000e1811982       0x3e emodules/mod_orange/built-in.o
                0x00000000e1811982                GUI_USAGE_AddRect
 .text.GUI_USAGE_BM_GetNextDirty
                0x00000000e18119c0       0xe4 emodules/mod_orange/built-in.o
 .text._GUI_USAGE_BM_Delete
                0x00000000e1811aa4        0x4 emodules/mod_orange/built-in.o
 .text.GUI_USAGE_BM_Clear
                0x00000000e1811aa8       0x14 emodules/mod_orange/built-in.o
 .text.GUI_USAGE_BM_AddHLine
                0x00000000e1811abc       0xde emodules/mod_orange/built-in.o
 .text.GUI_USAGE_BM_AddPixel
                0x00000000e1811b9a       0x9c emodules/mod_orange/built-in.o
 .text.GUI_USAGE_BM_Create
                0x00000000e1811c36       0x86 emodules/mod_orange/built-in.o
                0x00000000e1811c36                GUI_USAGE_BM_Create
 .text.GUI_MEMDEV_WriteAt
                0x00000000e1811cbc       0x3e emodules/mod_orange/built-in.o
                0x00000000e1811cbc                GUI_MEMDEV_WriteAt
 .text.GUI_MEMDEV_Write
                0x00000000e1811cfa        0xa emodules/mod_orange/built-in.o
                0x00000000e1811cfa                GUI_MEMDEV_Write
 .text._DrawHLineAlpha
                0x00000000e1811d04       0xe6 emodules/mod_orange/built-in.o
 .text._DrawBitmapEx
                0x00000000e1811dea      0x2ae emodules/mod_orange/built-in.o
 .text.GUI_MEMDEV_WriteExAt
                0x00000000e1812098      0x1d4 emodules/mod_orange/built-in.o
                0x00000000e1812098                GUI_MEMDEV_WriteExAt
 .text.GUI_MEMDEV_WriteEx
                0x00000000e181226c       0x10 emodules/mod_orange/built-in.o
                0x00000000e181226c                GUI_MEMDEV_WriteEx
 .text.GUI_MEMDEV__XY2PTR
                0x00000000e181227c       0xa8 emodules/mod_orange/built-in.o
                0x00000000e181227c                GUI_MEMDEV__XY2PTR
 .text.GUI_DispatchTimerMessage
                0x00000000e1812324       0xa0 emodules/mod_orange/built-in.o
                0x00000000e1812324                GUI_DispatchTimerMessage
 .text._os_timer_loop
                0x00000000e18123c4       0x3e emodules/mod_orange/built-in.o
 .text.InitTimer
                0x00000000e1812402       0x22 emodules/mod_orange/built-in.o
                0x00000000e1812402                InitTimer
 .text.gui_timer_init
                0x00000000e1812424       0x70 emodules/mod_orange/built-in.o
                0x00000000e1812424                gui_timer_init
 .text.gui_get_timer
                0x00000000e1812494       0x44 emodules/mod_orange/built-in.o
                0x00000000e1812494                gui_get_timer
 .text.gui_remove_timer
                0x00000000e18124d8       0x5c emodules/mod_orange/built-in.o
                0x00000000e18124d8                gui_remove_timer
 .text.GUI_SetTimer
                0x00000000e1812534      0x100 emodules/mod_orange/built-in.o
                0x00000000e1812534                GUI_SetTimer
 .text.GUI_KillTimer
                0x00000000e1812634       0xb6 emodules/mod_orange/built-in.o
                0x00000000e1812634                GUI_KillTimer
 .text.GUI_ResetTimer
                0x00000000e18126ea       0xd0 emodules/mod_orange/built-in.o
                0x00000000e18126ea                GUI_ResetTimer
 .text.GUI_IsTimerInstalled
                0x00000000e18127ba       0x62 emodules/mod_orange/built-in.o
                0x00000000e18127ba                GUI_IsTimerInstalled
 .text.GUI_HaveFreeTimer
                0x00000000e181281c       0x48 emodules/mod_orange/built-in.o
                0x00000000e181281c                GUI_HaveFreeTimer
 .text.GUI_GetTickCount
                0x00000000e1812864        0xc emodules/mod_orange/built-in.o
                0x00000000e1812864                GUI_GetTickCount
 .text.GUI_GetTimerExpired
                0x00000000e1812870       0x72 emodules/mod_orange/built-in.o
                0x00000000e1812870                GUI_GetTimerExpired
 .text.GUI_IsLastThisMsg
                0x00000000e18128e2       0x54 emodules/mod_orange/built-in.o
 .text.GUI_GetLastPostMsg
                0x00000000e1812936       0x6c emodules/mod_orange/built-in.o
 .text.GUI_GetLastBeforePostMsg
                0x00000000e18129a2       0xa4 emodules/mod_orange/built-in.o
 .text.be_this_thread
                0x00000000e1812a46       0x28 emodules/mod_orange/built-in.o
 .text.GUI_GetLastPostChildMsg.constprop.7
                0x00000000e1812a6e       0x7a emodules/mod_orange/built-in.o
 .text.GUI_GetFirstPostMsg.constprop.9
                0x00000000e1812ae8       0x64 emodules/mod_orange/built-in.o
 .text.GUI_ProcMsgRise.constprop.11
                0x00000000e1812b4c       0xd2 emodules/mod_orange/built-in.o
 .text.InitFreeQMSGList
                0x00000000e1812c1e       0x20 emodules/mod_orange/built-in.o
                0x00000000e1812c1e                InitFreeQMSGList
 .text.DestroyFreeQMSGList
                0x00000000e1812c3e       0x18 emodules/mod_orange/built-in.o
                0x00000000e1812c3e                DestroyFreeQMSGList
 .text.GUI_NotifyMSGQ
                0x00000000e1812c56       0x28 emodules/mod_orange/built-in.o
                0x00000000e1812c56                GUI_NotifyMSGQ
 .text.GUI_ClearPostMsg
                0x00000000e1812c7e       0x16 emodules/mod_orange/built-in.o
                0x00000000e1812c7e                GUI_ClearPostMsg
 .text.GUI_PostMsgHandle
                0x00000000e1812c94      0x748 emodules/mod_orange/built-in.o
                0x00000000e1812c94                GUI_PostMsgHandle
 .text.InitMsgQueue
                0x00000000e18133dc       0xb0 emodules/mod_orange/built-in.o
                0x00000000e18133dc                InitMsgQueue
 .text.DestroyMsgQueue
                0x00000000e181348c       0x70 emodules/mod_orange/built-in.o
                0x00000000e181348c                DestroyMsgQueue
 .text.GUI_HavePendingMessage
                0x00000000e18134fc       0x72 emodules/mod_orange/built-in.o
                0x00000000e18134fc                GUI_HavePendingMessage
 .text.GUI_PostSyncMessage
                0x00000000e181356e       0x9a emodules/mod_orange/built-in.o
                0x00000000e181356e                GUI_PostSyncMessage
 .text.GUI_SendMessage
                0x00000000e1813608       0x6c emodules/mod_orange/built-in.o
                0x00000000e1813608                GUI_SendMessage
 .text.GUI_BroadcastMessage
                0x00000000e1813674       0x40 emodules/mod_orange/built-in.o
                0x00000000e1813674                GUI_BroadcastMessage
 .text.GUI_SendMessageTimeout
                0x00000000e18136b4       0x6c emodules/mod_orange/built-in.o
                0x00000000e18136b4                GUI_SendMessageTimeout
 .text.GUI_PostMessage
                0x00000000e1813720      0x142 emodules/mod_orange/built-in.o
                0x00000000e1813720                GUI_PostMessage
 .text.GUI_SendNotifyMessage
                0x00000000e1813862       0xac emodules/mod_orange/built-in.o
                0x00000000e1813862                GUI_SendNotifyMessage
 .text.GUI_GetMessage
                0x00000000e181390e      0x444 emodules/mod_orange/built-in.o
                0x00000000e181390e                GUI_GetMessage
 .text.GUI_GetMessageEx
                0x00000000e1813d52      0x418 emodules/mod_orange/built-in.o
                0x00000000e1813d52                GUI_GetMessageEx
 .text.GUI_QueryMessage
                0x00000000e181416a       0x40 emodules/mod_orange/built-in.o
                0x00000000e181416a                GUI_QueryMessage
 .text.GUI_MsgSetRepeatTimes
                0x00000000e18141aa       0x32 emodules/mod_orange/built-in.o
                0x00000000e18141aa                GUI_MsgSetRepeatTimes
 .text.GUI_PeekMessage
                0x00000000e18141dc       0xca emodules/mod_orange/built-in.o
                0x00000000e18141dc                GUI_PeekMessage
 .text.GUI_DispatchMessage
                0x00000000e18142a6       0x68 emodules/mod_orange/built-in.o
                0x00000000e18142a6                GUI_DispatchMessage
 .text.GUI_PostQuitMessage
                0x00000000e181430e       0x66 emodules/mod_orange/built-in.o
                0x00000000e181430e                GUI_PostQuitMessage
 .text.GUI_SendAsyncMessage
                0x00000000e1814374       0x22 emodules/mod_orange/built-in.o
                0x00000000e1814374                GUI_SendAsyncMessage
 .text.GUI_ThrowAwayMessages
                0x00000000e1814396      0x10a emodules/mod_orange/built-in.o
                0x00000000e1814396                GUI_ThrowAwayMessages
 .text.GUI_SetSyncMsgRetVal
                0x00000000e18144a0        0xa emodules/mod_orange/built-in.o
                0x00000000e18144a0                GUI_SetSyncMsgRetVal
 .text.GUI_PostSyncSem
                0x00000000e18144aa       0x1a emodules/mod_orange/built-in.o
                0x00000000e18144aa                GUI_PostSyncSem
 .text.GUI_Setfocus_helper
                0x00000000e18144c4       0x88 emodules/mod_orange/built-in.o
 .text.GUI_InvalidateRect
                0x00000000e181454c       0x26 emodules/mod_orange/built-in.o
                0x00000000e181454c                GUI_InvalidateRect
 .text.GUI_WinUpdate
                0x00000000e1814572        0x8 emodules/mod_orange/built-in.o
                0x00000000e1814572                GUI_WinUpdate
 .text.GUI_WinShow
                0x00000000e181457a       0x3c emodules/mod_orange/built-in.o
                0x00000000e181457a                GUI_WinShow
 .text.GUI_WinThreadCleanup
                0x00000000e18145b6       0x76 emodules/mod_orange/built-in.o
                0x00000000e18145b6                GUI_WinThreadCleanup
 .text.GUI_WinGetStyle
                0x00000000e181462c        0xa emodules/mod_orange/built-in.o
                0x00000000e181462c                GUI_WinGetStyle
 .text.GUI_WinSetStyle
                0x00000000e1814636        0xc emodules/mod_orange/built-in.o
                0x00000000e1814636                GUI_WinSetStyle
 .text.GUI_WinGetExStyle
                0x00000000e1814642        0xa emodules/mod_orange/built-in.o
                0x00000000e1814642                GUI_WinGetExStyle
 .text.GUI_WinSetExStyle
                0x00000000e181464c        0xc emodules/mod_orange/built-in.o
                0x00000000e181464c                GUI_WinSetExStyle
 .text.GUI_WinIsAncestor
                0x00000000e1814658       0x1e emodules/mod_orange/built-in.o
                0x00000000e1814658                GUI_WinIsAncestor
 .text.GUI_WinIsChild
                0x00000000e1814676       0x10 emodules/mod_orange/built-in.o
                0x00000000e1814676                GUI_WinIsChild
 .text.GUI_WinSetCallback
                0x00000000e1814686       0x32 emodules/mod_orange/built-in.o
                0x00000000e1814686                GUI_WinSetCallback
 .text.GUI_WinGetCallback
                0x00000000e18146b8       0x24 emodules/mod_orange/built-in.o
                0x00000000e18146b8                GUI_WinGetCallback
 .text.GUI_WinSetCaptureWin
                0x00000000e18146dc       0x2c emodules/mod_orange/built-in.o
                0x00000000e18146dc                GUI_WinSetCaptureWin
 .text.GUI_WinGetCaptureWin
                0x00000000e1814708        0xc emodules/mod_orange/built-in.o
                0x00000000e1814708                GUI_WinGetCaptureWin
 .text.GUI_WinReleaseCapture
                0x00000000e1814714       0x18 emodules/mod_orange/built-in.o
                0x00000000e1814714                GUI_WinReleaseCapture
 .text.GUI_WinSetTouchFocus
                0x00000000e181472c       0x2c emodules/mod_orange/built-in.o
                0x00000000e181472c                GUI_WinSetTouchFocus
 .text.GUI_WinGetTouchFocus
                0x00000000e1814758        0xc emodules/mod_orange/built-in.o
                0x00000000e1814758                GUI_WinGetTouchFocus
 .text.GUI_WinReleaseTouchFocus
                0x00000000e1814764       0x18 emodules/mod_orange/built-in.o
                0x00000000e1814764                GUI_WinReleaseTouchFocus
 .text.GUI_WinGetRootWin
                0x00000000e181477c        0xc emodules/mod_orange/built-in.o
                0x00000000e181477c                GUI_WinGetRootWin
 .text.GUI_WinGetMainManWin
                0x00000000e1814788       0x54 emodules/mod_orange/built-in.o
                0x00000000e1814788                GUI_WinGetMainManWin
 .text.GUI_WinGetManWin
                0x00000000e18147dc       0x46 emodules/mod_orange/built-in.o
                0x00000000e18147dc                GUI_WinGetManWin
 .text.GUI_WinGetLyrWin
                0x00000000e1814822       0x2c emodules/mod_orange/built-in.o
                0x00000000e1814822                GUI_WinGetLyrWin
 .text.GUI_WinGetFrmWin
                0x00000000e181484e       0x3a emodules/mod_orange/built-in.o
                0x00000000e181484e                GUI_WinGetFrmWin
 .text.GUI_WinGetParent
                0x00000000e1814888        0x6 emodules/mod_orange/built-in.o
                0x00000000e1814888                GUI_WinGetParent
 .text.GUI_WinGetFirstChild
                0x00000000e181488e       0x20 emodules/mod_orange/built-in.o
                0x00000000e181488e                GUI_WinGetFirstChild
 .text.GUI_WinGetWinRECT
                0x00000000e18148ae       0x28 emodules/mod_orange/built-in.o
                0x00000000e18148ae                GUI_WinGetWinRECT
 .text.GUI_WinSetWinRECT
                0x00000000e18148d6       0x28 emodules/mod_orange/built-in.o
                0x00000000e18148d6                GUI_WinSetWinRECT
 .text.GUI_WinGetClientRECT
                0x00000000e18148fe       0x2a emodules/mod_orange/built-in.o
                0x00000000e18148fe                GUI_WinGetClientRECT
 .text.GUI_WinSetClientRECT
                0x00000000e1814928       0x2a emodules/mod_orange/built-in.o
                0x00000000e1814928                GUI_WinSetClientRECT
 .text.GUI_WinGetFocusChild
                0x00000000e1814952        0x6 emodules/mod_orange/built-in.o
                0x00000000e1814952                GUI_WinGetFocusChild
 .text.GUI_WinSetFocusChild
                0x00000000e1814958       0x56 emodules/mod_orange/built-in.o
                0x00000000e1814958                GUI_WinSetFocusChild
 .text.GUI_WinSetActiveChild
                0x00000000e18149ae        0x4 emodules/mod_orange/built-in.o
                0x00000000e18149ae                GUI_WinSetActiveChild
 .text.GUI_WinGetNextBro
                0x00000000e18149b2        0x6 emodules/mod_orange/built-in.o
                0x00000000e18149b2                GUI_WinGetNextBro
 .text.GUI_WinGetOwnerWin
                0x00000000e18149b8       0x22 emodules/mod_orange/built-in.o
                0x00000000e18149b8                GUI_WinGetOwnerWin
 .text.GUI_RootWinProc.part.3
                0x00000000e18149da       0x34 emodules/mod_orange/built-in.o
 .text.GUI_RootWinProc
                0x00000000e1814a0e       0x52 emodules/mod_orange/built-in.o
 .text.GUI_WinGetFirstHostedWin
                0x00000000e1814a60       0x22 emodules/mod_orange/built-in.o
                0x00000000e1814a60                GUI_WinGetFirstHostedWin
 .text.GUI_WinGetNextHostedWin
                0x00000000e1814a82       0x22 emodules/mod_orange/built-in.o
                0x00000000e1814a82                GUI_WinGetNextHostedWin
 .text.GUI_WinGetType
                0x00000000e1814aa4       0x18 emodules/mod_orange/built-in.o
                0x00000000e1814aa4                GUI_WinGetType
 .text.GUI_WinIsVisible
                0x00000000e1814abc       0x38 emodules/mod_orange/built-in.o
                0x00000000e1814abc                GUI_WinIsVisible
 .text.GUI_WinGetName
                0x00000000e1814af4       0x20 emodules/mod_orange/built-in.o
                0x00000000e1814af4                GUI_WinGetName
 .text.GUI_WinGetChildFromName
                0x00000000e1814b14       0x3e emodules/mod_orange/built-in.o
                0x00000000e1814b14                GUI_WinGetChildFromName
 .text.GUI_WinGetHandFromName
                0x00000000e1814b52       0x16 emodules/mod_orange/built-in.o
                0x00000000e1814b52                GUI_WinGetHandFromName
 .text.GUI_WinGetPrimitiveWin
                0x00000000e1814b68       0x1a emodules/mod_orange/built-in.o
                0x00000000e1814b68                GUI_WinGetPrimitiveWin
 .text.GUI_WinGetAttr
                0x00000000e1814b82       0x22 emodules/mod_orange/built-in.o
                0x00000000e1814b82                GUI_WinGetAttr
 .text.GUI_WinSetAttr
                0x00000000e1814ba4       0x2a emodules/mod_orange/built-in.o
                0x00000000e1814ba4                GUI_WinSetAttr
 .text.GUI_WinGetAddData
                0x00000000e1814bce       0x18 emodules/mod_orange/built-in.o
                0x00000000e1814bce                GUI_WinGetAddData
 .text.GUI_WinSetAddData
                0x00000000e1814be6       0x14 emodules/mod_orange/built-in.o
                0x00000000e1814be6                GUI_WinSetAddData
 .text.GUI_WinGetClient
                0x00000000e1814bfa       0x2e emodules/mod_orange/built-in.o
                0x00000000e1814bfa                GUI_WinGetClient
 .text.GUI_WinGetDlgItem
                0x00000000e1814c28       0x14 emodules/mod_orange/built-in.o
                0x00000000e1814c28                GUI_WinGetDlgItem
 .text.GUI_WinGetHandFromId
                0x00000000e1814c3c       0x14 emodules/mod_orange/built-in.o
                0x00000000e1814c3c                GUI_WinGetHandFromId
 .text.GUI_WinGetItemId
                0x00000000e1814c50        0x4 emodules/mod_orange/built-in.o
                0x00000000e1814c50                GUI_WinGetItemId
 .text.GUI_WinGetMsgQueue
                0x00000000e1814c54       0x3a emodules/mod_orange/built-in.o
                0x00000000e1814c54                GUI_WinGetMsgQueue
 .text.GUI_WinGetWinThreadId
                0x00000000e1814c8e       0x38 emodules/mod_orange/built-in.o
                0x00000000e1814c8e                GUI_WinGetWinThreadId
 .text.GUI_CreateAutoPanel
                0x00000000e1814cc6        0x4 emodules/mod_orange/built-in.o
                0x00000000e1814cc6                GUI_CreateAutoPanel
 .text.GUI_DestroyAutoPanel
                0x00000000e1814cca        0x4 emodules/mod_orange/built-in.o
                0x00000000e1814cca                GUI_DestroyAutoPanel
 .text.GUI_WinInit
                0x00000000e1814cce       0x40 emodules/mod_orange/built-in.o
                0x00000000e1814cce                GUI_WinInit
 .text.GUI_WinExit
                0x00000000e1814d0e       0x1a emodules/mod_orange/built-in.o
                0x00000000e1814d0e                GUI_WinExit
 .text.GUI_WinSetNotifyCallback
                0x00000000e1814d28       0x44 emodules/mod_orange/built-in.o
                0x00000000e1814d28                GUI_WinSetNotifyCallback
 .text.GUI_WinGetNotifyCallback
                0x00000000e1814d6c       0x1e emodules/mod_orange/built-in.o
                0x00000000e1814d6c                GUI_WinGetNotifyCallback
 .text.GUI_NotifyParent
                0x00000000e1814d8a       0x4a emodules/mod_orange/built-in.o
                0x00000000e1814d8a                GUI_NotifyParent
 .text.remove_window
                0x00000000e1814dd4       0x26 emodules/mod_orange/built-in.o
 .text.GUI_LyrGetPrio
                0x00000000e1814dfa       0x24 emodules/mod_orange/built-in.o
                0x00000000e1814dfa                GUI_LyrGetPrio
 .text.Layer_AttachToVisableList
                0x00000000e1814e1e       0xa2 emodules/mod_orange/built-in.o
                0x00000000e1814e1e                Layer_AttachToVisableList
 .text.Layer_DeattachFromVisList
                0x00000000e1814ec0       0x60 emodules/mod_orange/built-in.o
                0x00000000e1814ec0                Layer_DeattachFromVisList
 .text.Layer_AttachToInVisList
                0x00000000e1814f20       0x40 emodules/mod_orange/built-in.o
                0x00000000e1814f20                Layer_AttachToInVisList
 .text.Layer_DeattachFromInVisList
                0x00000000e1814f60       0x64 emodules/mod_orange/built-in.o
                0x00000000e1814f60                Layer_DeattachFromInVisList
 .text.Layer_ListSetTop
                0x00000000e1814fc4       0x62 emodules/mod_orange/built-in.o
                0x00000000e1814fc4                Layer_ListSetTop
 .text.Layer_ListSetBottom
                0x00000000e1815026       0x88 emodules/mod_orange/built-in.o
                0x00000000e1815026                Layer_ListSetBottom
 .text.GUI_WinAddNewHostedWin
                0x00000000e18150ae       0x4c emodules/mod_orange/built-in.o
                0x00000000e18150ae                GUI_WinAddNewHostedWin
 .text.GUI_WinRemoveHostedWin
                0x00000000e18150fa       0x64 emodules/mod_orange/built-in.o
                0x00000000e18150fa                GUI_WinRemoveHostedWin
 .text.Win_AttachToParent
                0x00000000e181515e       0x20 emodules/mod_orange/built-in.o
                0x00000000e181515e                Win_AttachToParent
 .text.Win_DeattachFromParent
                0x00000000e181517e       0x3e emodules/mod_orange/built-in.o
                0x00000000e181517e                Win_DeattachFromParent
 .text.Win_AttachToZorder
                0x00000000e18151bc       0x42 emodules/mod_orange/built-in.o
                0x00000000e18151bc                Win_AttachToZorder
 .text.Win_DeattachFromZorder
                0x00000000e18151fe       0x2a emodules/mod_orange/built-in.o
                0x00000000e18151fe                Win_DeattachFromZorder
 .text.GUI_FrameWinToScreen
                0x00000000e1815228       0xa0 emodules/mod_orange/built-in.o
                0x00000000e1815228                GUI_FrameWinToScreen
 .text.GUI_ClientToScreen
                0x00000000e18152c8       0x74 emodules/mod_orange/built-in.o
                0x00000000e18152c8                GUI_ClientToScreen
 .text.GUI_ScreenToClient
                0x00000000e181533c       0x4a emodules/mod_orange/built-in.o
                0x00000000e181533c                GUI_ScreenToClient
 .text.GUI_WindowToScreen
                0x00000000e1815386       0x4a emodules/mod_orange/built-in.o
                0x00000000e1815386                GUI_WindowToScreen
 .text.GUI_ScreenToWindow
                0x00000000e18153d0       0x5c emodules/mod_orange/built-in.o
                0x00000000e18153d0                GUI_ScreenToWindow
 .text.GUI_FBToScreen
                0x00000000e181542c       0x38 emodules/mod_orange/built-in.o
                0x00000000e181542c                GUI_FBToScreen
 .text.GUI_ScreenToFB
                0x00000000e1815464       0x22 emodules/mod_orange/built-in.o
                0x00000000e1815464                GUI_ScreenToFB
 .text.GUI_WinGetClientFBRect
                0x00000000e1815486       0x52 emodules/mod_orange/built-in.o
                0x00000000e1815486                GUI_WinGetClientFBRect
 .text.GUI_WinGetWinFBRect
                0x00000000e18154d8       0x44 emodules/mod_orange/built-in.o
                0x00000000e18154d8                GUI_WinGetWinFBRect
 .text.GUI_WinCreate
                0x00000000e181551c      0x168 emodules/mod_orange/built-in.o
                0x00000000e181551c                GUI_WinCreate
 .text.GUI_WinDelete
                0x00000000e1815684      0x14c emodules/mod_orange/built-in.o
                0x00000000e1815684                GUI_WinDelete
 .text.GUI_Win_Lock
                0x00000000e18157d0       0x1e emodules/mod_orange/built-in.o
                0x00000000e18157d0                GUI_Win_Lock
 .text.GUI_Win_Unlock
                0x00000000e18157ee        0xe emodules/mod_orange/built-in.o
                0x00000000e18157ee                GUI_Win_Unlock
 .text.GUI_WinUnlock
                0x00000000e18157fc       0x68 emodules/mod_orange/built-in.o
                0x00000000e18157fc                GUI_WinUnlock
 .text.GUI_WinLock
                0x00000000e1815864       0xa6 emodules/mod_orange/built-in.o
                0x00000000e1815864                GUI_WinLock
 .text.GUI_CtrlWinGetAddData
                0x00000000e181590a       0x24 emodules/mod_orange/built-in.o
                0x00000000e181590a                GUI_CtrlWinGetAddData
 .text.GUI_CtrlWinSetAddData
                0x00000000e181592e       0x22 emodules/mod_orange/built-in.o
                0x00000000e181592e                GUI_CtrlWinSetAddData
 .text.GUI_CtrlWinDefaultProc
                0x00000000e1815950        0x4 emodules/mod_orange/built-in.o
                0x00000000e1815950                GUI_CtrlWinDefaultProc
 .text.GUI_CtrlWinGetClassName
                0x00000000e1815954       0x26 emodules/mod_orange/built-in.o
                0x00000000e1815954                GUI_CtrlWinGetClassName
 .text.GUI_CtrlWinCreate
                0x00000000e181597a      0x1f6 emodules/mod_orange/built-in.o
                0x00000000e181597a                GUI_CtrlWinCreate
 .text.GUI_CtrlWinDelete
                0x00000000e1815b70       0x58 emodules/mod_orange/built-in.o
                0x00000000e1815b70                GUI_CtrlWinDelete
 .text.GUI_DlgGetFirstButton
                0x00000000e1815bc8       0x32 emodules/mod_orange/built-in.o
                0x00000000e1815bc8                GUI_DlgGetFirstButton
 .text.GUI_GetNextDlgTabItem
                0x00000000e1815bfa       0x92 emodules/mod_orange/built-in.o
                0x00000000e1815bfa                GUI_GetNextDlgTabItem
 .text.GUI_ModuleDialogCreate
                0x00000000e1815c8c      0x142 emodules/mod_orange/built-in.o
                0x00000000e1815c8c                GUI_ModuleDialogCreate
 .text.GUI_EndDialog
                0x00000000e1815dce       0x30 emodules/mod_orange/built-in.o
                0x00000000e1815dce                GUI_EndDialog
 .text.GUI_GetDlgItem
                0x00000000e1815dfe       0x10 emodules/mod_orange/built-in.o
                0x00000000e1815dfe                GUI_GetDlgItem
 .text.GUI_DialogDefaultProc
                0x00000000e1815e0e      0x1b4 emodules/mod_orange/built-in.o
                0x00000000e1815e0e                GUI_DialogDefaultProc
 .text.GUI_ModulelessDialogCreate
                0x00000000e1815fc2      0x12c emodules/mod_orange/built-in.o
                0x00000000e1815fc2                GUI_ModulelessDialogCreate
 .text.GUI_ModulelessDialogDelete
                0x00000000e18160ee       0x28 emodules/mod_orange/built-in.o
                0x00000000e18160ee                GUI_ModulelessDialogDelete
 .text.GUI_FrmWinDefaultProc
                0x00000000e1816116        0x4 emodules/mod_orange/built-in.o
                0x00000000e1816116                GUI_FrmWinDefaultProc
 .text.GUI_FrmWinDestroyAllCtrlWins
                0x00000000e181611a       0x1e emodules/mod_orange/built-in.o
                0x00000000e181611a                GUI_FrmWinDestroyAllCtrlWins
 .text.GUI_FrmWinCreate
                0x00000000e1816138      0x168 emodules/mod_orange/built-in.o
                0x00000000e1816138                GUI_FrmWinCreate
 .text.GUI_FrmWinDelete
                0x00000000e18162a0       0x46 emodules/mod_orange/built-in.o
                0x00000000e18162a0                GUI_FrmWinDelete
 .text.GUI_CursorCreate
                0x00000000e18162e6        0x4 emodules/mod_orange/built-in.o
                0x00000000e18162e6                GUI_CursorCreate
 .text.GUI_CursorDelete
                0x00000000e18162ea        0x4 emodules/mod_orange/built-in.o
                0x00000000e18162ea                GUI_CursorDelete
 .text.GUI_CursorShow
                0x00000000e18162ee        0x4 emodules/mod_orange/built-in.o
                0x00000000e18162ee                GUI_CursorShow
 .text.GUI_CursorHide
                0x00000000e18162f2        0x4 emodules/mod_orange/built-in.o
                0x00000000e18162f2                GUI_CursorHide
 .text.GUI_CursorSetPos
                0x00000000e18162f6        0x4 emodules/mod_orange/built-in.o
                0x00000000e18162f6                GUI_CursorSetPos
 .text.GUI_CursorGetPos
                0x00000000e18162fa        0x4 emodules/mod_orange/built-in.o
                0x00000000e18162fa                GUI_CursorGetPos
 .text.GUI_CursorSetPara
                0x00000000e18162fe        0x4 emodules/mod_orange/built-in.o
                0x00000000e18162fe                GUI_CursorSetPara
 .text.GUI_FBSuspend
                0x00000000e1816302       0x6c emodules/mod_orange/built-in.o
                0x00000000e1816302                GUI_FBSuspend
 .text.GUI_FBResume
                0x00000000e181636e      0x12a emodules/mod_orange/built-in.o
                0x00000000e181636e                GUI_FBResume
 .text.GUI_FBFlushCache
                0x00000000e1816498       0x5a emodules/mod_orange/built-in.o
                0x00000000e1816498                GUI_FBFlushCache
 .text.GUI_FBGetStatus
                0x00000000e18164f2        0xe emodules/mod_orange/built-in.o
                0x00000000e18164f2                GUI_FBGetStatus
 .text.GUI_LogicToPhysicalConvert
                0x00000000e1816500       0x7a emodules/mod_orange/built-in.o
 .text.GUI_LogicLayerSetScnWin
                0x00000000e181657a       0xfe emodules/mod_orange/built-in.o
                0x00000000e181657a                GUI_LogicLayerSetScnWin
 .text.GUI_LogicLayerSetSrcWin
                0x00000000e1816678       0xda emodules/mod_orange/built-in.o
                0x00000000e1816678                GUI_LogicLayerSetSrcWin
 .text.GUI_LogicLayerRequest
                0x00000000e1816752      0x1fc emodules/mod_orange/built-in.o
                0x00000000e1816752                GUI_LogicLayerRequest
 .text.GUI_LyrWinSetSrcWindow
                0x00000000e181694e       0x42 emodules/mod_orange/built-in.o
                0x00000000e181694e                GUI_LyrWinSetSrcWindow
 .text.GUI_LyrWinSetScnWindow
                0x00000000e1816990       0x52 emodules/mod_orange/built-in.o
                0x00000000e1816990                GUI_LyrWinSetScnWindow
 .text.GUI_LyrWinGetSrcWindow
                0x00000000e18169e2       0x34 emodules/mod_orange/built-in.o
                0x00000000e18169e2                GUI_LyrWinGetSrcWindow
 .text.GUI_LyrWinGetScnWindow
                0x00000000e1816a16       0x34 emodules/mod_orange/built-in.o
                0x00000000e1816a16                GUI_LyrWinGetScnWindow
 .text.GUI_LyrWinGetFB
                0x00000000e1816a4a       0x38 emodules/mod_orange/built-in.o
                0x00000000e1816a4a                GUI_LyrWinGetFB
 .text.GUI_LyrWinSetFB
                0x00000000e1816a82       0x48 emodules/mod_orange/built-in.o
                0x00000000e1816a82                GUI_LyrWinSetFB
 .text.GUI_LyrWinGetSta
                0x00000000e1816aca       0x26 emodules/mod_orange/built-in.o
                0x00000000e1816aca                GUI_LyrWinGetSta
 .text.GUI_LyrWinSetSta
                0x00000000e1816af0      0x43e emodules/mod_orange/built-in.o
                0x00000000e1816af0                GUI_LyrWinSetSta
 .text.GUI_LyrWinSel
                0x00000000e1816f2e       0x26 emodules/mod_orange/built-in.o
                0x00000000e1816f2e                GUI_LyrWinSel
 .text.GUI_LyrWinFlushFB
                0x00000000e1816f54       0x50 emodules/mod_orange/built-in.o
                0x00000000e1816f54                GUI_LyrWinFlushFB
 .text.GUI_LyrWinCreate
                0x00000000e1816fa4      0x138 emodules/mod_orange/built-in.o
                0x00000000e1816fa4                GUI_LyrWinCreate
 .text.GUI_LyrWinDelete
                0x00000000e18170dc       0xd8 emodules/mod_orange/built-in.o
                0x00000000e18170dc                GUI_LyrWinDelete
 .text.GUI_LyrWinSetAlpha
                0x00000000e18171b4       0x1a emodules/mod_orange/built-in.o
                0x00000000e18171b4                GUI_LyrWinSetAlpha
 .text.GUI_LyrWinAlphaOn
                0x00000000e18171ce       0x1a emodules/mod_orange/built-in.o
                0x00000000e18171ce                GUI_LyrWinAlphaOn
 .text.GUI_LyrWinAlphaOff
                0x00000000e18171e8        0x4 emodules/mod_orange/built-in.o
                0x00000000e18171e8                GUI_LyrWinAlphaOff
 .text.GUI_LyrWinCacheOn
                0x00000000e18171ec       0x60 emodules/mod_orange/built-in.o
                0x00000000e18171ec                GUI_LyrWinCacheOn
 .text.GUI_LyrWinCacheOff
                0x00000000e181724c       0x60 emodules/mod_orange/built-in.o
                0x00000000e181724c                GUI_LyrWinCacheOff
 .text.GUI_LyrWinCKOn
                0x00000000e18172ac        0x4 emodules/mod_orange/built-in.o
                0x00000000e18172ac                GUI_LyrWinCKOn
 .text.GUI_LyrWinCKOff
                0x00000000e18172b0        0x4 emodules/mod_orange/built-in.o
                0x00000000e18172b0                GUI_LyrWinCKOff
 .text.GUI_LyrLock
                0x00000000e18172b4        0x2 emodules/mod_orange/built-in.o
                0x00000000e18172b4                GUI_LyrLock
 .text.GUI_LyrUnlock
                0x00000000e18172b6        0x2 emodules/mod_orange/built-in.o
                0x00000000e18172b6                GUI_LyrUnlock
 .text.GUI_LyrLockAccept
                0x00000000e18172b8        0x4 emodules/mod_orange/built-in.o
                0x00000000e18172b8                GUI_LyrLockAccept
 .text.GUI_LyrInitOS
                0x00000000e18172bc        0x6 emodules/mod_orange/built-in.o
                0x00000000e18172bc                GUI_LyrInitOS
 .text.GUI_LyrMove
                0x00000000e18172c2       0x68 emodules/mod_orange/built-in.o
                0x00000000e18172c2                GUI_LyrMove
 .text.GUI_LyrWinSetBottom
                0x00000000e181732a       0x2c emodules/mod_orange/built-in.o
                0x00000000e181732a                GUI_LyrWinSetBottom
 .text.GUI_LyrWinSetTop
                0x00000000e1817356       0x2c emodules/mod_orange/built-in.o
                0x00000000e1817356                GUI_LyrWinSetTop
 .text.GUI_DefOtherMsgHandler
                0x00000000e1817382      0x190 emodules/mod_orange/built-in.o
 .text.GUI_GetActiveManWin
                0x00000000e1817512        0xc emodules/mod_orange/built-in.o
                0x00000000e1817512                GUI_GetActiveManWin
 .text.GUI_SetActiveManWin
                0x00000000e181751e       0x56 emodules/mod_orange/built-in.o
                0x00000000e181751e                GUI_SetActiveManWin
 .text.GUI_GetLayerFrameWinUnderPoint
                0x00000000e1817574       0xa0 emodules/mod_orange/built-in.o
                0x00000000e1817574                GUI_GetLayerFrameWinUnderPoint
 .text.GUI_GetFrameWinUnderPointEx
                0x00000000e1817614       0xc4 emodules/mod_orange/built-in.o
                0x00000000e1817614                GUI_GetFrameWinUnderPointEx
 .text.GUI_GetWinUnderPoint
                0x00000000e18176d8      0x104 emodules/mod_orange/built-in.o
                0x00000000e18176d8                GUI_GetWinUnderPoint
 .text.GUI_DefTouchMsgHandler
                0x00000000e18177dc      0x28c emodules/mod_orange/built-in.o
 .text.GUI_ManWinDefaultProc
                0x00000000e1817a68       0x54 emodules/mod_orange/built-in.o
                0x00000000e1817a68                GUI_ManWinDefaultProc
 .text.GUI_GetTouchFocusWin
                0x00000000e1817abc       0x66 emodules/mod_orange/built-in.o
                0x00000000e1817abc                GUI_GetTouchFocusWin
 .text.GUI_SceenPointInWin
                0x00000000e1817b22       0xdc emodules/mod_orange/built-in.o
                0x00000000e1817b22                GUI_SceenPointInWin
 .text.GUI_ManWinCreate
                0x00000000e1817bfe      0x168 emodules/mod_orange/built-in.o
                0x00000000e1817bfe                GUI_ManWinCreate
 .text.GUI_ManWinDelete
                0x00000000e1817d66       0x2c emodules/mod_orange/built-in.o
                0x00000000e1817d66                GUI_ManWinDelete
 .text.GUI_InitControlClass
                0x00000000e1817d92       0x1a emodules/mod_orange/built-in.o
                0x00000000e1817d92                GUI_InitControlClass
 .text.GUI_GetControlClassInfo
                0x00000000e1817dac       0x30 emodules/mod_orange/built-in.o
                0x00000000e1817dac                GUI_GetControlClassInfo
 .text.GUI_GetCtrlClassAddData
                0x00000000e1817ddc       0x1e emodules/mod_orange/built-in.o
                0x00000000e1817ddc                GUI_GetCtrlClassAddData
 .text.GUI_SetCtrlClassAddData
                0x00000000e1817dfa       0x1c emodules/mod_orange/built-in.o
                0x00000000e1817dfa                GUI_SetCtrlClassAddData
 .text.GUI_AddNewControlClass
                0x00000000e1817e16       0x68 emodules/mod_orange/built-in.o
                0x00000000e1817e16                GUI_AddNewControlClass
 .text.GUI_DeleteControlClass
                0x00000000e1817e7e       0x6e emodules/mod_orange/built-in.o
                0x00000000e1817e7e                GUI_DeleteControlClass
 .text.GUI_EmptyControlClassInfoTable
                0x00000000e1817eec       0x40 emodules/mod_orange/built-in.o
                0x00000000e1817eec                GUI_EmptyControlClassInfoTable
 .text.GUI_TerminateControlClass
                0x00000000e1817f2c        0x4 emodules/mod_orange/built-in.o
                0x00000000e1817f2c                GUI_TerminateControlClass
 .text.ButtonCtrlProc
                0x00000000e1817f30      0x5b2 emodules/mod_orange/built-in.o
 .text.RegisterButtonControl
                0x00000000e18184e2       0x2c emodules/mod_orange/built-in.o
                0x00000000e18184e2                RegisterButtonControl
 .text.GUI_ButtonSetFocusBmp
                0x00000000e181850e       0x26 emodules/mod_orange/built-in.o
                0x00000000e181850e                GUI_ButtonSetFocusBmp
 .text.GUI_ButtonSetUnFocusBmp
                0x00000000e1818534       0x26 emodules/mod_orange/built-in.o
                0x00000000e1818534                GUI_ButtonSetUnFocusBmp
 .text.GUI_ButtonSetText
                0x00000000e181855a       0x26 emodules/mod_orange/built-in.o
                0x00000000e181855a                GUI_ButtonSetText
 .text.GUI_ButtonSetUnFcsTxtColor
                0x00000000e1818580       0x20 emodules/mod_orange/built-in.o
                0x00000000e1818580                GUI_ButtonSetUnFcsTxtColor
 .text.GUI_ButtonSetFcsTxtColor
                0x00000000e18185a0       0x20 emodules/mod_orange/built-in.o
                0x00000000e18185a0                GUI_ButtonSetFcsTxtColor
 .text.GUI_ButtonSetBkColor
                0x00000000e18185c0       0x20 emodules/mod_orange/built-in.o
                0x00000000e18185c0                GUI_ButtonSetBkColor
 .text.GUI_ButtonSetBmpPos
                0x00000000e18185e0       0x2c emodules/mod_orange/built-in.o
                0x00000000e18185e0                GUI_ButtonSetBmpPos
 .text.GUI_ButtonSetTxtPos
                0x00000000e181860c       0x2c emodules/mod_orange/built-in.o
                0x00000000e181860c                GUI_ButtonSetTxtPos
 .text.StaticCtrlProc
                0x00000000e1818638      0x394 emodules/mod_orange/built-in.o
 .text.RegisterStaticControl
                0x00000000e18189cc       0x2c emodules/mod_orange/built-in.o
                0x00000000e18189cc                RegisterStaticControl
 .text.GUI_StaticSetFocusBmp
                0x00000000e18189f8       0x26 emodules/mod_orange/built-in.o
                0x00000000e18189f8                GUI_StaticSetFocusBmp
 .text.GUI_StaticSetUnFocusBmp
                0x00000000e1818a1e       0x26 emodules/mod_orange/built-in.o
                0x00000000e1818a1e                GUI_StaticSetUnFocusBmp
 .text.GUI_StaticSetText
                0x00000000e1818a44       0x26 emodules/mod_orange/built-in.o
                0x00000000e1818a44                GUI_StaticSetText
 .text.GUI_StaticSetUnFcsTxtColor
                0x00000000e1818a6a       0x20 emodules/mod_orange/built-in.o
                0x00000000e1818a6a                GUI_StaticSetUnFcsTxtColor
 .text.GUI_StaticSetFcsTxtColor
                0x00000000e1818a8a       0x9e emodules/mod_orange/built-in.o
                0x00000000e1818a8a                GUI_StaticSetFcsTxtColor
 .text.GUI_StaticSetBmpPos
                0x00000000e1818b28       0x2c emodules/mod_orange/built-in.o
                0x00000000e1818b28                GUI_StaticSetBmpPos
 .text.GUI_StaticSetTxtPos
                0x00000000e1818b54       0x2c emodules/mod_orange/built-in.o
                0x00000000e1818b54                GUI_StaticSetTxtPos
 .text.GUI_StaticStartMove
                0x00000000e1818b80      0x106 emodules/mod_orange/built-in.o
                0x00000000e1818b80                GUI_StaticStartMove
 .text.GUI_StaticStopMove
                0x00000000e1818c86       0x22 emodules/mod_orange/built-in.o
                0x00000000e1818c86                GUI_StaticStopMove
 .text.GUI_StaticSetCharSet
                0x00000000e1818ca8       0x22 emodules/mod_orange/built-in.o
                0x00000000e1818ca8                GUI_StaticSetCharSet
 .text.lstmglidecuv_init
                0x00000000e1818cca       0x14 emodules/mod_orange/built-in.o
                0x00000000e1818cca                lstmglidecuv_init
 .text.lstmglidecuv_start
                0x00000000e1818cde        0xc emodules/mod_orange/built-in.o
                0x00000000e1818cde                lstmglidecuv_start
 .text.lstmglidecuv_move
                0x00000000e1818cea       0xca emodules/mod_orange/built-in.o
                0x00000000e1818cea                lstmglidecuv_move
 .text.lstmglidecuv_up
                0x00000000e1818db4      0x7d6 emodules/mod_orange/built-in.o
                0x00000000e1818db4                lstmglidecuv_up
 .text.ListLayer_BoxDelUpdateTail
                0x00000000e181958a      0x14a emodules/mod_orange/built-in.o
 .text.ListLayer_BoxDelUpdateHead
                0x00000000e18196d4       0x80 emodules/mod_orange/built-in.o
 .text.ListLayer_HeadToTailCopy
                0x00000000e1819754       0xe2 emodules/mod_orange/built-in.o
                0x00000000e1819754                ListLayer_HeadToTailCopy
 .text.ListLayer_TailToHeadCopy
                0x00000000e1819836       0xe2 emodules/mod_orange/built-in.o
                0x00000000e1819836                ListLayer_TailToHeadCopy
 .text.ListLayer_BoxDeleteMoveDown
                0x00000000e1819918       0xb2 emodules/mod_orange/built-in.o
                0x00000000e1819918                ListLayer_BoxDeleteMoveDown
 .text.ListLayer_BoxDelCurItem
                0x00000000e18199ca      0x268 emodules/mod_orange/built-in.o
                0x00000000e18199ca                ListLayer_BoxDelCurItem
 .text.ListLayer_VarBoxOnDraw
                0x00000000e1819c32      0x24c emodules/mod_orange/built-in.o
                0x00000000e1819c32                ListLayer_VarBoxOnDraw
 .text.ListLayer_FixedBoxOnDraw
                0x00000000e1819e7e      0x186 emodules/mod_orange/built-in.o
                0x00000000e1819e7e                ListLayer_FixedBoxOnDraw
 .text.ListLayer_BoxAddItemTail
                0x00000000e181a004      0x18a emodules/mod_orange/built-in.o
                0x00000000e181a004                ListLayer_BoxAddItemTail
 .text.ListBox_GetBufferStatus
                0x00000000e181a18e      0x19c emodules/mod_orange/built-in.o
                0x00000000e181a18e                ListBox_GetBufferStatus
 .text.ListBox_LoadItemThread
                0x00000000e181a32a      0x45a emodules/mod_orange/built-in.o
                0x00000000e181a32a                ListBox_LoadItemThread
 .text.ListBox_VarKeyUpMsg
                0x00000000e181a784      0x22c emodules/mod_orange/built-in.o
                0x00000000e181a784                ListBox_VarKeyUpMsg
 .text.ListBox_VarKeyDownMsg
                0x00000000e181a9b0      0x236 emodules/mod_orange/built-in.o
                0x00000000e181a9b0                ListBox_VarKeyDownMsg
 .text.ListBox_FixedKeyUpMsg
                0x00000000e181abe6      0x146 emodules/mod_orange/built-in.o
                0x00000000e181abe6                ListBox_FixedKeyUpMsg
 .text.ListBox_FixedKeyDownMsg
                0x00000000e181ad2c      0x13a emodules/mod_orange/built-in.o
                0x00000000e181ad2c                ListBox_FixedKeyDownMsg
 .text.ListBox_FlatVarMoveDownMsg
                0x00000000e181ae66      0x20e emodules/mod_orange/built-in.o
                0x00000000e181ae66                ListBox_FlatVarMoveDownMsg
 .text.ListBox_FlatVarMoveUpMsg
                0x00000000e181b074      0x23e emodules/mod_orange/built-in.o
                0x00000000e181b074                ListBox_FlatVarMoveUpMsg
 .text.ListBox_FlatFixedMoveUpMsg
                0x00000000e181b2b2      0x1b8 emodules/mod_orange/built-in.o
                0x00000000e181b2b2                ListBox_FlatFixedMoveUpMsg
 .text.ListBox_FlatFixedMoveDownMsg
                0x00000000e181b46a      0x194 emodules/mod_orange/built-in.o
                0x00000000e181b46a                ListBox_FlatFixedMoveDownMsg
 .text.ListBox_FlatMoveToDist
                0x00000000e181b5fe       0x72 emodules/mod_orange/built-in.o
                0x00000000e181b5fe                ListBox_FlatMoveToDist
 .text.ListBox_FlatMoveGetDist
                0x00000000e181b670       0x2e emodules/mod_orange/built-in.o
                0x00000000e181b670                ListBox_FlatMoveGetDist
 .text.ListBox_GetMoveStatus
                0x00000000e181b69e       0x4a emodules/mod_orange/built-in.o
                0x00000000e181b69e                ListBox_GetMoveStatus
 .text.ListBuffer_Create
                0x00000000e181b6e8        0xa emodules/mod_orange/built-in.o
                0x00000000e181b6e8                ListBuffer_Create
 .text.ListBuffer_Destroy
                0x00000000e181b6f2       0x1a emodules/mod_orange/built-in.o
                0x00000000e181b6f2                ListBuffer_Destroy
 .text.ListLayer_GetBPP
                0x00000000e181b70c       0x26 emodules/mod_orange/built-in.o
                0x00000000e181b70c                ListLayer_GetBPP
 .text.ListLayer_SwitchFB
                0x00000000e181b732       0x3e emodules/mod_orange/built-in.o
                0x00000000e181b732                ListLayer_SwitchFB
 .text.ListLayer_SwitchLyr
                0x00000000e181b770       0x3e emodules/mod_orange/built-in.o
                0x00000000e181b770                ListLayer_SwitchLyr
 .text.ListLayer_GetLayerInfo
                0x00000000e181b7ae       0x7e emodules/mod_orange/built-in.o
                0x00000000e181b7ae                ListLayer_GetLayerInfo
 .text.ListLayer_AdjustFb
                0x00000000e181b82c      0x146 emodules/mod_orange/built-in.o
                0x00000000e181b82c                ListLayer_AdjustFb
 .text.ListLayer_Create
                0x00000000e181b972      0x28a emodules/mod_orange/built-in.o
                0x00000000e181b972                ListLayer_Create
 .text.ListLayer_Destroy
                0x00000000e181bbfc       0xf6 emodules/mod_orange/built-in.o
                0x00000000e181bbfc                ListLayer_Destroy
 .text.ListLayer_FixedOnDraw
                0x00000000e181bcf2      0x124 emodules/mod_orange/built-in.o
                0x00000000e181bcf2                ListLayer_FixedOnDraw
 .text.ListLayer_VarOnDraw
                0x00000000e181be16      0x352 emodules/mod_orange/built-in.o
                0x00000000e181be16                ListLayer_VarOnDraw
 .text.ListLayer_OnDraw
                0x00000000e181c168       0xd4 emodules/mod_orange/built-in.o
                0x00000000e181c168                ListLayer_OnDraw
 .text.ListLayer_Wakeup
                0x00000000e181c23c       0x44 emodules/mod_orange/built-in.o
                0x00000000e181c23c                ListLayer_Wakeup
 .text.ListLayer_SetWinFoucs
                0x00000000e181c280       0x68 emodules/mod_orange/built-in.o
                0x00000000e181c280                ListLayer_SetWinFoucs
 .text.ListLayer_SetWinUnFoucs
                0x00000000e181c2e8       0x84 emodules/mod_orange/built-in.o
                0x00000000e181c2e8                ListLayer_SetWinUnFoucs
 .text.ListLayer_DelUpdateHead
                0x00000000e181c36c      0x126 emodules/mod_orange/built-in.o
 .text.ListLayer_DelUpdateTail
                0x00000000e181c492      0x12e emodules/mod_orange/built-in.o
 .text.ListLayer_DelCurItem
                0x00000000e181c5c0      0x11c emodules/mod_orange/built-in.o
                0x00000000e181c5c0                ListLayer_DelCurItem
 .text.ListLayer_AddItemTail
                0x00000000e181c6dc      0x16c emodules/mod_orange/built-in.o
                0x00000000e181c6dc                ListLayer_AddItemTail
 .text._lstm_key_song
                0x00000000e181c848        0x2 emodules/mod_orange/built-in.o
                0x00000000e181c848                _lstm_key_song
 .text.InterMove
                0x00000000e181c84a       0x3c emodules/mod_orange/built-in.o
                0x00000000e181c84a                InterMove
 .text.ListLayer_MenuItemUpdateChild
                0x00000000e181c886       0x80 emodules/mod_orange/built-in.o
                0x00000000e181c886                ListLayer_MenuItemUpdateChild
 .text.ListLayer_MenuItemCopy
                0x00000000e181c906      0x192 emodules/mod_orange/built-in.o
                0x00000000e181c906                ListLayer_MenuItemCopy
 .text.ListLayer_LoadMenuItem
                0x00000000e181ca98       0x54 emodules/mod_orange/built-in.o
                0x00000000e181ca98                ListLayer_LoadMenuItem
 .text.ListLayer_FastLoadMenuItem
                0x00000000e181caec       0x42 emodules/mod_orange/built-in.o
                0x00000000e181caec                ListLayer_FastLoadMenuItem
 .text.ListLayer_UnFoucsMenuItem
                0x00000000e181cb2e       0x58 emodules/mod_orange/built-in.o
                0x00000000e181cb2e                ListLayer_UnFoucsMenuItem
 .text.ListLayer_FastUnFoucsMenuItem
                0x00000000e181cb86       0x56 emodules/mod_orange/built-in.o
                0x00000000e181cb86                ListLayer_FastUnFoucsMenuItem
 .text.ListLayer_DrawFastFoucsMenuItem
                0x00000000e181cbdc       0x58 emodules/mod_orange/built-in.o
                0x00000000e181cbdc                ListLayer_DrawFastFoucsMenuItem
 .text.ListLayer_ClearMenuItem
                0x00000000e181cc34       0x44 emodules/mod_orange/built-in.o
                0x00000000e181cc34                ListLayer_ClearMenuItem
 .text.ListLayer_FastFoucsMenuItem
                0x00000000e181cc78       0x58 emodules/mod_orange/built-in.o
                0x00000000e181cc78                ListLayer_FastFoucsMenuItem
 .text.ListLayer_DrawFoucsMenuItem
                0x00000000e181ccd0       0x5c emodules/mod_orange/built-in.o
                0x00000000e181ccd0                ListLayer_DrawFoucsMenuItem
 .text.ListLayer_DrawActivedMenuItem
                0x00000000e181cd2c       0x5c emodules/mod_orange/built-in.o
                0x00000000e181cd2c                ListLayer_DrawActivedMenuItem
 .text.ListLayer_SetLayerFastFoucs
                0x00000000e181cd88       0x1a emodules/mod_orange/built-in.o
                0x00000000e181cd88                ListLayer_SetLayerFastFoucs
 .text.ListLayer_SetLayerFoucs
                0x00000000e181cda2       0x1a emodules/mod_orange/built-in.o
                0x00000000e181cda2                ListLayer_SetLayerFoucs
 .text.ListLayer_SetLayerUnFoucs
                0x00000000e181cdbc       0xba emodules/mod_orange/built-in.o
                0x00000000e181cdbc                ListLayer_SetLayerUnFoucs
 .text.ListLayer_DrawItemProcess
                0x00000000e181ce76      0x294 emodules/mod_orange/built-in.o
                0x00000000e181ce76                ListLayer_DrawItemProcess
 .text.ListLayer_GetBufferStatus
                0x00000000e181d10a      0x218 emodules/mod_orange/built-in.o
                0x00000000e181d10a                ListLayer_GetBufferStatus
 .text.ListLayer_LoadItemThread
                0x00000000e181d322      0x58a emodules/mod_orange/built-in.o
                0x00000000e181d322                ListLayer_LoadItemThread
 .text.ListLayer_FoucsItemThread
                0x00000000e181d8ac      0x11c emodules/mod_orange/built-in.o
                0x00000000e181d8ac                ListLayer_FoucsItemThread
 .text.ListLayer_VarKeyUpMsg
                0x00000000e181d9c8      0x254 emodules/mod_orange/built-in.o
                0x00000000e181d9c8                ListLayer_VarKeyUpMsg
 .text.ListLayer_VarKeyDownMsg
                0x00000000e181dc1c      0x240 emodules/mod_orange/built-in.o
                0x00000000e181dc1c                ListLayer_VarKeyDownMsg
 .text.ListLayer_FixedKeyUpMsg
                0x00000000e181de5c      0x148 emodules/mod_orange/built-in.o
                0x00000000e181de5c                ListLayer_FixedKeyUpMsg
 .text.ListLayer_FixedKeyDownMsg
                0x00000000e181dfa4      0x146 emodules/mod_orange/built-in.o
                0x00000000e181dfa4                ListLayer_FixedKeyDownMsg
 .text.ListLayer_FlatVarMoveDownMsg
                0x00000000e181e0ea      0x164 emodules/mod_orange/built-in.o
                0x00000000e181e0ea                ListLayer_FlatVarMoveDownMsg
 .text.ListLayer_FlatVarMoveUpMsg
                0x00000000e181e24e      0x16e emodules/mod_orange/built-in.o
                0x00000000e181e24e                ListLayer_FlatVarMoveUpMsg
 .text.ListLayer_FlatFixedMoveUpMsg
                0x00000000e181e3bc       0x96 emodules/mod_orange/built-in.o
                0x00000000e181e3bc                ListLayer_FlatFixedMoveUpMsg
 .text.ListLayer_FlatFixedMoveDownMsg
                0x00000000e181e452       0x94 emodules/mod_orange/built-in.o
                0x00000000e181e452                ListLayer_FlatFixedMoveDownMsg
 .text.ListLayer_KeyUpMsg
                0x00000000e181e4e6       0x3a emodules/mod_orange/built-in.o
                0x00000000e181e4e6                ListLayer_KeyUpMsg
 .text.ListLayer_KeyDownMsg
                0x00000000e181e520       0x3a emodules/mod_orange/built-in.o
                0x00000000e181e520                ListLayer_KeyDownMsg
 .text.ListLayer_MoveUpMsg
                0x00000000e181e55a       0x3a emodules/mod_orange/built-in.o
                0x00000000e181e55a                ListLayer_MoveUpMsg
 .text.ListLayer_MoveDownMsg
                0x00000000e181e594       0x3a emodules/mod_orange/built-in.o
                0x00000000e181e594                ListLayer_MoveDownMsg
 .text.ListLayer_GetMoveStatus
                0x00000000e181e5ce        0x4 emodules/mod_orange/built-in.o
                0x00000000e181e5ce                ListLayer_GetMoveStatus
 .text.ListLayer_MoveMsg
                0x00000000e181e5d2      0x100 emodules/mod_orange/built-in.o
                0x00000000e181e5d2                ListLayer_MoveMsg
 .text.ListLayer_GetLoadStatus
                0x00000000e181e6d2       0x50 emodules/mod_orange/built-in.o
                0x00000000e181e6d2                ListLayer_GetLoadStatus
 .text.ListLayer_OnMesssage
                0x00000000e181e722       0x72 emodules/mod_orange/built-in.o
                0x00000000e181e722                ListLayer_OnMesssage
 .text.RegisterListMenuControl
                0x00000000e181e794       0x2c emodules/mod_orange/built-in.o
                0x00000000e181e794                RegisterListMenuControl
 .text.GUI_LstmGetCurItem
                0x00000000e181e7c0       0x20 emodules/mod_orange/built-in.o
                0x00000000e181e7c0                GUI_LstmGetCurItem
 .text.GUI_LstmGetItem
                0x00000000e181e7e0       0x36 emodules/mod_orange/built-in.o
                0x00000000e181e7e0                GUI_LstmGetItem
 .text.GUI_LstmUpdateItem
                0x00000000e181e816       0x98 emodules/mod_orange/built-in.o
                0x00000000e181e816                GUI_LstmUpdateItem
 .text.GUI_LstmChildInFb
                0x00000000e181e8ae       0x4c emodules/mod_orange/built-in.o
                0x00000000e181e8ae                GUI_LstmChildInFb
 .text.GUI_LstmGetSelItem
                0x00000000e181e8fa      0x17e emodules/mod_orange/built-in.o
                0x00000000e181e8fa                GUI_LstmGetSelItem
 .text.GUI_LstmSetCurItemNo
                0x00000000e181ea78       0x36 emodules/mod_orange/built-in.o
                0x00000000e181ea78                GUI_LstmSetCurItemNo
 .text.GUI_LstmPrivCreate
                0x00000000e181eaae      0x36c emodules/mod_orange/built-in.o
                0x00000000e181eaae                GUI_LstmPrivCreate
 .text.GUI_LstmGetItemCount
                0x00000000e181ee1a       0x28 emodules/mod_orange/built-in.o
                0x00000000e181ee1a                GUI_LstmGetItemCount
 .text.GUI_LstmGetItemRect
                0x00000000e181ee42       0x1e emodules/mod_orange/built-in.o
                0x00000000e181ee42                GUI_LstmGetItemRect
 .text.GUI_LstmGetItemLyrWin
                0x00000000e181ee60        0xa emodules/mod_orange/built-in.o
                0x00000000e181ee60                GUI_LstmGetItemLyrWin
 .text.GUI_LstmGetHostWin
                0x00000000e181ee6a        0x6 emodules/mod_orange/built-in.o
                0x00000000e181ee6a                GUI_LstmGetHostWin
 .text.GUI_LstmGetItemAttr
                0x00000000e181ee70        0xc emodules/mod_orange/built-in.o
                0x00000000e181ee70                GUI_LstmGetItemAttr
 .text.GUI_LstmGetItemNo
                0x00000000e181ee7c        0xa emodules/mod_orange/built-in.o
                0x00000000e181ee7c                GUI_LstmGetItemNo
 .text.GUI_LstmStopOnLoad
                0x00000000e181ee86       0x34 emodules/mod_orange/built-in.o
                0x00000000e181ee86                GUI_LstmStopOnLoad
 .text.GUI_LstmPostRunMsg
                0x00000000e181eeba       0x6e emodules/mod_orange/built-in.o
                0x00000000e181eeba                GUI_LstmPostRunMsg
 .text.GUI_LstmPostMoveMsg
                0x00000000e181ef28       0x6c emodules/mod_orange/built-in.o
                0x00000000e181ef28                GUI_LstmPostMoveMsg
 .text.GUI_LstmStopProc
                0x00000000e181ef94      0x100 emodules/mod_orange/built-in.o
                0x00000000e181ef94                GUI_LstmStopProc
 .text.GUI_LstmDestroy
                0x00000000e181f094       0xe6 emodules/mod_orange/built-in.o
                0x00000000e181f094                GUI_LstmDestroy
 .text.GUI_LstmWakeup
                0x00000000e181f17a       0x42 emodules/mod_orange/built-in.o
                0x00000000e181f17a                GUI_LstmWakeup
 .text.GUI_LstmSleep
                0x00000000e181f1bc       0x2e emodules/mod_orange/built-in.o
                0x00000000e181f1bc                GUI_LstmSleep
 .text.GUI_LstmKeyUp
                0x00000000e181f1ea      0x18a emodules/mod_orange/built-in.o
                0x00000000e181f1ea                GUI_LstmKeyUp
 .text.GUI_LstmKeyDown
                0x00000000e181f374      0x192 emodules/mod_orange/built-in.o
                0x00000000e181f374                GUI_LstmKeyDown
 .text.GUI_LstmKeyRise
                0x00000000e181f506       0x7a emodules/mod_orange/built-in.o
                0x00000000e181f506                GUI_LstmKeyRise
 .text.GUI_LstmKeyDefault
                0x00000000e181f580       0x1c emodules/mod_orange/built-in.o
                0x00000000e181f580                GUI_LstmKeyDefault
 .text.GUI_LstmMove
                0x00000000e181f59c       0x16 emodules/mod_orange/built-in.o
                0x00000000e181f59c                GUI_LstmMove
 .text.GUI_LstmTouchDown
                0x00000000e181f5b2      0x2e2 emodules/mod_orange/built-in.o
                0x00000000e181f5b2                GUI_LstmTouchDown
 .text.GUI_LstmTouchUp
                0x00000000e181f894      0x1fa emodules/mod_orange/built-in.o
                0x00000000e181f894                GUI_LstmTouchUp
 .text.GUI_LstmTouchMove
                0x00000000e181fa8e      0x188 emodules/mod_orange/built-in.o
                0x00000000e181fa8e                GUI_LstmTouchMove
 .text.GUI_LstmOnDraw
                0x00000000e181fc16       0x24 emodules/mod_orange/built-in.o
                0x00000000e181fc16                GUI_LstmOnDraw
 .text.GUI_LstmSetFoucs
                0x00000000e181fc3a       0x5c emodules/mod_orange/built-in.o
                0x00000000e181fc3a                GUI_LstmSetFoucs
 .text.GUI_LstmSetUnFoucs
                0x00000000e181fc96       0x24 emodules/mod_orange/built-in.o
                0x00000000e181fc96                GUI_LstmSetUnFoucs
 .text.GUI_LstmOnMessage
                0x00000000e181fcba       0x78 emodules/mod_orange/built-in.o
                0x00000000e181fcba                GUI_LstmOnMessage
 .text.GUI_LstmRxThread
                0x00000000e181fd32       0x4a emodules/mod_orange/built-in.o
                0x00000000e181fd32                GUI_LstmRxThread
 .text.GUI_LstmDrawCurNo
                0x00000000e181fd7c       0x7c emodules/mod_orange/built-in.o
                0x00000000e181fd7c                GUI_LstmDrawCurNo
 .text.GUI_LstmSetCurNo
                0x00000000e181fdf8       0x84 emodules/mod_orange/built-in.o
                0x00000000e181fdf8                GUI_LstmSetCurNo
 .text.GUI_LstmStopSlip
                0x00000000e181fe7c       0x1e emodules/mod_orange/built-in.o
                0x00000000e181fe7c                GUI_LstmStopSlip
 .text.GUI_LstmCurProc
                0x00000000e181fe9a       0x5c emodules/mod_orange/built-in.o
                0x00000000e181fe9a                GUI_LstmCurProc
 .text.ListMenuCtrlProc
                0x00000000e181fef6      0x408 emodules/mod_orange/built-in.o
 .text.GUI_LstmDelCurItem
                0x00000000e18202fe       0x72 emodules/mod_orange/built-in.o
                0x00000000e18202fe                GUI_LstmDelCurItem
 .text.GUI_LstmAddItemTail
                0x00000000e1820370       0x7a emodules/mod_orange/built-in.o
                0x00000000e1820370                GUI_LstmAddItemTail
 .text.MenuItem_Create
                0x00000000e18203ea      0x178 emodules/mod_orange/built-in.o
                0x00000000e18203ea                MenuItem_Create
 .text.MenuItem_Destroy
                0x00000000e1820562       0x50 emodules/mod_orange/built-in.o
                0x00000000e1820562                MenuItem_Destroy
 .text.MenuList_Create
                0x00000000e18205b2       0x46 emodules/mod_orange/built-in.o
                0x00000000e18205b2                MenuList_Create
 .text.MenuList_DelItem
                0x00000000e18205f8       0x9a emodules/mod_orange/built-in.o
                0x00000000e18205f8                MenuList_DelItem
 .text.MenuList_DelAll
                0x00000000e1820692       0x4c emodules/mod_orange/built-in.o
                0x00000000e1820692                MenuList_DelAll
 .text.MenuList_AddTail
                0x00000000e18206de       0x46 emodules/mod_orange/built-in.o
                0x00000000e18206de                MenuList_AddTail
 .text.MenuList_GetItemCount
                0x00000000e1820724        0xa emodules/mod_orange/built-in.o
                0x00000000e1820724                MenuList_GetItemCount
 .text.MenuList_Destroy
                0x00000000e182072e       0x22 emodules/mod_orange/built-in.o
                0x00000000e182072e                MenuList_Destroy
 .text.bmp_open
                0x00000000e1820750       0xd0 emodules/mod_orange/built-in.o
                0x00000000e1820750                bmp_open
 .text.bmp_close
                0x00000000e1820820       0x1a emodules/mod_orange/built-in.o
                0x00000000e1820820                bmp_close
 .text.bmp_get_bitcount
                0x00000000e182083a        0x4 emodules/mod_orange/built-in.o
                0x00000000e182083a                bmp_get_bitcount
 .text.bmp_get_width
                0x00000000e182083e        0x4 emodules/mod_orange/built-in.o
                0x00000000e182083e                bmp_get_width
 .text.bmp_get_height
                0x00000000e1820842        0xe emodules/mod_orange/built-in.o
                0x00000000e1820842                bmp_get_height
 .text.bmp_get_size
                0x00000000e1820850        0x4 emodules/mod_orange/built-in.o
                0x00000000e1820850                bmp_get_size
 .text.bmp_get_matrix
                0x00000000e1820854       0xbc emodules/mod_orange/built-in.o
                0x00000000e1820854                bmp_get_matrix
 .text.rect_copy_alpha
                0x00000000e1820910       0xd6 emodules/mod_orange/built-in.o
                0x00000000e1820910                rect_copy_alpha
 .text.fill_rect_with_column
                0x00000000e18209e6       0x88 emodules/mod_orange/built-in.o
                0x00000000e18209e6                fill_rect_with_column
 .text.fill_rect_with_row
                0x00000000e1820a6e       0x9a emodules/mod_orange/built-in.o
                0x00000000e1820a6e                fill_rect_with_row
 .text.rect_get_row
                0x00000000e1820b08       0x1e emodules/mod_orange/built-in.o
                0x00000000e1820b08                rect_get_row
 .text.rect_get_column
                0x00000000e1820b26       0x58 emodules/mod_orange/built-in.o
                0x00000000e1820b26                rect_get_column
 .text._calculate_value
                0x00000000e1820b7e       0x2a emodules/mod_orange/built-in.o
 .text._notify_parent
                0x00000000e1820ba8       0x30 emodules/mod_orange/built-in.o
 .text._draw_cursor
                0x00000000e1820bd8       0x2e emodules/mod_orange/built-in.o
 .text._release_res
                0x00000000e1820c06       0x4c emodules/mod_orange/built-in.o
 .text._get_layer_bk_matrix
                0x00000000e1820c52       0xa4 emodules/mod_orange/built-in.o
 .text._reset_matrix
                0x00000000e1820cf6       0xac emodules/mod_orange/built-in.o
 .text._draw_slider
                0x00000000e1820da2      0x15a emodules/mod_orange/built-in.o
 .text._my_GUI_InvalidateRect.constprop.3
                0x00000000e1820efc       0x22 emodules/mod_orange/built-in.o
 .text._SliderCtrlProc
                0x00000000e1820f1e      0xede emodules/mod_orange/built-in.o
 .text.RegisterSliderControl
                0x00000000e1821dfc       0x2c emodules/mod_orange/built-in.o
                0x00000000e1821dfc                RegisterSliderControl
 .text.SLIDER_SetRange
                0x00000000e1821e28       0xd0 emodules/mod_orange/built-in.o
                0x00000000e1821e28                SLIDER_SetRange
 .text.SLIDER_SetValue
                0x00000000e1821ef8       0xae emodules/mod_orange/built-in.o
                0x00000000e1821ef8                SLIDER_SetValue
 .text.SLIDER_GetMin
                0x00000000e1821fa6       0x16 emodules/mod_orange/built-in.o
                0x00000000e1821fa6                SLIDER_GetMin
 .text.SLIDER_GetMax
                0x00000000e1821fbc       0x16 emodules/mod_orange/built-in.o
                0x00000000e1821fbc                SLIDER_GetMax
 .text.SLIDER_GetValue
                0x00000000e1821fd2       0x16 emodules/mod_orange/built-in.o
                0x00000000e1821fd2                SLIDER_GetValue
 .text.SLIDER_SetLineSize
                0x00000000e1821fe8       0x1c emodules/mod_orange/built-in.o
                0x00000000e1821fe8                SLIDER_SetLineSize
 .text.SLIDER_GetLineSize
                0x00000000e1822004       0x16 emodules/mod_orange/built-in.o
                0x00000000e1822004                SLIDER_GetLineSize
 .text.RegisterTxtboxControl
                0x00000000e182201a       0x2c emodules/mod_orange/built-in.o
                0x00000000e182201a                RegisterTxtboxControl
 .text.GUI_TxtboxPrivCreate
                0x00000000e1822046      0x156 emodules/mod_orange/built-in.o
                0x00000000e1822046                GUI_TxtboxPrivCreate
 .text.GUI_TxtboxSetStamp
                0x00000000e182219c       0x5a emodules/mod_orange/built-in.o
                0x00000000e182219c                GUI_TxtboxSetStamp
 .text.GUI_TxtboxDestroy
                0x00000000e18221f6       0x50 emodules/mod_orange/built-in.o
                0x00000000e18221f6                GUI_TxtboxDestroy
 .text.GUI_TxtboxOnDraw
                0x00000000e1822246       0x2c emodules/mod_orange/built-in.o
                0x00000000e1822246                GUI_TxtboxOnDraw
 .text.TxtBoxCtrlProc
                0x00000000e1822272       0xbc emodules/mod_orange/built-in.o
 .text.GUI_TxtboxSetMode
                0x00000000e182232e       0x32 emodules/mod_orange/built-in.o
                0x00000000e182232e                GUI_TxtboxSetMode
 .text.GUI_TxtboxGetMode
                0x00000000e1822360       0x1c emodules/mod_orange/built-in.o
                0x00000000e1822360                GUI_TxtboxGetMode
 .text.GUI_TxtBoxSetPara
                0x00000000e182237c      0x116 emodules/mod_orange/built-in.o
                0x00000000e182237c                GUI_TxtBoxSetPara
 .text.TxtBuffer_Create
                0x00000000e1822492        0xa emodules/mod_orange/built-in.o
                0x00000000e1822492                TxtBuffer_Create
 .text.TxtBuffer_Destroy
                0x00000000e182249c       0x1a emodules/mod_orange/built-in.o
                0x00000000e182249c                TxtBuffer_Destroy
 .text.txtitem_Create
                0x00000000e18224b6       0x84 emodules/mod_orange/built-in.o
                0x00000000e18224b6                txtitem_Create
 .text.txtitem_Destroy
                0x00000000e182253a       0x1a emodules/mod_orange/built-in.o
                0x00000000e182253a                txtitem_Destroy
 .text.TxtLayer_GetLayerInfo.part.0
                0x00000000e1822554       0xba emodules/mod_orange/built-in.o
 .text.TxtLayer_GetBPP
                0x00000000e182260e       0x26 emodules/mod_orange/built-in.o
                0x00000000e182260e                TxtLayer_GetBPP
 .text.TxtLayer_SwitchFB
                0x00000000e1822634       0x46 emodules/mod_orange/built-in.o
                0x00000000e1822634                TxtLayer_SwitchFB
 .text.TxtLayer_GetLayerInfo
                0x00000000e182267a       0x2c emodules/mod_orange/built-in.o
                0x00000000e182267a                TxtLayer_GetLayerInfo
 .text.TxtLayer_ClearTxtItem
                0x00000000e18226a6       0x46 emodules/mod_orange/built-in.o
                0x00000000e18226a6                TxtLayer_ClearTxtItem
 .text.TxtLayer_Create
                0x00000000e18226ec       0xbc emodules/mod_orange/built-in.o
                0x00000000e18226ec                TxtLayer_Create
 .text.TxtLayer_Destroy
                0x00000000e18227a8       0x74 emodules/mod_orange/built-in.o
                0x00000000e18227a8                TxtLayer_Destroy
 .text.TxtLayer_FixedOnDraw
                0x00000000e182281c      0x118 emodules/mod_orange/built-in.o
                0x00000000e182281c                TxtLayer_FixedOnDraw
 .text.TxtLayer_OnDraw
                0x00000000e1822934       0x3c emodules/mod_orange/built-in.o
                0x00000000e1822934                TxtLayer_OnDraw
 .text.charset_enm2gui
                0x00000000e1822970       0xea emodules/mod_orange/built-in.o
 .text.TxtLayer_ItemCopy.isra.0.constprop.1
                0x00000000e1822a5a      0x110 emodules/mod_orange/built-in.o
 .text.TxtLayer_BackUpItem
                0x00000000e1822b6a      0x1f0 emodules/mod_orange/built-in.o
                0x00000000e1822b6a                TxtLayer_BackUpItem
 .text.TxtLayer_StampToPos
                0x00000000e1822d5a       0xc2 emodules/mod_orange/built-in.o
                0x00000000e1822d5a                TxtLayer_StampToPos
 .text.TxtLayer_DrawItem
                0x00000000e1822e1c       0xe6 emodules/mod_orange/built-in.o
                0x00000000e1822e1c                TxtLayer_DrawItem
 .text.TxtLayer_FoucsDrawItem
                0x00000000e1822f02       0x78 emodules/mod_orange/built-in.o
                0x00000000e1822f02                TxtLayer_FoucsDrawItem
 .text.TxtLayer_DrawMultiItem
                0x00000000e1822f7a       0x18 emodules/mod_orange/built-in.o
                0x00000000e1822f7a                TxtLayer_DrawMultiItem
 .text.TxtLayer_StampProcess
                0x00000000e1822f92      0x148 emodules/mod_orange/built-in.o
                0x00000000e1822f92                TxtLayer_StampProcess
 .text.TxtList_Create
                0x00000000e18230da       0x2a emodules/mod_orange/built-in.o
                0x00000000e18230da                TxtList_Create
 .text.TxtList_DelAll
                0x00000000e1823104       0x44 emodules/mod_orange/built-in.o
                0x00000000e1823104                TxtList_DelAll
 .text.TxtList_AddTail
                0x00000000e1823148       0x3e emodules/mod_orange/built-in.o
                0x00000000e1823148                TxtList_AddTail
 .text.TxtList_Destroy
                0x00000000e1823186       0x22 emodules/mod_orange/built-in.o
                0x00000000e1823186                TxtList_Destroy
 .text.MsgBoxProc
                0x00000000e18231a8      0x1b0 emodules/mod_orange/built-in.o
 .text.GUI_GMsgBox
                0x00000000e1823358      0x2ba emodules/mod_orange/built-in.o
                0x00000000e1823358                GUI_GMsgBox
 .text.GUI_GMsgBoxSetText
                0x00000000e1823612       0x24 emodules/mod_orange/built-in.o
                0x00000000e1823612                GUI_GMsgBoxSetText
 .text.GUI_GMsgBoxSetTextPos
                0x00000000e1823636       0x2a emodules/mod_orange/built-in.o
                0x00000000e1823636                GUI_GMsgBoxSetTextPos
 .text.SListbox_InContent
                0x00000000e1823660       0x22 emodules/mod_orange/built-in.o
 .text.SListbox_Memcpy
                0x00000000e1823682       0x6a emodules/mod_orange/built-in.o
 .text.SListbox_DrawMenuItem.part.0
                0x00000000e18236ec       0x3a emodules/mod_orange/built-in.o
 .text.SListbox_FocusMenuItem.part.2
                0x00000000e1823726       0x3a emodules/mod_orange/built-in.o
 .text.SListbox_DisableMenuItem.part.3
                0x00000000e1823760       0x3c emodules/mod_orange/built-in.o
 .text.SListbox_DisableMenuItem.constprop.5
                0x00000000e182379c        0x8 emodules/mod_orange/built-in.o
 .text.SListbox_FocusMenuItem.constprop.6
                0x00000000e18237a4        0x8 emodules/mod_orange/built-in.o
 .text.SListbox_DrawMenuItem.constprop.7
                0x00000000e18237ac        0x8 emodules/mod_orange/built-in.o
 .text.RegisterListBoxControl
                0x00000000e18237b4       0x2c emodules/mod_orange/built-in.o
                0x00000000e18237b4                RegisterListBoxControl
 .text.UnRegisterListBoxControl
                0x00000000e18237e0       0x1a emodules/mod_orange/built-in.o
                0x00000000e18237e0                UnRegisterListBoxControl
 .text.SListbox_DrawFreeMenuItem
                0x00000000e18237fa       0x42 emodules/mod_orange/built-in.o
                0x00000000e18237fa                SListbox_DrawFreeMenuItem
 .text.SListbox_Ondraw
                0x00000000e182383c       0xb8 emodules/mod_orange/built-in.o
                0x00000000e182383c                SListbox_Ondraw
 .text.SListbox_UpdateMenulist
                0x00000000e18238f4      0x16a emodules/mod_orange/built-in.o
                0x00000000e18238f4                SListbox_UpdateMenulist
 .text.SListbox_UpdateControl
                0x00000000e1823a5e       0xc8 emodules/mod_orange/built-in.o
                0x00000000e1823a5e                SListbox_UpdateControl
 .text.SListbox_UpdateUpEx
                0x00000000e1823b26       0x72 emodules/mod_orange/built-in.o
                0x00000000e1823b26                SListbox_UpdateUpEx
 .text.SListbox_UpdateDownEx
                0x00000000e1823b98       0x66 emodules/mod_orange/built-in.o
                0x00000000e1823b98                SListbox_UpdateDownEx
 .text.SListbox_UpdateUp
                0x00000000e1823bfe       0xca emodules/mod_orange/built-in.o
                0x00000000e1823bfe                SListbox_UpdateUp
 .text.SListbox_UpdateDown
                0x00000000e1823cc8       0xca emodules/mod_orange/built-in.o
                0x00000000e1823cc8                SListbox_UpdateDown
 .text.SListbox_AddTail
                0x00000000e1823d92       0x94 emodules/mod_orange/built-in.o
                0x00000000e1823d92                SListbox_AddTail
 .text.SListbox_DelCurItem
                0x00000000e1823e26      0x22e emodules/mod_orange/built-in.o
                0x00000000e1823e26                SListbox_DelCurItem
 .text.SListbox_ItemEnable
                0x00000000e1824054       0x60 emodules/mod_orange/built-in.o
                0x00000000e1824054                SListbox_ItemEnable
 .text.SListbox_ItemDisable
                0x00000000e18240b4       0x5e emodules/mod_orange/built-in.o
                0x00000000e18240b4                SListbox_ItemDisable
 .text.SListbox_NextPage
                0x00000000e1824112       0x76 emodules/mod_orange/built-in.o
                0x00000000e1824112                SListbox_NextPage
 .text.SListbox_PrevPage
                0x00000000e1824188       0x6c emodules/mod_orange/built-in.o
                0x00000000e1824188                SListbox_PrevPage
 .text.SListbox_PrivCreate
                0x00000000e18241f4      0x1c2 emodules/mod_orange/built-in.o
                0x00000000e18241f4                SListbox_PrivCreate
 .text.SListbox_GetCurItem
                0x00000000e18243b6       0x2e emodules/mod_orange/built-in.o
                0x00000000e18243b6                SListbox_GetCurItem
 .text.SListbox_GetItem
                0x00000000e18243e4       0x2c emodules/mod_orange/built-in.o
                0x00000000e18243e4                SListbox_GetItem
 .text.SListbox_GetItemRect
                0x00000000e1824410       0x5e emodules/mod_orange/built-in.o
                0x00000000e1824410                SListbox_GetItemRect
 .text.SListbox_GetItemCount
                0x00000000e182446e       0x26 emodules/mod_orange/built-in.o
                0x00000000e182446e                SListbox_GetItemCount
 .text.SListbox_GetItemLyrWin
                0x00000000e1824494        0xa emodules/mod_orange/built-in.o
                0x00000000e1824494                SListbox_GetItemLyrWin
 .text.SListbox_GetHostWin
                0x00000000e182449e        0x6 emodules/mod_orange/built-in.o
                0x00000000e182449e                SListbox_GetHostWin
 .text.SListbox_GetItemAttr
                0x00000000e18244a4        0xa emodules/mod_orange/built-in.o
                0x00000000e18244a4                SListbox_GetItemAttr
 .text.SListbox_GetHeadindex
                0x00000000e18244ae       0x1a emodules/mod_orange/built-in.o
                0x00000000e18244ae                SListbox_GetHeadindex
 .text.SListbox_SetCurItem
                0x00000000e18244c8       0xe0 emodules/mod_orange/built-in.o
                0x00000000e18244c8                SListbox_SetCurItem
 .text.SListbox_GetItemNo
                0x00000000e18245a8        0xa emodules/mod_orange/built-in.o
                0x00000000e18245a8                SListbox_GetItemNo
 .text.SListbox_Destroy
                0x00000000e18245b2       0x50 emodules/mod_orange/built-in.o
                0x00000000e18245b2                SListbox_Destroy
 .text.SListbox_Disable
                0x00000000e1824602       0x24 emodules/mod_orange/built-in.o
                0x00000000e1824602                SListbox_Disable
 .text.SListbox_KeyUp
                0x00000000e1824626       0x46 emodules/mod_orange/built-in.o
                0x00000000e1824626                SListbox_KeyUp
 .text.SListbox_KeyDown
                0x00000000e182466c       0x46 emodules/mod_orange/built-in.o
                0x00000000e182466c                SListbox_KeyDown
 .text.SListbox_KeyRise
                0x00000000e18246b2       0x48 emodules/mod_orange/built-in.o
                0x00000000e18246b2                SListbox_KeyRise
 .text.SListbox_SetFoucs
                0x00000000e18246fa       0x24 emodules/mod_orange/built-in.o
                0x00000000e18246fa                SListbox_SetFoucs
 .text.SListboxCtrlProc
                0x00000000e182471e      0x1a6 emodules/mod_orange/built-in.o
 .text.SMenuList_Create
                0x00000000e18248c4       0x26 emodules/mod_orange/built-in.o
                0x00000000e18248c4                SMenuList_Create
 .text.SMenuList_DelItem
                0x00000000e18248ea       0x8e emodules/mod_orange/built-in.o
                0x00000000e18248ea                SMenuList_DelItem
 .text.SMenuList_DelAll
                0x00000000e1824978       0x48 emodules/mod_orange/built-in.o
                0x00000000e1824978                SMenuList_DelAll
 .text.SMenuList_FindNextEnable
                0x00000000e18249c0       0x1c emodules/mod_orange/built-in.o
                0x00000000e18249c0                SMenuList_FindNextEnable
 .text.SMenuList_FindPrevEnable
                0x00000000e18249dc       0x1c emodules/mod_orange/built-in.o
                0x00000000e18249dc                SMenuList_FindPrevEnable
 .text.SMenuList_GetCurPageNum
                0x00000000e18249f8       0x16 emodules/mod_orange/built-in.o
                0x00000000e18249f8                SMenuList_GetCurPageNum
 .text.SMenuList_AddTail
                0x00000000e1824a0e       0x48 emodules/mod_orange/built-in.o
                0x00000000e1824a0e                SMenuList_AddTail
 .text.SMenuList_GetMenuitem
                0x00000000e1824a56       0x26 emodules/mod_orange/built-in.o
                0x00000000e1824a56                SMenuList_GetMenuitem
 .text.SMenuList_SetHeadItemFromItem
                0x00000000e1824a7c       0x4a emodules/mod_orange/built-in.o
                0x00000000e1824a7c                SMenuList_SetHeadItemFromItem
 .text.SMenuList_GetItemCount
                0x00000000e1824ac6        0xa emodules/mod_orange/built-in.o
                0x00000000e1824ac6                SMenuList_GetItemCount
 .text.SMenuList_Destroy
                0x00000000e1824ad0       0x22 emodules/mod_orange/built-in.o
                0x00000000e1824ad0                SMenuList_Destroy
 .text.SItem_Destory
                0x00000000e1824af2       0x1a emodules/mod_orange/built-in.o
                0x00000000e1824af2                SItem_Destory
 .text.SItem_Create
                0x00000000e1824b0c       0x32 emodules/mod_orange/built-in.o
                0x00000000e1824b0c                SItem_Create
 .text.SMenuItem_Create
                0x00000000e1824b3e       0x52 emodules/mod_orange/built-in.o
                0x00000000e1824b3e                SMenuItem_Create
 .text.SMenuItem_Destroy
                0x00000000e1824b90       0x1a emodules/mod_orange/built-in.o
                0x00000000e1824b90                SMenuItem_Destroy
 .text.Lang_Open
                0x00000000e1824baa      0x154 emodules/mod_orange/built-in.o
                0x00000000e1824baa                Lang_Open
 .text.Lang_Read
                0x00000000e1824cfe       0x2c emodules/mod_orange/built-in.o
                0x00000000e1824cfe                Lang_Read
 .text.Lang_GetStringAddress
                0x00000000e1824d2a       0xca emodules/mod_orange/built-in.o
                0x00000000e1824d2a                Lang_GetStringAddress
 .text.Lang_GetStringSize
                0x00000000e1824df4       0xca emodules/mod_orange/built-in.o
                0x00000000e1824df4                Lang_GetStringSize
 .text.Lang_GetString
                0x00000000e1824ebe       0xfc emodules/mod_orange/built-in.o
                0x00000000e1824ebe                Lang_GetString
 .text.Lang_Close
                0x00000000e1824fba       0x28 emodules/mod_orange/built-in.o
                0x00000000e1824fba                Lang_Close
 .text.search_res
                0x00000000e1824fe2       0xda emodules/mod_orange/built-in.o
 .text.OpenRes  0x00000000e18250bc       0x66 emodules/mod_orange/built-in.o
                0x00000000e18250bc                OpenRes
 .text.CloseRes
                0x00000000e1825122       0x24 emodules/mod_orange/built-in.o
                0x00000000e1825122                CloseRes
 .text.ReadRes  0x00000000e1825146       0x32 emodules/mod_orange/built-in.o
                0x00000000e1825146                ReadRes
 .text.GetResSize
                0x00000000e1825178       0x38 emodules/mod_orange/built-in.o
                0x00000000e1825178                GetResSize
 .text.GetResAddr
                0x00000000e18251b0       0x38 emodules/mod_orange/built-in.o
                0x00000000e18251b0                GetResAddr
 .text.GetResType
                0x00000000e18251e8       0x40 emodules/mod_orange/built-in.o
                0x00000000e18251e8                GetResType
 .text.GetRes   0x00000000e1825228       0x54 emodules/mod_orange/built-in.o
                0x00000000e1825228                GetRes
 .text.esCHS_Char2Uni
                0x00000000e182527c       0x1c ./elibrary/bin/libsyscall.a(syscall.o)
                0x00000000e182527c                esCHS_Char2Uni
 .text.esCHS_Uni2Char
                0x00000000e1825298       0x1c ./elibrary/bin/libsyscall.a(syscall.o)
                0x00000000e1825298                esCHS_Uni2Char
 .text.esFSYS_fclose
                0x00000000e18252b4       0x18 ./elibrary/bin/libsyscall.a(syscall.o)
                0x00000000e18252b4                esFSYS_fclose
 .text.esFSYS_fopen
                0x00000000e18252cc       0x16 ./elibrary/bin/libsyscall.a(syscall.o)
                0x00000000e18252cc                esFSYS_fopen
 .text.esFSYS_fread
                0x00000000e18252e2       0x20 ./elibrary/bin/libsyscall.a(syscall.o)
                0x00000000e18252e2                esFSYS_fread
 .text.esFSYS_fseek
                0x00000000e1825302       0x18 ./elibrary/bin/libsyscall.a(syscall.o)
                0x00000000e1825302                esFSYS_fseek
 .text.esKRNL_CallBack
                0x00000000e182531a       0x18 ./elibrary/bin/libsyscall.a(syscall.o)
                0x00000000e182531a                esKRNL_CallBack
 .text.esKRNL_FlagCreate
                0x00000000e1825332       0x1a ./elibrary/bin/libsyscall.a(syscall.o)
                0x00000000e1825332                esKRNL_FlagCreate
 .text.esKRNL_FlagDel
                0x00000000e182534c       0x16 ./elibrary/bin/libsyscall.a(syscall.o)
                0x00000000e182534c                esKRNL_FlagDel
 .text.esKRNL_FlagPend
                0x00000000e1825362       0x20 ./elibrary/bin/libsyscall.a(syscall.o)
                0x00000000e1825362                esKRNL_FlagPend
 .text.esKRNL_FlagPost
                0x00000000e1825382       0x1c ./elibrary/bin/libsyscall.a(syscall.o)
                0x00000000e1825382                esKRNL_FlagPost
 .text.esKRNL_FlagQuery
                0x00000000e182539e       0x18 ./elibrary/bin/libsyscall.a(syscall.o)
                0x00000000e182539e                esKRNL_FlagQuery
 .text.esKRNL_GetCallBack
                0x00000000e18253b6       0x16 ./elibrary/bin/libsyscall.a(syscall.o)
                0x00000000e18253b6                esKRNL_GetCallBack
 .text.esKRNL_GetTIDCur
                0x00000000e18253cc       0x16 ./elibrary/bin/libsyscall.a(syscall.o)
                0x00000000e18253cc                esKRNL_GetTIDCur
 .text.esKRNL_MboxCreate
                0x00000000e18253e2       0x1a ./elibrary/bin/libsyscall.a(syscall.o)
                0x00000000e18253e2                esKRNL_MboxCreate
 .text.esKRNL_QCreate
                0x00000000e18253fc       0x16 ./elibrary/bin/libsyscall.a(syscall.o)
                0x00000000e18253fc                esKRNL_QCreate
 .text.esKRNL_QDel
                0x00000000e1825412       0x16 ./elibrary/bin/libsyscall.a(syscall.o)
                0x00000000e1825412                esKRNL_QDel
 .text.esKRNL_QFlush
                0x00000000e1825428       0x1a ./elibrary/bin/libsyscall.a(syscall.o)
                0x00000000e1825428                esKRNL_QFlush
 .text.esKRNL_QPend
                0x00000000e1825442       0x16 ./elibrary/bin/libsyscall.a(syscall.o)
                0x00000000e1825442                esKRNL_QPend
 .text.esKRNL_QPost
                0x00000000e1825458       0x1a ./elibrary/bin/libsyscall.a(syscall.o)
                0x00000000e1825458                esKRNL_QPost
 .text.esKRNL_QQuery
                0x00000000e1825472       0x1a ./elibrary/bin/libsyscall.a(syscall.o)
                0x00000000e1825472                esKRNL_QQuery
 .text.esKRNL_SemAccept
                0x00000000e182548c       0x1a ./elibrary/bin/libsyscall.a(syscall.o)
                0x00000000e182548c                esKRNL_SemAccept
 .text.esKRNL_SemCreate
                0x00000000e18254a6       0x16 ./elibrary/bin/libsyscall.a(syscall.o)
                0x00000000e18254a6                esKRNL_SemCreate
 .text.esKRNL_SemDel
                0x00000000e18254bc       0x16 ./elibrary/bin/libsyscall.a(syscall.o)
                0x00000000e18254bc                esKRNL_SemDel
 .text.esKRNL_SemPend
                0x00000000e18254d2       0x16 ./elibrary/bin/libsyscall.a(syscall.o)
                0x00000000e18254d2                esKRNL_SemPend
 .text.esKRNL_SemPost
                0x00000000e18254e8       0x1a ./elibrary/bin/libsyscall.a(syscall.o)
                0x00000000e18254e8                esKRNL_SemPost
 .text.esKRNL_SemQuery
                0x00000000e1825502       0x1a ./elibrary/bin/libsyscall.a(syscall.o)
                0x00000000e1825502                esKRNL_SemQuery
 .text.esKRNL_TaskQuery
                0x00000000e182551c       0x1e ./elibrary/bin/libsyscall.a(syscall.o)
                0x00000000e182551c                esKRNL_TaskQuery
 .text.esKRNL_TaskResume
                0x00000000e182553a       0x1e ./elibrary/bin/libsyscall.a(syscall.o)
                0x00000000e182553a                esKRNL_TaskResume
 .text.esKRNL_TaskNameSet
                0x00000000e1825558       0x1a ./elibrary/bin/libsyscall.a(syscall.o)
                0x00000000e1825558                esKRNL_TaskNameSet
 .text.esKRNL_TaskSuspend
                0x00000000e1825572       0x1e ./elibrary/bin/libsyscall.a(syscall.o)
                0x00000000e1825572                esKRNL_TaskSuspend
 .text.esKRNL_TCreate
                0x00000000e1825590       0x1c ./elibrary/bin/libsyscall.a(syscall.o)
                0x00000000e1825590                esKRNL_TCreate
 .text.esKRNL_TDel
                0x00000000e18255ac       0x1e ./elibrary/bin/libsyscall.a(syscall.o)
                0x00000000e18255ac                esKRNL_TDel
 .text.esKRNL_TDelReq
                0x00000000e18255ca       0x1e ./elibrary/bin/libsyscall.a(syscall.o)
                0x00000000e18255ca                esKRNL_TDelReq
 .text.esKRNL_TimeDly
                0x00000000e18255e8       0x16 ./elibrary/bin/libsyscall.a(syscall.o)
                0x00000000e18255e8                esKRNL_TimeDly
 .text.esKSRV_Get_Display_Hld
                0x00000000e18255fe       0x16 ./elibrary/bin/libsyscall.a(syscall.o)
                0x00000000e18255fe                esKSRV_Get_Display_Hld
 .text.esMEMS_Balloc
                0x00000000e1825614       0x16 ./elibrary/bin/libsyscall.a(syscall.o)
                0x00000000e1825614                esMEMS_Balloc
 .text.esMEMS_Bfree
                0x00000000e182562a       0x16 ./elibrary/bin/libsyscall.a(syscall.o)
                0x00000000e182562a                esMEMS_Bfree
 .text.esMEMS_CleanFlushDCacheRegion
                0x00000000e1825640       0x1a ./elibrary/bin/libsyscall.a(syscall.o)
                0x00000000e1825640                esMEMS_CleanFlushDCacheRegion
 .text.esMEMS_Malloc
                0x00000000e182565a       0x1a ./elibrary/bin/libsyscall.a(syscall.o)
                0x00000000e182565a                esMEMS_Malloc
 .text.esMEMS_Mfree
                0x00000000e1825674       0x16 ./elibrary/bin/libsyscall.a(syscall.o)
                0x00000000e1825674                esMEMS_Mfree
 .text.esMEMS_Palloc
                0x00000000e182568a       0x1e ./elibrary/bin/libsyscall.a(syscall.o)
                0x00000000e182568a                esMEMS_Palloc
 .text.esMEMS_Pfree
                0x00000000e18256a8       0x1a ./elibrary/bin/libsyscall.a(syscall.o)
                0x00000000e18256a8                esMEMS_Pfree
 .text.esMODS_MIoctrl
                0x00000000e18256c2       0x1a ./elibrary/bin/libsyscall.a(syscall.o)
                0x00000000e18256c2                esMODS_MIoctrl
 .text.esRESM_RClose
                0x00000000e18256dc       0x18 ./elibrary/bin/libsyscall.a(syscall.o)
                0x00000000e18256dc                esRESM_RClose
 .text.esRESM_ROpen
                0x00000000e18256f4       0x16 ./elibrary/bin/libsyscall.a(syscall.o)
                0x00000000e18256f4                esRESM_ROpen
 .text.esRESM_RRead
                0x00000000e182570a       0x20 ./elibrary/bin/libsyscall.a(syscall.o)
                0x00000000e182570a                esRESM_RRead
 .text.esRESM_RSeek
                0x00000000e182572a       0x18 ./elibrary/bin/libsyscall.a(syscall.o)
                0x00000000e182572a                esRESM_RSeek
 .text.esSIOS_putstr
                0x00000000e1825742       0x14 ./elibrary/bin/libsyscall.a(syscall.o)
                0x00000000e1825742                esSIOS_putstr
 .text.eLIBs_fopen
                0x00000000e1825756        0x4 ./elibrary/bin/libminic.a(elibs_stdio.o)
                0x00000000e1825756                eLIBs_fopen
 .text.eLIBs_fclose
                0x00000000e182575a        0x4 ./elibrary/bin/libminic.a(elibs_stdio.o)
                0x00000000e182575a                eLIBs_fclose
 .text.eLIBs_fread
                0x00000000e182575e        0x4 ./elibrary/bin/libminic.a(elibs_stdio.o)
                0x00000000e182575e                eLIBs_fread
 .text.eLIBs_vprintf
                0x00000000e1825762       0x42 ./elibrary/bin/libminic.a(elibs_stdio.o)
                0x00000000e1825762                eLIBs_vprintf
 .text.eLIBs_printf
                0x00000000e18257a4       0x20 ./elibrary/bin/libminic.a(elibs_stdio.o)
                0x00000000e18257a4                eLIBs_printf
                0x00000000e18257a4                printk
 .text.eLIBs_fseek
                0x00000000e18257c4       0x5c ./elibrary/bin/libminic.a(elibs_stdio.o)
                0x00000000e18257c4                eLIBs_fseek
 .text.eLIBs_malloc
                0x00000000e1825820        0xa ./elibrary/bin/libminic.a(elibs_stdlib.o)
                0x00000000e1825820                eLIBs_malloc
 .text.eLIBs_free
                0x00000000e182582a        0xc ./elibrary/bin/libminic.a(elibs_stdlib.o)
                0x00000000e182582a                eLIBs_free
 .text.eLIBs_strlen
                0x00000000e1825836        0xc ./elibrary/bin/libminic.a(elibs_string.o)
                0x00000000e1825836                eLIBs_strlen
 .text.eLIBs_strcpy
                0x00000000e1825842        0xc ./elibrary/bin/libminic.a(elibs_string.o)
                0x00000000e1825842                eLIBs_strcpy
 .text.eLIBs_strncpy
                0x00000000e182584e        0xc ./elibrary/bin/libminic.a(elibs_string.o)
                0x00000000e182584e                eLIBs_strncpy
 .text.eLIBs_strcmp
                0x00000000e182585a        0xc ./elibrary/bin/libminic.a(elibs_string.o)
                0x00000000e182585a                eLIBs_strcmp
 .text.eLIBs_strncmp
                0x00000000e1825866        0xc ./elibrary/bin/libminic.a(elibs_string.o)
                0x00000000e1825866                eLIBs_strncmp
 .text.eLIBs_memclr
                0x00000000e1825872       0x10 ./elibrary/bin/libminic.a(elibs_string.o)
                0x00000000e1825872                eLIBs_memclr
 .text.eLIBs_memset
                0x00000000e1825882        0xc ./elibrary/bin/libminic.a(elibs_string.o)
                0x00000000e1825882                eLIBs_memset
 .text.eLIBs_memcpy
                0x00000000e182588e        0xc ./elibrary/bin/libminic.a(elibs_string.o)
                0x00000000e182588e                eLIBs_memcpy
 .text.eLIBs_vsnprintf
                0x00000000e182589a        0xc ./elibrary/bin/libminic.a(elibs_sprintf.o)
                0x00000000e182589a                eLIBs_vsnprintf
 .text.eLIBs_vscnprintf
                0x00000000e18258a6       0x1c ./elibrary/bin/libminic.a(elibs_sprintf.o)
                0x00000000e18258a6                eLIBs_vscnprintf
 .text.AZ100_GetUncompressSize
                0x00000000e18258c2       0x52 ./elibrary/bin/liblzma.a(az100.o)
                0x00000000e18258c2                AZ100_GetUncompressSize
 .text.AZ100_Uncompress
                0x00000000e1825914       0x24 ./elibrary/bin/liblzma.a(az100.o)
                0x00000000e1825914                AZ100_Uncompress
 .text.AZ100_DataUncompress
                0x00000000e1825938       0x26 ./elibrary/bin/liblzma.a(compress.o)
                0x00000000e1825938                AZ100_DataUncompress
 .text.SzFree   0x00000000e182595e        0x6 ./elibrary/bin/liblzma.a(LzmaLib.o)
 .text.SzAlloc  0x00000000e1825964        0x6 ./elibrary/bin/liblzma.a(LzmaLib.o)
 .text.LzmaUncompress
                0x00000000e182596a       0x20 ./elibrary/bin/liblzma.a(LzmaLib.o)
                0x00000000e182596a                LzmaUncompress
 .text.LzmaDec_WriteRem
                0x00000000e182598a       0x80 ./elibrary/bin/liblzma.a(LzmaDec.o)
 .text.LzmaDec_DecodeReal2
                0x00000000e1825a0a      0xc54 ./elibrary/bin/liblzma.a(LzmaDec.o)
 .text.LzmaDec_TryDummy
                0x00000000e182665e      0x500 ./elibrary/bin/liblzma.a(LzmaDec.o)
 .text.LzmaDec_Init
                0x00000000e1826b5e       0x1a ./elibrary/bin/liblzma.a(LzmaDec.o)
                0x00000000e1826b5e                LzmaDec_Init
 .text.LzmaDec_DecodeToDic
                0x00000000e1826b78      0x26c ./elibrary/bin/liblzma.a(LzmaDec.o)
                0x00000000e1826b78                LzmaDec_DecodeToDic
 .text.LzmaDec_FreeProbs
                0x00000000e1826de4       0x1c ./elibrary/bin/liblzma.a(LzmaDec.o)
                0x00000000e1826de4                LzmaDec_FreeProbs
 .text.LzmaDec_AllocateProbs2
                0x00000000e1826e00       0x58 ./elibrary/bin/liblzma.a(LzmaDec.o)
 .text.LzmaProps_Decode
                0x00000000e1826e58       0x5c ./elibrary/bin/liblzma.a(LzmaDec.o)
                0x00000000e1826e58                LzmaProps_Decode
 .text.LzmaDec_AllocateProbs
                0x00000000e1826eb4       0x30 ./elibrary/bin/liblzma.a(LzmaDec.o)
                0x00000000e1826eb4                LzmaDec_AllocateProbs
 .text.LzmaDecode
                0x00000000e1826ee4       0xaa ./elibrary/bin/liblzma.a(LzmaDec.o)
                0x00000000e1826ee4                LzmaDecode
 *(.stub)
 *(.gnu.warning)
 *(.gnu.linkonce.t*)
                0x00000000e1826f90                . = ALIGN (0x4)
 *fill*         0x00000000e1826f8e        0x2 

.mod.rodata     0x00000000e1826f90    0x103a8
 *(.rodata)
 *fill*         0x00000000e1826f90        0x0 
 .rodata        0x00000000e1826f90      0x188 /home/yuzuki/WorkSpace/melis-v3.0/melis-4.x-release/toolchain/riscv64-elf-x86_64-20201104/bin/../lib/gcc/riscv64-unknown-elf/8.4.0/../../../../riscv64-unknown-elf/lib/rv64imafdcxtheadc/lp64d/libm.a(lib_a-e_rem_pio2.o)
 .rodata        0x00000000e1827118       0x50 /home/yuzuki/WorkSpace/melis-v3.0/melis-4.x-release/toolchain/riscv64-elf-x86_64-20201104/bin/../lib/gcc/riscv64-unknown-elf/8.4.0/../../../../riscv64-unknown-elf/lib/rv64imafdcxtheadc/lp64d/libm.a(lib_a-k_rem_pio2.o)
 *(.rodata.*)
 .rodata.GUI_CharSetToEncode
                0x00000000e1827168       0x84 emodules/mod_orange/built-in.o
 *fill*         0x00000000e18271ec        0x4 
 .rodata.CSWTCH.17
                0x00000000e18271f0       0x15 emodules/mod_orange/built-in.o
 *fill*         0x00000000e1827205        0x3 
 .rodata.CSWTCH.18
                0x00000000e1827208       0x15 emodules/mod_orange/built-in.o
 *fill*         0x00000000e182721d        0x3 
 .rodata.CSWTCH.19
                0x00000000e1827220       0x15 emodules/mod_orange/built-in.o
 *fill*         0x00000000e1827235        0x3 
 .rodata.GUI_GetScreenSize.str1.8
                0x00000000e1827238       0x33 emodules/mod_orange/built-in.o
 *fill*         0x00000000e182726b        0x5 
 .rodata.GUI_Init.str1.8
                0x00000000e1827270       0x5c emodules/mod_orange/built-in.o
 *fill*         0x00000000e18272cc        0x4 
 .rodata.__func__.13016
                0x00000000e18272d0        0x9 emodules/mod_orange/built-in.o
 *fill*         0x00000000e18272d9        0x7 
 .rodata.__func__.13182
                0x00000000e18272e0       0x12 emodules/mod_orange/built-in.o
 *fill*         0x00000000e18272f2        0x6 
 .rodata.GUI_F6x8_Mono
                0x00000000e18272f8       0x20 emodules/mod_orange/built-in.o
                0x00000000e18272f8                GUI_F6x8_Mono
 .rodata.GUI_F6x8_TI8859_1
                0x00000000e1827318       0x10 emodules/mod_orange/built-in.o
                0x00000000e1827318                GUI_F6x8_TI8859_1
 .rodata.GUI_F6x8_TL8859_1
                0x00000000e1827328      0x1c0 emodules/mod_orange/built-in.o
                0x00000000e1827328                GUI_F6x8_TL8859_1
 .rodata.GUI_Font6x8
                0x00000000e18274e8       0x60 emodules/mod_orange/built-in.o
                0x00000000e18274e8                GUI_Font6x8
 .rodata.GUI_acFont6x8
                0x00000000e1827548      0x518 emodules/mod_orange/built-in.o
                0x00000000e1827548                GUI_acFont6x8
 .rodata._RequestGlyph.constprop.3
                0x00000000e1827a60       0x28 emodules/mod_orange/built-in.o
 .rodata.GUI_SFT_CreateFont.str1.8
                0x00000000e1827a88       0x68 emodules/mod_orange/built-in.o
                                         0x98 (size before relaxing)
 .rodata.Pal33gray
                0x00000000e1827af0       0x10 emodules/mod_orange/built-in.o
 .rodata._APIList
                0x00000000e1827b00       0x18 emodules/mod_orange/built-in.o
 .rodata.__func__.13203
                0x00000000e1827b18       0x13 emodules/mod_orange/built-in.o
 *fill*         0x00000000e1827b2b        0x5 
 .rodata.__func__.4898
                0x00000000e1827b30       0x15 emodules/mod_orange/built-in.o
 *fill*         0x00000000e1827b45        0x3 
 .rodata.__func__.4916
                0x00000000e1827b48       0x10 emodules/mod_orange/built-in.o
 .rodata.__sft_get_block_part.str1.8
                0x00000000e1827b58       0xab emodules/mod_orange/built-in.o
                                         0xc3 (size before relaxing)
 *fill*         0x00000000e1827c03        0x5 
 .rodata.sft_fopen.str1.8
                0x00000000e1827c08        0x9 emodules/mod_orange/built-in.o
 *fill*         0x00000000e1827c11        0x7 
 .rodata.sft_fread.str1.8
                0x00000000e1827c18       0x2c emodules/mod_orange/built-in.o
 *fill*         0x00000000e1827c44        0x4 
 .rodata.SFTE_Get_Glyph.str1.8
                0x00000000e1827c48       0x70 emodules/mod_orange/built-in.o
 .rodata.SFTE_Get_Index_Table.str1.8
                0x00000000e1827cb8       0xd8 emodules/mod_orange/built-in.o
 .rodata.SFTE_New_Face.str1.8
                0x00000000e1827d90       0x8a emodules/mod_orange/built-in.o
                                         0xba (size before relaxing)
 *fill*         0x00000000e1827e1a        0x6 
 .rodata.SFTE_Set_Pixel_Sizes.str1.8
                0x00000000e1827e20       0xd7 emodules/mod_orange/built-in.o
                                         0xef (size before relaxing)
 *fill*         0x00000000e1827ef7        0x1 
 .rodata.__func__.4988
                0x00000000e1827ef8        0xe emodules/mod_orange/built-in.o
 *fill*         0x00000000e1827f06        0x2 
 .rodata.__func__.4998
                0x00000000e1827f08       0x15 emodules/mod_orange/built-in.o
 *fill*         0x00000000e1827f1d        0x3 
 .rodata.__func__.5005
                0x00000000e1827f20       0x15 emodules/mod_orange/built-in.o
 *fill*         0x00000000e1827f35        0x3 
 .rodata.__func__.5042
                0x00000000e1827f38       0x11 emodules/mod_orange/built-in.o
 *fill*         0x00000000e1827f49        0x7 
 .rodata.__func__.5060
                0x00000000e1827f50       0x17 emodules/mod_orange/built-in.o
 *fill*         0x00000000e1827f67        0x1 
 .rodata.__func__.5068
                0x00000000e1827f68       0x17 emodules/mod_orange/built-in.o
 *fill*         0x00000000e1827f7f        0x1 
 .rodata.__func__.5079
                0x00000000e1827f80        0xa emodules/mod_orange/built-in.o
 *fill*         0x00000000e1827f8a        0x6 
 .rodata.aSin   0x00000000e1827f90       0x22 emodules/mod_orange/built-in.o
 *fill*         0x00000000e1827fb2        0x6 
 .rodata.aTan   0x00000000e1827fb8       0x22 emodules/mod_orange/built-in.o
                0x00000000e1827fb8                aTan
 *fill*         0x00000000e1827fda        0x6 
 .rodata.GUI_AddBin.str1.8
                0x00000000e1827fe0       0x29 emodules/mod_orange/built-in.o
 *fill*         0x00000000e1828009        0x7 
 .rodata.acHex  0x00000000e1828010       0x10 emodules/mod_orange/built-in.o
 .rodata.GUI_ALLOC_AllocZero.str1.8
                0x00000000e1828020       0x2c emodules/mod_orange/built-in.o
 *fill*         0x00000000e182804c        0x4 
 .rodata.GUI_CreateLayer.str1.8
                0x00000000e1828050       0x2b emodules/mod_orange/built-in.o
                                         0x5b (size before relaxing)
 *fill*         0x00000000e182807b        0x5 
 .rodata.__func__.12980
                0x00000000e1828080       0x10 emodules/mod_orange/built-in.o
 .rodata.GUI_SetClipRect.cst8
                0x00000000e1828090        0x8 emodules/mod_orange/built-in.o
 .rodata.big5_to_unicode_tbl
                0x00000000e1828098     0xd734 emodules/mod_orange/built-in.o
 *fill*         0x00000000e18357cc        0x4 
 .rodata.GUI__API_TableNone
                0x00000000e18357d0       0x20 emodules/mod_orange/built-in.o
                0x00000000e18357d0                GUI__API_TableNone
 .rodata._API_Table
                0x00000000e18357f0      0x400 emodules/mod_orange/built-in.o
 .rodata._GetCharSize.str1.8
                0x00000000e1835bf0       0x29 emodules/mod_orange/built-in.o
 *fill*         0x00000000e1835c19        0x7 
 .rodata.GUI_ALLOC_AllocNoInit.str1.8
                0x00000000e1835c20      0x128 emodules/mod_orange/built-in.o
 .rodata.GUI_ALLOC_Free.str1.8
                0x00000000e1835d48       0x37 emodules/mod_orange/built-in.o
 *fill*         0x00000000e1835d7f        0x1 
 .rodata.GUI_ALLOC_Init.str1.8
                0x00000000e1835d80       0x13 emodules/mod_orange/built-in.o
 *fill*         0x00000000e1835d93        0x5 
 .rodata.GUI_ALLOC_h2p.str1.8
                0x00000000e1835d98       0x79 emodules/mod_orange/built-in.o
 *fill*         0x00000000e1835e11        0x7 
 .rodata._DrawArc.isra.0.cst8
                0x00000000e1835e18       0x20 emodules/mod_orange/built-in.o
 .rodata.GUI_Init_layer.str1.8
                0x00000000e1835e38        0xc emodules/mod_orange/built-in.o
 *fill*         0x00000000e1835e44        0x4 
 .rodata.GUI_Kernel_Init.cst8
                0x00000000e1835e48        0x8 emodules/mod_orange/built-in.o
 .rodata.GUI_Lock.str1.8
                0x00000000e1835e50       0x49 emodules/mod_orange/built-in.o
 *fill*         0x00000000e1835e99        0x7 
 .rodata.GUI_LockAccept.str1.8
                0x00000000e1835ea0       0x48 emodules/mod_orange/built-in.o
 .rodata.GUI_Unlock.str1.8
                0x00000000e1835ee8       0x4c emodules/mod_orange/built-in.o
                                         0x7c (size before relaxing)
 *fill*         0x00000000e1835f34        0x4 
 .rodata._GetTaskNo.str1.8
                0x00000000e1835f38       0x39 emodules/mod_orange/built-in.o
                                         0x79 (size before relaxing)
 *fill*         0x00000000e1835f71        0x7 
 .rodata.__func__.12984
                0x00000000e1835f78        0xb emodules/mod_orange/built-in.o
 *fill*         0x00000000e1835f83        0x5 
 .rodata.__func__.12989
                0x00000000e1835f88        0x9 emodules/mod_orange/built-in.o
 *fill*         0x00000000e1835f91        0x7 
 .rodata.__func__.12994
                0x00000000e1835f98        0xf emodules/mod_orange/built-in.o
 *fill*         0x00000000e1835fa7        0x1 
 .rodata.LCD_DrawBitmap
                0x00000000e1835fa8       0x40 emodules/mod_orange/built-in.o
 .rodata.LCD_DrawBitmap_Trans
                0x00000000e1835fe8       0x40 emodules/mod_orange/built-in.o
 .rodata.LCD_L0_1_APIList
                0x00000000e1836028       0x80 emodules/mod_orange/built-in.o
                0x00000000e1836028                LCD_L0_1_APIList
 .rodata.LCD_L0_2_APIList
                0x00000000e18360a8       0x80 emodules/mod_orange/built-in.o
                0x00000000e18360a8                LCD_L0_2_APIList
 .rodata.LCD_L0_APIList
                0x00000000e1836128       0x80 emodules/mod_orange/built-in.o
                0x00000000e1836128                LCD_L0_APIList
 .rodata.LCD_aMirror
                0x00000000e18361a8      0x100 emodules/mod_orange/built-in.o
                0x00000000e18361a8                LCD_aMirror
 .rodata.LCD_SelectLCD
                0x00000000e18362a8       0x28 emodules/mod_orange/built-in.o
 .rodata.GUI_Fb2Dispfb.str1.8
                0x00000000e18362d0       0x9b emodules/mod_orange/built-in.o
                                         0xe3 (size before relaxing)
 *fill*         0x00000000e183636b        0x5 
 .rodata.__func__.12970
                0x00000000e1836370        0xe emodules/mod_orange/built-in.o
 *fill*         0x00000000e183637e        0x2 
 .rodata.__func__.12975
                0x00000000e1836380        0xe emodules/mod_orange/built-in.o
 *fill*         0x00000000e183638e        0x2 
 .rodata.LCD_L0_DrawBitmap
                0x00000000e1836390       0x40 emodules/mod_orange/built-in.o
 .rodata.LCD2440_SetPixel.str1.8
                0x00000000e18363d0       0x3d emodules/mod_orange/built-in.o
                                         0x6d (size before relaxing)
 *fill*         0x00000000e183640d        0x3 
 .rodata.LCD_L0_DrawHLine.str1.8
                0x00000000e1836410       0x8c emodules/mod_orange/built-in.o
 *fill*         0x00000000e183649c        0x4 
 .rodata.__func__.13063
                0x00000000e18364a0       0x11 emodules/mod_orange/built-in.o
 *fill*         0x00000000e18364b1        0x7 
 .rodata.__func__.13218
                0x00000000e18364b8       0x11 emodules/mod_orange/built-in.o
 *fill*         0x00000000e18364c9        0x3 
 .rodata.LCD_L0_1_DrawBitmap
                0x00000000e18364cc       0x40 emodules/mod_orange/built-in.o
 .rodata.LCD_L0_2_DrawBitmap
                0x00000000e183650c       0x40 emodules/mod_orange/built-in.o
 *fill*         0x00000000e183654c        0x4 
 .rodata.GUI_MEMDEV__CreateFixed.str1.8
                0x00000000e1836550       0x48 emodules/mod_orange/built-in.o
 .rodata._DrawBitmap.str1.8
                0x00000000e1836598       0x39 emodules/mod_orange/built-in.o
                                         0xf9 (size before relaxing)
 *fill*         0x00000000e18365d1        0x7 
 .rodata._XY2PTR_BITOFFSET.str1.8
                0x00000000e18365d8       0x22 emodules/mod_orange/built-in.o
 *fill*         0x00000000e18365fa        0x6 
 .rodata.aID    0x00000000e1836600      0x100 emodules/mod_orange/built-in.o
 .rodata.GUI_MEMDEV__APIList8
                0x00000000e1836700       0x80 emodules/mod_orange/built-in.o
                0x00000000e1836700                GUI_MEMDEV__APIList8
 .rodata._XY2PTR.str1.8
                0x00000000e1836780       0x72 emodules/mod_orange/built-in.o
 .rodata.GUI_MEMDEV__APIList32
                0x00000000e1836780       0x80 emodules/mod_orange/built-in.o
                0x00000000e1836780                GUI_MEMDEV__APIList32
 .rodata.API    0x00000000e1836800       0x30 emodules/mod_orange/built-in.o
 .rodata.GUI_USAGE_BM_AddHLine.str1.8
                0x00000000e1836830       0x47 emodules/mod_orange/built-in.o
 *fill*         0x00000000e1836877        0x1 
 .rodata.GUI_USAGE_BM_AddPixel.str1.8
                0x00000000e1836878       0x30 emodules/mod_orange/built-in.o
 .rodata.GUI_USAGE_BM_Create.str1.8
                0x00000000e18368a8       0x27 emodules/mod_orange/built-in.o
 *fill*         0x00000000e18368cf        0x1 
 .rodata.GUI_MEMDEV__XY2PTR.str1.8
                0x00000000e18368d0       0x2d emodules/mod_orange/built-in.o
 *fill*         0x00000000e18368fd        0x3 
 .rodata.gui_timer_init.str1.8
                0x00000000e1836900        0x9 emodules/mod_orange/built-in.o
 *fill*         0x00000000e1836909        0x7 
 .rodata.str1.8
                0x00000000e1836910        0x9 emodules/mod_orange/built-in.o
 *fill*         0x00000000e1836919        0x7 
 .rodata.GUI_ClientToScreen.cst8
                0x00000000e1836920        0x8 emodules/mod_orange/built-in.o
 .rodata.GUI_WinLock.str1.8
                0x00000000e1836928       0x4c emodules/mod_orange/built-in.o
 *fill*         0x00000000e1836974        0x4 
 .rodata.GUI_WinUnlock.str1.8
                0x00000000e1836978       0x4f emodules/mod_orange/built-in.o
                                         0x7f (size before relaxing)
 *fill*         0x00000000e18369c7        0x1 
 .rodata.__func__.12069
                0x00000000e18369c8        0xe emodules/mod_orange/built-in.o
 *fill*         0x00000000e18369d6        0x2 
 .rodata.__func__.12074
                0x00000000e18369d8        0xc emodules/mod_orange/built-in.o
 *fill*         0x00000000e18369e4        0x4 
 .rodata.GUI_DlgGetFirstButton.str1.8
                0x00000000e18369e8        0x7 emodules/mod_orange/built-in.o
 *fill*         0x00000000e18369ef        0x1 
 .rodata.CSWTCH.1
                0x00000000e18369f0        0xb emodules/mod_orange/built-in.o
 *fill*         0x00000000e18369fb        0x5 
 .rodata.GUI_FBResume.str1.8
                0x00000000e1836a00       0xbc emodules/mod_orange/built-in.o
                                        0x104 (size before relaxing)
 *fill*         0x00000000e1836abc        0x4 
 .rodata.__func__.12110
                0x00000000e1836ac0        0xd emodules/mod_orange/built-in.o
 *fill*         0x00000000e1836acd        0x3 
 .rodata.GUI_LogicLayerRequest.str1.8
                0x00000000e1836ad0       0x6e emodules/mod_orange/built-in.o
 *fill*         0x00000000e1836b3e        0x2 
 .rodata.GUI_LogicLayerSetScnWin.str1.8
                0x00000000e1836b40       0x3d emodules/mod_orange/built-in.o
                                         0x6d (size before relaxing)
 *fill*         0x00000000e1836b7d        0x3 
 .rodata.GUI_LogicLayerSetSrcWin.str1.8
                0x00000000e1836b80       0x4c emodules/mod_orange/built-in.o
 *fill*         0x00000000e1836bcc        0x4 
 .rodata.__func__.12123
                0x00000000e1836bd0       0x28 emodules/mod_orange/built-in.o
 .rodata.__func__.12148
                0x00000000e1836bf8       0x18 emodules/mod_orange/built-in.o
 .rodata.__func__.12200
                0x00000000e1836c10       0x16 emodules/mod_orange/built-in.o
 *fill*         0x00000000e1836c26        0x2 
 .rodata.GUI_LyrWinCreate.str1.8
                0x00000000e1836c28       0x71 emodules/mod_orange/built-in.o
 *fill*         0x00000000e1836c99        0x7 
 .rodata.GUI_LyrWinDelete.str1.8
                0x00000000e1836ca0       0x3c emodules/mod_orange/built-in.o
 *fill*         0x00000000e1836cdc        0x4 
 .rodata.GUI_LyrWinFlushFB.str1.8
                0x00000000e1836ce0       0x28 emodules/mod_orange/built-in.o
                                         0x40 (size before relaxing)
 .rodata.GUI_LyrWinSetSta.str1.8
                0x00000000e1836d08       0x3a emodules/mod_orange/built-in.o
                                         0x6a (size before relaxing)
 *fill*         0x00000000e1836d42        0x6 
 .rodata.__func__.12139
                0x00000000e1836d48        0xc emodules/mod_orange/built-in.o
 *fill*         0x00000000e1836d54        0x4 
 .rodata.__func__.12207
                0x00000000e1836d58       0x12 emodules/mod_orange/built-in.o
 *fill*         0x00000000e1836d6a        0x6 
 .rodata.__func__.12212
                0x00000000e1836d70       0x11 emodules/mod_orange/built-in.o
 *fill*         0x00000000e1836d81        0x7 
 .rodata.__func__.12221
                0x00000000e1836d88       0x11 emodules/mod_orange/built-in.o
 *fill*         0x00000000e1836d99        0x7 
 .rodata.GUI_LyrWinCacheOn.str1.8
                0x00000000e1836da0       0x36 emodules/mod_orange/built-in.o
                                         0x66 (size before relaxing)
 *fill*         0x00000000e1836dd6        0x2 
 .rodata.__func__.12084
                0x00000000e1836dd8       0x12 emodules/mod_orange/built-in.o
 *fill*         0x00000000e1836dea        0x6 
 .rodata.__func__.12090
                0x00000000e1836df0       0x13 emodules/mod_orange/built-in.o
 *fill*         0x00000000e1836e03        0x1 
 .rodata.GUI_DefTouchMsgHandler
                0x00000000e1836e04       0x3c emodules/mod_orange/built-in.o
 .rodata.RegisterButtonControl.str1.8
                0x00000000e1836e40        0x7 emodules/mod_orange/built-in.o
 .rodata.RegisterStaticControl.str1.8
                0x00000000e1836e40        0x7 emodules/mod_orange/built-in.o
 *fill*         0x00000000e1836e47        0x1 
 .rodata.CSWTCH.6
                0x00000000e1836e48        0xb emodules/mod_orange/built-in.o
 *fill*         0x00000000e1836e53        0x1 
 .rodata.ListLayer_OnMesssage
                0x00000000e1836e54       0x20 emodules/mod_orange/built-in.o
 .rodata.GUI_LstmPrivCreate
                0x00000000e1836e74       0x3c emodules/mod_orange/built-in.o
 .rodata.RegisterListMenuControl.str1.8
                0x00000000e1836eb0        0x9 emodules/mod_orange/built-in.o
 *fill*         0x00000000e1836eb9        0x7 
 .rodata.__func__.12025
                0x00000000e1836ec0        0x9 emodules/mod_orange/built-in.o
 *fill*         0x00000000e1836ec9        0x7 
 .rodata.bmp_open.str1.8
                0x00000000e1836ed0       0x28 emodules/mod_orange/built-in.o
                                         0x58 (size before relaxing)
 .rodata.RegisterSliderControl.str1.8
                0x00000000e1836ef8        0xc emodules/mod_orange/built-in.o
 *fill*         0x00000000e1836f04        0x4 
 .rodata._SliderCtrlProc.str1.8
                0x00000000e1836f08       0x9d emodules/mod_orange/built-in.o
 *fill*         0x00000000e1836fa5        0x3 
 .rodata.__func__.12296
                0x00000000e1836fa8        0xc emodules/mod_orange/built-in.o
 *fill*         0x00000000e1836fb4        0x4 
 .rodata.__func__.12317
                0x00000000e1836fb8       0x12 emodules/mod_orange/built-in.o
 *fill*         0x00000000e1836fca        0x6 
 .rodata.__func__.12341
                0x00000000e1836fd0       0x12 emodules/mod_orange/built-in.o
 *fill*         0x00000000e1836fe2        0x6 
 .rodata.__func__.12365
                0x00000000e1836fe8       0x12 emodules/mod_orange/built-in.o
 *fill*         0x00000000e1836ffa        0x6 
 .rodata.__func__.12389
                0x00000000e1837000       0x12 emodules/mod_orange/built-in.o
 *fill*         0x00000000e1837012        0x6 
 .rodata.__func__.12508
                0x00000000e1837018       0x15 emodules/mod_orange/built-in.o
 *fill*         0x00000000e183702d        0x3 
 .rodata._get_layer_bk_matrix.str1.8
                0x00000000e1837030       0x38 emodules/mod_orange/built-in.o
                                         0x68 (size before relaxing)
 .rodata.TxtBoxCtrlProc
                0x00000000e1837068       0x20 emodules/mod_orange/built-in.o
 .rodata.RegisterTxtboxControl.str1.8
                0x00000000e1837088        0x7 emodules/mod_orange/built-in.o
 *fill*         0x00000000e183708f        0x1 
 .rodata.CSWTCH.7
                0x00000000e1837090        0xb emodules/mod_orange/built-in.o
 *fill*         0x00000000e183709b        0x5 
 .rodata.TxtLayer_GetLayerInfo.part.0.str1.8
                0x00000000e18370a0        0xf emodules/mod_orange/built-in.o
 *fill*         0x00000000e18370af        0x1 
 .rodata.charset_enm2gui
                0x00000000e18370b0       0x84 emodules/mod_orange/built-in.o
 .rodata.MsgBoxProc
                0x00000000e1837134       0x4c emodules/mod_orange/built-in.o
 .rodata.GUI_GMsgBox
                0x00000000e1837180       0x18 emodules/mod_orange/built-in.o
 .rodata.GUI_GMsgBox.str1.8
                0x00000000e1837198        0x7 emodules/mod_orange/built-in.o
 .rodata.SListbox_PrivCreate
                0x00000000e1837198       0x20 emodules/mod_orange/built-in.o
 .rodata.RegisterListBoxControl.str1.8
                0x00000000e18371b8        0x9 emodules/mod_orange/built-in.o
 *fill*         0x00000000e18371c1        0x7 
 .rodata.Lang_Open.str1.8
                0x00000000e18371c8       0x11 emodules/mod_orange/built-in.o
 *fill*         0x00000000e18371d9        0x7 
 .rodata.OpenRes.str1.8
                0x00000000e18371e0        0x7 emodules/mod_orange/built-in.o
 *fill*         0x00000000e18371e7        0x1 
 .rodata.__func__.6248
                0x00000000e18371e8        0xc ./elibrary/bin/libminic.a(elibs_stdio.o)
 *fill*         0x00000000e18371f4        0x4 
 .rodata.eLIBs_fseek.str1.8
                0x00000000e18371f8       0x30 ./elibrary/bin/libminic.a(elibs_stdio.o)
                                         0x60 (size before relaxing)
 .rodata.AZ100_IsCompress.str1.8
                0x00000000e1837228        0x8 ./elibrary/bin/liblzma.a(az100.o)
                                          0x5 (size before relaxing)
 .rodata.cst8   0x00000000e1837230        0x8 /home/yuzuki/WorkSpace/melis-v3.0/melis-4.x-release/toolchain/riscv64-elf-x86_64-20201104/bin/../lib/gcc/riscv64-unknown-elf/8.4.0/../../../../riscv64-unknown-elf/lib/rv64imafdcxtheadc/lp64d/libc.a(lib_a-strlen.o)
 .rodata.cst8   0x00000000e1837238        0x8 /home/yuzuki/WorkSpace/melis-v3.0/melis-4.x-release/toolchain/riscv64-elf-x86_64-20201104/bin/../lib/gcc/riscv64-unknown-elf/8.4.0/../../../../riscv64-unknown-elf/lib/rv64imafdcxtheadc/lp64d/libm.a(lib_a-s_ceil.o)
 .rodata.cst8   0x00000000e1837240        0x8 /home/yuzuki/WorkSpace/melis-v3.0/melis-4.x-release/toolchain/riscv64-elf-x86_64-20201104/bin/../lib/gcc/riscv64-unknown-elf/8.4.0/../../../../riscv64-unknown-elf/lib/rv64imafdcxtheadc/lp64d/libm.a(lib_a-s_floor.o)
 .rodata.cst8   0x00000000e1837240       0x40 /home/yuzuki/WorkSpace/melis-v3.0/melis-4.x-release/toolchain/riscv64-elf-x86_64-20201104/bin/../lib/gcc/riscv64-unknown-elf/8.4.0/../../../../riscv64-unknown-elf/lib/rv64imafdcxtheadc/lp64d/libm.a(lib_a-e_rem_pio2.o)
                                         0x48 (size before relaxing)
 .rodata.cst8   0x00000000e1837280       0x48 /home/yuzuki/WorkSpace/melis-v3.0/melis-4.x-release/toolchain/riscv64-elf-x86_64-20201104/bin/../lib/gcc/riscv64-unknown-elf/8.4.0/../../../../riscv64-unknown-elf/lib/rv64imafdcxtheadc/lp64d/libm.a(lib_a-k_cos.o)
                                         0x50 (size before relaxing)
 .rodata.cst8   0x00000000e18372c8       0x20 /home/yuzuki/WorkSpace/melis-v3.0/melis-4.x-release/toolchain/riscv64-elf-x86_64-20201104/bin/../lib/gcc/riscv64-unknown-elf/8.4.0/../../../../riscv64-unknown-elf/lib/rv64imafdcxtheadc/lp64d/libm.a(lib_a-k_rem_pio2.o)
                                         0x38 (size before relaxing)
 .rodata.cst8   0x00000000e18372e8       0x38 /home/yuzuki/WorkSpace/melis-v3.0/melis-4.x-release/toolchain/riscv64-elf-x86_64-20201104/bin/../lib/gcc/riscv64-unknown-elf/8.4.0/../../../../riscv64-unknown-elf/lib/rv64imafdcxtheadc/lp64d/libm.a(lib_a-k_sin.o)
                                         0x40 (size before relaxing)
 .rodata.cst8   0x00000000e1837320       0x18 /home/yuzuki/WorkSpace/melis-v3.0/melis-4.x-release/toolchain/riscv64-elf-x86_64-20201104/bin/../lib/gcc/riscv64-unknown-elf/8.4.0/../../../../riscv64-unknown-elf/lib/rv64imafdcxtheadc/lp64d/libm.a(lib_a-s_scalbn.o)
                                         0x20 (size before relaxing)
 *(.gnu.linkonce.r*)
                0x00000000e1837338                . = ALIGN (0x4)

.mod.data       0x00000000e1837338      0x570
 *(.data)
 *(.data.*)
 .data.gui_zoom_rect
                0x00000000e1837338       0x10 emodules/mod_orange/built-in.o
                0x00000000e1837338                gui_zoom_rect
 .data.FRAME_A  0x00000000e1837348        0x1 emodules/mod_orange/built-in.o
 *fill*         0x00000000e1837349        0x7 
 .data.Colors33_b
                0x00000000e1837350      0x400 emodules/mod_orange/built-in.o
 .data.g_gui_alloc_size
                0x00000000e1837750        0x4 emodules/mod_orange/built-in.o
 .data._CurrentTaskNo
                0x00000000e1837754        0x8 emodules/mod_orange/built-in.o
 *fill*         0x00000000e183775c        0x4 
 .data.LCD_aAPI
                0x00000000e1837760      0x100 emodules/mod_orange/built-in.o
                0x00000000e1837760                LCD_aAPI
 .data.backwin_para
                0x00000000e1837860       0x30 emodules/mod_orange/built-in.o
 .data.last_key
                0x00000000e1837890        0x8 emodules/mod_orange/built-in.o
 .data.g_Alloc  0x00000000e1837898       0x10 ./elibrary/bin/liblzma.a(LzmaLib.o)
 *(.gnu.linkonce.d.*)
 *(.sdata)
 *(.sdata.*)
 *(.gnu.linkonce.s.*)
 *(.sdata2)
 *(.sdata2.*)
 *(.gnu.linkonce.s2.*)
                0x00000000e18378a8                . = ALIGN (0x4)

.mod.bss        0x00000000e18378a8    0x44740
                0x00000000e18378a8                __bss_start = ABSOLUTE (.)
 *(.bss)
 *(.bss.*)
 .bss.orange    0x00000000e18378a8      0x110 emodules/mod_orange/mod_orange.o
                0x00000000e18378a8                orange
 .bss.g_rcScr   0x00000000e18379b8       0x10 emodules/mod_orange/built-in.o
                0x00000000e18379b8                g_rcScr
 .bss.gui_scndir
                0x00000000e18379c8        0x1 emodules/mod_orange/built-in.o
                0x00000000e18379c8                gui_scndir
 *fill*         0x00000000e18379c9        0x7 
 .bss.DispSem   0x00000000e18379d0        0x8 emodules/mod_orange/built-in.o
 .bss.EventMbox
                0x00000000e18379d8        0x8 emodules/mod_orange/built-in.o
 .bss.KeySem    0x00000000e18379e0        0x8 emodules/mod_orange/built-in.o
 .bss.gshow_info
                0x00000000e18379e8       0x80 emodules/mod_orange/built-in.o
 .bss.lstrLock  0x00000000e1837a68        0x8 emodules/mod_orange/built-in.o
 .bss.run_sem   0x00000000e1837a70        0x8 emodules/mod_orange/built-in.o
 .bss.str_Inited
                0x00000000e1837a78        0x1 emodules/mod_orange/built-in.o
 *fill*         0x00000000e1837a79        0x3 
 .bss.string_show_task
                0x00000000e1837a7c        0x4 emodules/mod_orange/built-in.o
 .bss.Colors_aRGB
                0x00000000e1837a80      0x400 emodules/mod_orange/built-in.o
 .bss.MonoFontBuf
                0x00000000e1837e80      0x9c4 emodules/mod_orange/built-in.o
 .bss.SHADOW_SIZE
                0x00000000e1838844        0x4 emodules/mod_orange/built-in.o
                0x00000000e1838844                SHADOW_SIZE
 .bss.fontBuffer
                0x00000000e1838848     0x2710 emodules/mod_orange/built-in.o
 .bss.magbuffer
                0x00000000e183af58     0x9c40 emodules/mod_orange/built-in.o
 .bss.GL_FP_Cnt
                0x00000000e1844b98        0x4 emodules/mod_orange/built-in.o
 *fill*         0x00000000e1844b9c        0x4 
 .bss._aX       0x00000000e1844ba0       0x18 emodules/mod_orange/built-in.o
 .bss.GUI_ALLOC
                0x00000000e1844bb8       0x18 emodules/mod_orange/built-in.o
                0x00000000e1844bb8                GUI_ALLOC
 .bss.GUI_Heap  0x00000000e1844bd0        0x8 emodules/mod_orange/built-in.o
                0x00000000e1844bd0                GUI_Heap
 .bss.IsInitialized
                0x00000000e1844bd8        0x1 emodules/mod_orange/built-in.o
 *fill*         0x00000000e1844bd9        0x7 
 .bss.aBlock    0x00000000e1844be0        0x8 emodules/mod_orange/built-in.o
 .bss.GUI_Context
                0x00000000e1844be8      0x358 emodules/mod_orange/built-in.o
                0x00000000e1844be8                GUI_Context
 .bss.GUI_DecChar
                0x00000000e1844f40        0x1 emodules/mod_orange/built-in.o
                0x00000000e1844f40                GUI_DecChar
 *fill*         0x00000000e1844f41        0x7 
 .bss.GUI_LayerInfo
                0x00000000e1844f48      0x100 emodules/mod_orange/built-in.o
                0x00000000e1844f48                GUI_LayerInfo
 .bss.GUI_pLCD_APIList
                0x00000000e1845048        0x8 emodules/mod_orange/built-in.o
                0x00000000e1845048                GUI_pLCD_APIList
 .bss.Screen_Context
                0x00000000e1845050      0x120 emodules/mod_orange/built-in.o
                0x00000000e1845050                Screen_Context
 .bss._EntranceCnt
                0x00000000e1845170        0x8 emodules/mod_orange/built-in.o
 .bss._Save     0x00000000e1845178    0x36400 emodules/mod_orange/built-in.o
 .bss._TaskIDLock
                0x00000000e187b578        0x8 emodules/mod_orange/built-in.o
 .bss.LCD__aConvTable
                0x00000000e187b580      0x400 emodules/mod_orange/built-in.o
                0x00000000e187b580                LCD__aConvTable
 .bss.gtimer    0x00000000e187b980      0x100 emodules/mod_orange/built-in.o
 .bss.gui_timer_counter
                0x00000000e187ba80        0x4 emodules/mod_orange/built-in.o
                0x00000000e187ba80                gui_timer_counter
 *fill*         0x00000000e187ba84        0x4 
 .bss.timerLock
                0x00000000e187ba88        0x8 emodules/mod_orange/built-in.o
 .bss.timer_task
                0x00000000e187ba90        0x4 emodules/mod_orange/built-in.o
 *fill*         0x00000000e187ba94        0x4 
 .bss.qmsg_blk  0x00000000e187ba98       0x20 emodules/mod_orange/built-in.o
 .bss.active_mainwnd
                0x00000000e187bab8        0x8 emodules/mod_orange/built-in.o
                0x00000000e187bab8                active_mainwnd
 .bss.capture_wnd
                0x00000000e187bac0        0x8 emodules/mod_orange/built-in.o
                0x00000000e187bac0                capture_wnd
 .bss.h_backwin
                0x00000000e187bac8        0x8 emodules/mod_orange/built-in.o
 .bss.sg_InVisLayerList
                0x00000000e187bad0        0x8 emodules/mod_orange/built-in.o
                0x00000000e187bad0                sg_InVisLayerList
 .bss.sg_VisiLayerList
                0x00000000e187bad8        0x8 emodules/mod_orange/built-in.o
                0x00000000e187bad8                sg_VisiLayerList
 .bss.sg_VisiSpriteList
                0x00000000e187bae0        0x8 emodules/mod_orange/built-in.o
                0x00000000e187bae0                sg_VisiSpriteList
 .bss.touchfocus_wnd
                0x00000000e187bae8        0x8 emodules/mod_orange/built-in.o
                0x00000000e187bae8                touchfocus_wnd
 .bss.WinSem    0x00000000e187baf0        0x8 emodules/mod_orange/built-in.o
 .bss.ccitable  0x00000000e187baf8       0xd0 emodules/mod_orange/built-in.o
                0x00000000e187baf8                ccitable
 .bss.gcuv_global
                0x00000000e187bbc8       0x10 emodules/mod_orange/built-in.o
 .bss.start_pos
                0x00000000e187bbd8        0x4 emodules/mod_orange/built-in.o
 *fill*         0x00000000e187bbdc        0x4 
 .bss.default_msg
                0x00000000e187bbe0        0x8 emodules/mod_orange/built-in.o
                0x00000000e187bbe0                default_msg
 .bss.buffer.6522
                0x00000000e187bbe8      0x400 ./elibrary/bin/libminic.a(elibs_stdio.o)
 *(.gnu.linkonce.b.*)
 *(.sbss)
 *(.sbss.*)
 *(.gnu.linkonce.sb.*)
 *(.sbss2)
 *(.sbss2.*)
 *(.gnu.linkonce.sb2.*)
 *(COMMON)
 *(.scommon)
                0x00000000e187bfe8                . = ALIGN (0x4)
                0x00000000e187bfe8                __bss_end = ABSOLUTE (.)
                0x00000000e187bfe8                _end = ABSOLUTE (.)

MAGIC           0x00000000ffff0000       0x50
 *.o(.magic)
 .magic         0x00000000ffff0000       0x50 emodules/mod_orange/magic.o
                0x00000000ffff0000                modinfo

.note
 *(.note)

.stab
 *(.stab)

.stabstr
 *(.stabstr)

.stab.excl
 *(.stab.excl)

.stab.exclstr
 *(.stab.exclstr)

.stab.index
 *(.stab.index)

.stab.indexstr
 *(.stab.indexstr)

.mdebug
 *(.mdebug)

.reginfo
 *(.reginfo)

.comment        0x0000000000000000       0x32
 *(.comment)
 .comment       0x0000000000000000       0x32 emodules/mod_orange/mod_orange.o
                                         0x33 (size before relaxing)
 .comment       0x0000000000000032       0x33 emodules/mod_orange/orange_mod_api.o
 .comment       0x0000000000000032       0x33 emodules/mod_orange/magic.o
 .comment       0x0000000000000032     0x41f1 emodules/mod_orange/built-in.o
 .comment       0x0000000000000032       0x33 ./elibrary/bin/libsyscall.a(syscall.o)
 .comment       0x0000000000000032       0x33 ./elibrary/bin/libminic.a(elibs_stdio.o)
 .comment       0x0000000000000032       0x33 ./elibrary/bin/libminic.a(elibs_stdlib.o)
 .comment       0x0000000000000032       0x33 ./elibrary/bin/libminic.a(elibs_string.o)
 .comment       0x0000000000000032       0x33 ./elibrary/bin/libminic.a(elibs_sprintf.o)
 .comment       0x0000000000000032       0x33 ./elibrary/bin/liblzma.a(az100.o)
 .comment       0x0000000000000032       0x33 ./elibrary/bin/liblzma.a(compress.o)
 .comment       0x0000000000000032       0x33 ./elibrary/bin/liblzma.a(LzmaLib.o)
 .comment       0x0000000000000032       0x33 ./elibrary/bin/liblzma.a(LzmaDec.o)
 .comment       0x0000000000000032       0x33 /home/yuzuki/WorkSpace/melis-v3.0/melis-4.x-release/toolchain/riscv64-elf-x86_64-20201104/bin/../lib/gcc/riscv64-unknown-elf/8.4.0/../../../../riscv64-unknown-elf/lib/rv64imafdcxtheadc/lp64d/libc.a(lib_a-memcpy.o)
 .comment       0x0000000000000032       0x33 /home/yuzuki/WorkSpace/melis-v3.0/melis-4.x-release/toolchain/riscv64-elf-x86_64-20201104/bin/../lib/gcc/riscv64-unknown-elf/8.4.0/../../../../riscv64-unknown-elf/lib/rv64imafdcxtheadc/lp64d/libc.a(lib_a-memmove-stub.o)
 .comment       0x0000000000000032       0x33 /home/yuzuki/WorkSpace/melis-v3.0/melis-4.x-release/toolchain/riscv64-elf-x86_64-20201104/bin/../lib/gcc/riscv64-unknown-elf/8.4.0/../../../../riscv64-unknown-elf/lib/rv64imafdcxtheadc/lp64d/libc.a(lib_a-strlen.o)
 .comment       0x0000000000000032       0x33 /home/yuzuki/WorkSpace/melis-v3.0/melis-4.x-release/toolchain/riscv64-elf-x86_64-20201104/bin/../lib/gcc/riscv64-unknown-elf/8.4.0/../../../../riscv64-unknown-elf/lib/rv64imafdcxtheadc/lp64d/libm.a(lib_a-s_ceil.o)
 .comment       0x0000000000000032       0x33 /home/yuzuki/WorkSpace/melis-v3.0/melis-4.x-release/toolchain/riscv64-elf-x86_64-20201104/bin/../lib/gcc/riscv64-unknown-elf/8.4.0/../../../../riscv64-unknown-elf/lib/rv64imafdcxtheadc/lp64d/libm.a(lib_a-s_cos.o)
 .comment       0x0000000000000032       0x33 /home/yuzuki/WorkSpace/melis-v3.0/melis-4.x-release/toolchain/riscv64-elf-x86_64-20201104/bin/../lib/gcc/riscv64-unknown-elf/8.4.0/../../../../riscv64-unknown-elf/lib/rv64imafdcxtheadc/lp64d/libm.a(lib_a-s_floor.o)
 .comment       0x0000000000000032       0x33 /home/yuzuki/WorkSpace/melis-v3.0/melis-4.x-release/toolchain/riscv64-elf-x86_64-20201104/bin/../lib/gcc/riscv64-unknown-elf/8.4.0/../../../../riscv64-unknown-elf/lib/rv64imafdcxtheadc/lp64d/libm.a(lib_a-s_sin.o)
 .comment       0x0000000000000032       0x33 /home/yuzuki/WorkSpace/melis-v3.0/melis-4.x-release/toolchain/riscv64-elf-x86_64-20201104/bin/../lib/gcc/riscv64-unknown-elf/8.4.0/../../../../riscv64-unknown-elf/lib/rv64imafdcxtheadc/lp64d/libm.a(lib_a-e_rem_pio2.o)
 .comment       0x0000000000000032       0x33 /home/yuzuki/WorkSpace/melis-v3.0/melis-4.x-release/toolchain/riscv64-elf-x86_64-20201104/bin/../lib/gcc/riscv64-unknown-elf/8.4.0/../../../../riscv64-unknown-elf/lib/rv64imafdcxtheadc/lp64d/libm.a(lib_a-k_cos.o)
 .comment       0x0000000000000032       0x33 /home/yuzuki/WorkSpace/melis-v3.0/melis-4.x-release/toolchain/riscv64-elf-x86_64-20201104/bin/../lib/gcc/riscv64-unknown-elf/8.4.0/../../../../riscv64-unknown-elf/lib/rv64imafdcxtheadc/lp64d/libm.a(lib_a-k_rem_pio2.o)
 .comment       0x0000000000000032       0x33 /home/yuzuki/WorkSpace/melis-v3.0/melis-4.x-release/toolchain/riscv64-elf-x86_64-20201104/bin/../lib/gcc/riscv64-unknown-elf/8.4.0/../../../../riscv64-unknown-elf/lib/rv64imafdcxtheadc/lp64d/libm.a(lib_a-k_sin.o)
 .comment       0x0000000000000032       0x33 /home/yuzuki/WorkSpace/melis-v3.0/melis-4.x-release/toolchain/riscv64-elf-x86_64-20201104/bin/../lib/gcc/riscv64-unknown-elf/8.4.0/../../../../riscv64-unknown-elf/lib/rv64imafdcxtheadc/lp64d/libm.a(lib_a-s_fabs.o)
 .comment       0x0000000000000032       0x33 /home/yuzuki/WorkSpace/melis-v3.0/melis-4.x-release/toolchain/riscv64-elf-x86_64-20201104/bin/../lib/gcc/riscv64-unknown-elf/8.4.0/../../../../riscv64-unknown-elf/lib/rv64imafdcxtheadc/lp64d/libm.a(lib_a-s_scalbn.o)
 .comment       0x0000000000000032       0x33 /home/yuzuki/WorkSpace/melis-v3.0/melis-4.x-release/toolchain/riscv64-elf-x86_64-20201104/bin/../lib/gcc/riscv64-unknown-elf/8.4.0/../../../../riscv64-unknown-elf/lib/rv64imafdcxtheadc/lp64d/libm.a(lib_a-s_copysign.o)

.ARM.attributes
 *(.ARM.attributes)

.riscv.attributes
                0x0000000000000000       0x48
 *(.riscv.attributes)
 .riscv.attributes
                0x0000000000000000       0x3d emodules/mod_orange/mod_orange.o
 .riscv.attributes
                0x000000000000003d       0x3d emodules/mod_orange/orange_mod_api.o
 .riscv.attributes
                0x000000000000007a       0x3d emodules/mod_orange/magic.o
 .riscv.attributes
                0x00000000000000b7       0x3d emodules/mod_orange/built-in.o
 .riscv.attributes
                0x00000000000000f4       0x3d ./elibrary/bin/libsyscall.a(syscall.o)
 .riscv.attributes
                0x0000000000000131       0x3d ./elibrary/bin/libminic.a(elibs_stdio.o)
 .riscv.attributes
                0x000000000000016e       0x3d ./elibrary/bin/libminic.a(elibs_stdlib.o)
 .riscv.attributes
                0x00000000000001ab       0x3d ./elibrary/bin/libminic.a(elibs_string.o)
 .riscv.attributes
                0x00000000000001e8       0x3d ./elibrary/bin/libminic.a(elibs_sprintf.o)
 .riscv.attributes
                0x0000000000000225       0x3d ./elibrary/bin/liblzma.a(az100.o)
 .riscv.attributes
                0x0000000000000262       0x3d ./elibrary/bin/liblzma.a(compress.o)
 .riscv.attributes
                0x000000000000029f       0x3d ./elibrary/bin/liblzma.a(LzmaLib.o)
 .riscv.attributes
                0x00000000000002dc       0x3d ./elibrary/bin/liblzma.a(LzmaDec.o)
 .riscv.attributes
                0x0000000000000319       0x3e /home/yuzuki/WorkSpace/melis-v3.0/melis-4.x-release/toolchain/riscv64-elf-x86_64-20201104/bin/../lib/gcc/riscv64-unknown-elf/8.4.0/../../../../riscv64-unknown-elf/lib/rv64imafdcxtheadc/lp64d/libc.a(lib_a-memcpy.o)
 .riscv.attributes
                0x0000000000000357       0x3e /home/yuzuki/WorkSpace/melis-v3.0/melis-4.x-release/toolchain/riscv64-elf-x86_64-20201104/bin/../lib/gcc/riscv64-unknown-elf/8.4.0/../../../../riscv64-unknown-elf/lib/rv64imafdcxtheadc/lp64d/libc.a(lib_a-memmove-stub.o)
 .riscv.attributes
                0x0000000000000395       0x3e /home/yuzuki/WorkSpace/melis-v3.0/melis-4.x-release/toolchain/riscv64-elf-x86_64-20201104/bin/../lib/gcc/riscv64-unknown-elf/8.4.0/../../../../riscv64-unknown-elf/lib/rv64imafdcxtheadc/lp64d/libc.a(lib_a-memset.o)
 .riscv.attributes
                0x00000000000003d3       0x3e /home/yuzuki/WorkSpace/melis-v3.0/melis-4.x-release/toolchain/riscv64-elf-x86_64-20201104/bin/../lib/gcc/riscv64-unknown-elf/8.4.0/../../../../riscv64-unknown-elf/lib/rv64imafdcxtheadc/lp64d/libc.a(lib_a-strlen.o)
 .riscv.attributes
                0x0000000000000411       0x3e /home/yuzuki/WorkSpace/melis-v3.0/melis-4.x-release/toolchain/riscv64-elf-x86_64-20201104/bin/../lib/gcc/riscv64-unknown-elf/8.4.0/../../../../riscv64-unknown-elf/lib/rv64imafdcxtheadc/lp64d/libm.a(lib_a-s_ceil.o)
 .riscv.attributes
                0x000000000000044f       0x3e /home/yuzuki/WorkSpace/melis-v3.0/melis-4.x-release/toolchain/riscv64-elf-x86_64-20201104/bin/../lib/gcc/riscv64-unknown-elf/8.4.0/../../../../riscv64-unknown-elf/lib/rv64imafdcxtheadc/lp64d/libm.a(lib_a-s_cos.o)
 .riscv.attributes
                0x000000000000048d       0x3e /home/yuzuki/WorkSpace/melis-v3.0/melis-4.x-release/toolchain/riscv64-elf-x86_64-20201104/bin/../lib/gcc/riscv64-unknown-elf/8.4.0/../../../../riscv64-unknown-elf/lib/rv64imafdcxtheadc/lp64d/libm.a(lib_a-s_floor.o)
 .riscv.attributes
                0x00000000000004cb       0x3e /home/yuzuki/WorkSpace/melis-v3.0/melis-4.x-release/toolchain/riscv64-elf-x86_64-20201104/bin/../lib/gcc/riscv64-unknown-elf/8.4.0/../../../../riscv64-unknown-elf/lib/rv64imafdcxtheadc/lp64d/libm.a(lib_a-s_sin.o)
 .riscv.attributes
                0x0000000000000509       0x3e /home/yuzuki/WorkSpace/melis-v3.0/melis-4.x-release/toolchain/riscv64-elf-x86_64-20201104/bin/../lib/gcc/riscv64-unknown-elf/8.4.0/../../../../riscv64-unknown-elf/lib/rv64imafdcxtheadc/lp64d/libm.a(lib_a-e_rem_pio2.o)
 .riscv.attributes
                0x0000000000000547       0x3e /home/yuzuki/WorkSpace/melis-v3.0/melis-4.x-release/toolchain/riscv64-elf-x86_64-20201104/bin/../lib/gcc/riscv64-unknown-elf/8.4.0/../../../../riscv64-unknown-elf/lib/rv64imafdcxtheadc/lp64d/libm.a(lib_a-k_cos.o)
 .riscv.attributes
                0x0000000000000585       0x3e /home/yuzuki/WorkSpace/melis-v3.0/melis-4.x-release/toolchain/riscv64-elf-x86_64-20201104/bin/../lib/gcc/riscv64-unknown-elf/8.4.0/../../../../riscv64-unknown-elf/lib/rv64imafdcxtheadc/lp64d/libm.a(lib_a-k_rem_pio2.o)
 .riscv.attributes
                0x00000000000005c3       0x3e /home/yuzuki/WorkSpace/melis-v3.0/melis-4.x-release/toolchain/riscv64-elf-x86_64-20201104/bin/../lib/gcc/riscv64-unknown-elf/8.4.0/../../../../riscv64-unknown-elf/lib/rv64imafdcxtheadc/lp64d/libm.a(lib_a-k_sin.o)
 .riscv.attributes
                0x0000000000000601       0x3e /home/yuzuki/WorkSpace/melis-v3.0/melis-4.x-release/toolchain/riscv64-elf-x86_64-20201104/bin/../lib/gcc/riscv64-unknown-elf/8.4.0/../../../../riscv64-unknown-elf/lib/rv64imafdcxtheadc/lp64d/libm.a(lib_a-s_fabs.o)
 .riscv.attributes
                0x000000000000063f       0x3e /home/yuzuki/WorkSpace/melis-v3.0/melis-4.x-release/toolchain/riscv64-elf-x86_64-20201104/bin/../lib/gcc/riscv64-unknown-elf/8.4.0/../../../../riscv64-unknown-elf/lib/rv64imafdcxtheadc/lp64d/libm.a(lib_a-s_scalbn.o)
 .riscv.attributes
                0x000000000000067d       0x3e /home/yuzuki/WorkSpace/melis-v3.0/melis-4.x-release/toolchain/riscv64-elf-x86_64-20201104/bin/../lib/gcc/riscv64-unknown-elf/8.4.0/../../../../riscv64-unknown-elf/lib/rv64imafdcxtheadc/lp64d/libm.a(lib_a-s_copysign.o)

/DISCARD/
 *(.note.GNU-stack)
 *(.ARM.exidx* .gnu.linkonce.armexidx.*)
OUTPUT(emodules/mod_orange/orange.o elf64-littleriscv)

.debug_info     0x0000000000000000   0x3aae00
 .debug_info    0x0000000000000000     0x21e3 emodules/mod_orange/mod_orange.o
 .debug_info    0x00000000000021e3     0x73bd emodules/mod_orange/orange_mod_api.o
 .debug_info    0x00000000000095a0     0x21a5 emodules/mod_orange/magic.o
 .debug_info    0x000000000000b745   0x384be4 emodules/mod_orange/built-in.o
 .debug_info    0x0000000000390329    0x12385 ./elibrary/bin/libsyscall.a(syscall.o)
 .debug_info    0x00000000003a26ae     0x2bb0 ./elibrary/bin/libminic.a(elibs_stdio.o)
 .debug_info    0x00000000003a525e     0x1748 ./elibrary/bin/libminic.a(elibs_stdlib.o)
 .debug_info    0x00000000003a69a6      0xb29 ./elibrary/bin/libminic.a(elibs_string.o)
 .debug_info    0x00000000003a74cf      0x7d2 ./elibrary/bin/libminic.a(elibs_sprintf.o)
 .debug_info    0x00000000003a7ca1      0xf37 ./elibrary/bin/liblzma.a(az100.o)
 .debug_info    0x00000000003a8bd8      0x13f ./elibrary/bin/liblzma.a(compress.o)
 .debug_info    0x00000000003a8d17      0x271 ./elibrary/bin/liblzma.a(LzmaLib.o)
 .debug_info    0x00000000003a8f88     0x1e78 ./elibrary/bin/liblzma.a(LzmaDec.o)

.debug_abbrev   0x0000000000000000    0x3cfda
 .debug_abbrev  0x0000000000000000      0x359 emodules/mod_orange/mod_orange.o
 .debug_abbrev  0x0000000000000359      0x2a3 emodules/mod_orange/orange_mod_api.o
 .debug_abbrev  0x00000000000005fc      0x247 emodules/mod_orange/magic.o
 .debug_abbrev  0x0000000000000843    0x3b2c0 emodules/mod_orange/built-in.o
 .debug_abbrev  0x000000000003bb03      0x3a2 ./elibrary/bin/libsyscall.a(syscall.o)
 .debug_abbrev  0x000000000003bea5      0x40b ./elibrary/bin/libminic.a(elibs_stdio.o)
 .debug_abbrev  0x000000000003c2b0      0x2bd ./elibrary/bin/libminic.a(elibs_stdlib.o)
 .debug_abbrev  0x000000000003c56d      0x146 ./elibrary/bin/libminic.a(elibs_string.o)
 .debug_abbrev  0x000000000003c6b3      0x13e ./elibrary/bin/libminic.a(elibs_sprintf.o)
 .debug_abbrev  0x000000000003c7f1      0x238 ./elibrary/bin/liblzma.a(az100.o)
 .debug_abbrev  0x000000000003ca29       0x79 ./elibrary/bin/liblzma.a(compress.o)
 .debug_abbrev  0x000000000003caa2      0x11b ./elibrary/bin/liblzma.a(LzmaLib.o)
 .debug_abbrev  0x000000000003cbbd      0x41d ./elibrary/bin/liblzma.a(LzmaDec.o)

.debug_loc      0x0000000000000000    0x65159
 .debug_loc     0x0000000000000000      0x15a emodules/mod_orange/mod_orange.o
 .debug_loc     0x000000000000015a       0x4c emodules/mod_orange/orange_mod_api.o
 .debug_loc     0x00000000000001a6    0x51f6e emodules/mod_orange/built-in.o
 .debug_loc     0x0000000000052114     0xd5f0 ./elibrary/bin/libsyscall.a(syscall.o)
 .debug_loc     0x000000000005f704     0x2422 ./elibrary/bin/libminic.a(elibs_stdio.o)
 .debug_loc     0x0000000000061b26      0x4c6 ./elibrary/bin/libminic.a(elibs_stdlib.o)
 .debug_loc     0x0000000000061fec      0x705 ./elibrary/bin/libminic.a(elibs_string.o)
 .debug_loc     0x00000000000626f1      0x3f2 ./elibrary/bin/libminic.a(elibs_sprintf.o)
 .debug_loc     0x0000000000062ae3      0x296 ./elibrary/bin/liblzma.a(az100.o)
 .debug_loc     0x0000000000062d79      0x113 ./elibrary/bin/liblzma.a(compress.o)
 .debug_loc     0x0000000000062e8c      0x1aa ./elibrary/bin/liblzma.a(LzmaLib.o)
 .debug_loc     0x0000000000063036     0x2123 ./elibrary/bin/liblzma.a(LzmaDec.o)

.debug_aranges  0x0000000000000000     0xa3d0
 .debug_aranges
                0x0000000000000000       0x70 emodules/mod_orange/mod_orange.o
 .debug_aranges
                0x0000000000000070       0x30 emodules/mod_orange/orange_mod_api.o
 .debug_aranges
                0x00000000000000a0       0x20 emodules/mod_orange/magic.o
 .debug_aranges
                0x00000000000000c0     0x8200 emodules/mod_orange/built-in.o
 .debug_aranges
                0x00000000000082c0     0x17c0 ./elibrary/bin/libsyscall.a(syscall.o)
 .debug_aranges
                0x0000000000009a80      0x470 ./elibrary/bin/libminic.a(elibs_stdio.o)
 .debug_aranges
                0x0000000000009ef0      0x140 ./elibrary/bin/libminic.a(elibs_stdlib.o)
 .debug_aranges
                0x000000000000a030      0x150 ./elibrary/bin/libminic.a(elibs_string.o)
 .debug_aranges
                0x000000000000a180       0x80 ./elibrary/bin/libminic.a(elibs_sprintf.o)
 .debug_aranges
                0x000000000000a200       0x50 ./elibrary/bin/liblzma.a(az100.o)
 .debug_aranges
                0x000000000000a250       0x30 ./elibrary/bin/liblzma.a(compress.o)
 .debug_aranges
                0x000000000000a280       0x50 ./elibrary/bin/liblzma.a(LzmaLib.o)
 .debug_aranges
                0x000000000000a2d0      0x100 ./elibrary/bin/liblzma.a(LzmaDec.o)

.debug_line     0x0000000000000000    0xea8ca
 .debug_line    0x0000000000000000      0x566 emodules/mod_orange/mod_orange.o
 .debug_line    0x0000000000000566      0x5e9 emodules/mod_orange/orange_mod_api.o
 .debug_line    0x0000000000000b4f      0x3e0 emodules/mod_orange/magic.o
 .debug_line    0x0000000000000f2f    0xd45be emodules/mod_orange/built-in.o
 .debug_line    0x00000000000d54ed     0xe157 ./elibrary/bin/libsyscall.a(syscall.o)
 .debug_line    0x00000000000e3644     0x21a2 ./elibrary/bin/libminic.a(elibs_stdio.o)
 .debug_line    0x00000000000e57e6      0x766 ./elibrary/bin/libminic.a(elibs_stdlib.o)
 .debug_line    0x00000000000e5f4c      0x5cc ./elibrary/bin/libminic.a(elibs_string.o)
 .debug_line    0x00000000000e6518      0x467 ./elibrary/bin/libminic.a(elibs_sprintf.o)
 .debug_line    0x00000000000e697f      0x4ba ./elibrary/bin/liblzma.a(az100.o)
 .debug_line    0x00000000000e6e39      0x280 ./elibrary/bin/liblzma.a(compress.o)
 .debug_line    0x00000000000e70b9      0x185 ./elibrary/bin/liblzma.a(LzmaLib.o)
 .debug_line    0x00000000000e723e     0x368c ./elibrary/bin/liblzma.a(LzmaDec.o)

.debug_str      0x0000000000000000    0x17c2c
 .debug_str     0x0000000000000000     0x1497 emodules/mod_orange/mod_orange.o
                                       0x15c6 (size before relaxing)
 .debug_str     0x0000000000001497     0x4b3c emodules/mod_orange/orange_mod_api.o
                                       0x6195 (size before relaxing)
 .debug_str     0x0000000000005fd3       0x62 emodules/mod_orange/magic.o
                                       0x159f (size before relaxing)
 .debug_str     0x0000000000006035     0xdd02 emodules/mod_orange/built-in.o
                                     0x2796b2 (size before relaxing)
 .debug_str     0x0000000000013d37     0x2df4 ./elibrary/bin/libsyscall.a(syscall.o)
                                       0x3a2a (size before relaxing)
 .debug_str     0x0000000000016b2b      0x667 ./elibrary/bin/libminic.a(elibs_stdio.o)
                                       0x1590 (size before relaxing)
 .debug_str     0x0000000000017192      0x2ff ./elibrary/bin/libminic.a(elibs_stdlib.o)
                                        0xc96 (size before relaxing)
 .debug_str     0x0000000000017491      0x17d ./elibrary/bin/libminic.a(elibs_string.o)
                                        0x662 (size before relaxing)
 .debug_str     0x000000000001760e       0x81 ./elibrary/bin/libminic.a(elibs_sprintf.o)
                                        0x55d (size before relaxing)
 .debug_str     0x000000000001768f       0x72 ./elibrary/bin/liblzma.a(az100.o)
                                        0x9d4 (size before relaxing)
 .debug_str     0x0000000000017701       0x5e ./elibrary/bin/liblzma.a(compress.o)
                                        0x303 (size before relaxing)
 .debug_str     0x000000000001775f      0x12c ./elibrary/bin/liblzma.a(LzmaLib.o)
                                        0x3ce (size before relaxing)
 .debug_str     0x000000000001788b      0x3a1 ./elibrary/bin/liblzma.a(LzmaDec.o)
                                        0xb4d (size before relaxing)

.debug_frame    0x0000000000000000    0x15030
 .debug_frame   0x0000000000000000       0xd8 emodules/mod_orange/mod_orange.o
 .debug_frame   0x00000000000000d8       0x38 emodules/mod_orange/orange_mod_api.o
 .debug_frame   0x0000000000000110    0x10140 emodules/mod_orange/built-in.o
 .debug_frame   0x0000000000010250     0x3b20 ./elibrary/bin/libsyscall.a(syscall.o)
 .debug_frame   0x0000000000013d70      0x9f0 ./elibrary/bin/libminic.a(elibs_stdio.o)
 .debug_frame   0x0000000000014760      0x208 ./elibrary/bin/libminic.a(elibs_stdlib.o)
 .debug_frame   0x0000000000014968      0x1e8 ./elibrary/bin/libminic.a(elibs_string.o)
 .debug_frame   0x0000000000014b50       0xe0 ./elibrary/bin/libminic.a(elibs_sprintf.o)
 .debug_frame   0x0000000000014c30       0x80 ./elibrary/bin/liblzma.a(az100.o)
 .debug_frame   0x0000000000014cb0       0x38 ./elibrary/bin/liblzma.a(compress.o)
 .debug_frame   0x0000000000014ce8       0x68 ./elibrary/bin/liblzma.a(LzmaLib.o)
 .debug_frame   0x0000000000014d50      0x2e0 ./elibrary/bin/liblzma.a(LzmaDec.o)

Cross Reference Table

Symbol                                            File
AZ100_DataUncompress                              ./elibrary/bin/liblzma.a(compress.o)
                                                  ./elibrary/bin/liblzma.a(az100.o)
AZ100_GetUncompressSize                           ./elibrary/bin/liblzma.a(az100.o)
                                                  emodules/mod_orange/built-in.o
AZ100_IsCompress                                  ./elibrary/bin/liblzma.a(az100.o)
AZ100_Uncompress                                  ./elibrary/bin/liblzma.a(az100.o)
                                                  emodules/mod_orange/built-in.o
AutoPanelPrepare                                  emodules/mod_orange/built-in.o
AutoPanelStart                                    emodules/mod_orange/built-in.o
AutoPanelUnprepare                                emodules/mod_orange/built-in.o
Big5_to_Unicode                                   emodules/mod_orange/built-in.o
                                                  emodules/mod_orange/orange_mod_api.o
CloseRes                                          emodules/mod_orange/built-in.o
                                                  emodules/mod_orange/orange_mod_api.o
CopyRect                                          emodules/mod_orange/built-in.o
CreateAutoPanel                                   emodules/mod_orange/built-in.o
DestroyAutoPanel                                  emodules/mod_orange/built-in.o
DestroyFreeQMSGList                               emodules/mod_orange/built-in.o
DestroyMemBlockLink                               emodules/mod_orange/built-in.o
DestroyMsgQueue                                   emodules/mod_orange/built-in.o
DoesIntersect                                     emodules/mod_orange/built-in.o
EqualRect                                         emodules/mod_orange/built-in.o
GL_DispChar                                       emodules/mod_orange/built-in.o
GL_DrawArc                                        emodules/mod_orange/built-in.o
GL_DrawBitmap                                     emodules/mod_orange/built-in.o
GL_DrawCircle                                     emodules/mod_orange/built-in.o
GL_DrawEllipse                                    emodules/mod_orange/built-in.o
GL_DrawLine                                       emodules/mod_orange/built-in.o
GL_DrawLine1                                      emodules/mod_orange/built-in.o
GL_DrawLineTo                                     emodules/mod_orange/built-in.o
GL_DrawPoint                                      emodules/mod_orange/built-in.o
GL_DrawPolygon                                    emodules/mod_orange/built-in.o
GL_FillCircle                                     emodules/mod_orange/built-in.o
GL_FillEllipse                                    emodules/mod_orange/built-in.o
GL_FillPolygon                                    emodules/mod_orange/built-in.o
GL_MoveTo                                         emodules/mod_orange/built-in.o
GL_SetDefault                                     emodules/mod_orange/built-in.o
GUICurs_C                                         emodules/mod_orange/built-in.o
GUIMONO_DispChar                                  emodules/mod_orange/built-in.o
GUIMONO_GetCharDistX                              emodules/mod_orange/built-in.o
GUIMONO_GetFontInfo                               emodules/mod_orange/built-in.o
GUIMONO_IsInFont                                  emodules/mod_orange/built-in.o
GUIPROP_DispChar                                  emodules/mod_orange/built-in.o
GUIPROP_GetCharDistX                              emodules/mod_orange/built-in.o
GUIPROP_GetFontInfo                               emodules/mod_orange/built-in.o
GUIPROP_IsInFont                                  emodules/mod_orange/built-in.o
GUITASK_CopyContext                               emodules/mod_orange/built-in.o
                                                  emodules/mod_orange/orange_mod_api.o
GUITASK_Init                                      emodules/mod_orange/built-in.o
                                                  emodules/mod_orange/orange_mod_api.o
GUI_ALLOC                                         emodules/mod_orange/built-in.o
GUI_ALLOC_AllocInit                               emodules/mod_orange/built-in.o
                                                  emodules/mod_orange/orange_mod_api.o
GUI_ALLOC_AllocNoInit                             emodules/mod_orange/built-in.o
                                                  emodules/mod_orange/orange_mod_api.o
GUI_ALLOC_AllocZero                               emodules/mod_orange/built-in.o
                                                  emodules/mod_orange/orange_mod_api.o
GUI_ALLOC_Free                                    emodules/mod_orange/built-in.o
                                                  emodules/mod_orange/orange_mod_api.o
GUI_ALLOC_FreePtr                                 emodules/mod_orange/built-in.o
                                                  emodules/mod_orange/orange_mod_api.o
GUI_ALLOC_GetMaxSize                              emodules/mod_orange/built-in.o
                                                  emodules/mod_orange/orange_mod_api.o
GUI_ALLOC_GetNumFreeBytes                         emodules/mod_orange/built-in.o
                                                  emodules/mod_orange/orange_mod_api.o
GUI_ALLOC_GetSize                                 emodules/mod_orange/built-in.o
                                                  emodules/mod_orange/orange_mod_api.o
GUI_ALLOC_Init                                    emodules/mod_orange/built-in.o
                                                  emodules/mod_orange/orange_mod_api.o
GUI_ALLOC_Realloc                                 emodules/mod_orange/built-in.o
GUI_ALLOC_h2p                                     emodules/mod_orange/built-in.o
                                                  emodules/mod_orange/orange_mod_api.o
GUI_ARGB_Draw                                     emodules/mod_orange/built-in.o
                                                  emodules/mod_orange/orange_mod_api.o
GUI_ARGB_GetXSize                                 emodules/mod_orange/built-in.o
GUI_ARGB_GetYSize                                 emodules/mod_orange/built-in.o
GUI_AddBin                                        emodules/mod_orange/built-in.o
GUI_AddDec                                        emodules/mod_orange/built-in.o
GUI_AddDecMin                                     emodules/mod_orange/built-in.o
GUI_AddDecShift                                   emodules/mod_orange/built-in.o
GUI_AddHex                                        emodules/mod_orange/built-in.o
GUI_AddNewControlClass                            emodules/mod_orange/built-in.o
                                                  emodules/mod_orange/orange_mod_api.o
GUI_AddSign                                       emodules/mod_orange/built-in.o
GUI_BMP_Draw                                      emodules/mod_orange/built-in.o
                                                  emodules/mod_orange/orange_mod_api.o
GUI_BMP_DrawEx                                    emodules/mod_orange/built-in.o
                                                  emodules/mod_orange/orange_mod_api.o
GUI_BMP_Draw_Rotate                               emodules/mod_orange/built-in.o
                                                  emodules/mod_orange/orange_mod_api.o
GUI_BMP_Draw_Trans                                emodules/mod_orange/built-in.o
                                                  emodules/mod_orange/orange_mod_api.o
GUI_BMP_GetXSize                                  emodules/mod_orange/built-in.o
                                                  emodules/mod_orange/orange_mod_api.o
GUI_BMP_GetYSize                                  emodules/mod_orange/built-in.o
                                                  emodules/mod_orange/orange_mod_api.o
GUI_BMP_Serialize                                 emodules/mod_orange/built-in.o
GUI_BMP_SerializeEx                               emodules/mod_orange/built-in.o
GUI_BitString_Draw                                emodules/mod_orange/built-in.o
                                                  emodules/mod_orange/orange_mod_api.o
GUI_BitString_DrawEx                              emodules/mod_orange/built-in.o
                                                  emodules/mod_orange/orange_mod_api.o
GUI_BitmapArrowL                                  emodules/mod_orange/built-in.o
GUI_BitmapArrowLI                                 emodules/mod_orange/built-in.o
GUI_BitmapArrowM                                  emodules/mod_orange/built-in.o
GUI_BitmapArrowMI                                 emodules/mod_orange/built-in.o
GUI_BitmapArrowS                                  emodules/mod_orange/built-in.o
GUI_BitmapArrowSI                                 emodules/mod_orange/built-in.o
GUI_BitmapCrossL                                  emodules/mod_orange/built-in.o
GUI_BitmapCrossLI                                 emodules/mod_orange/built-in.o
GUI_BitmapCrossM                                  emodules/mod_orange/built-in.o
GUI_BitmapCrossMI                                 emodules/mod_orange/built-in.o
GUI_BitmapCrossS                                  emodules/mod_orange/built-in.o
GUI_BitmapCrossSI                                 emodules/mod_orange/built-in.o
GUI_BitmapMethods565                              emodules/mod_orange/built-in.o
GUI_BitmapMethodsM565                             emodules/mod_orange/built-in.o
GUI_BitmapMethodsRLE4                             emodules/mod_orange/built-in.o
GUI_BitmapMethodsRLE8                             emodules/mod_orange/built-in.o
GUI_BroadcastMessage                              emodules/mod_orange/built-in.o
                                                  emodules/mod_orange/orange_mod_api.o
GUI_ButtonSetBkColor                              emodules/mod_orange/built-in.o
                                                  emodules/mod_orange/orange_mod_api.o
GUI_ButtonSetBmpPos                               emodules/mod_orange/built-in.o
                                                  emodules/mod_orange/orange_mod_api.o
GUI_ButtonSetFcsTxtColor                          emodules/mod_orange/built-in.o
                                                  emodules/mod_orange/orange_mod_api.o
GUI_ButtonSetFocusBmp                             emodules/mod_orange/built-in.o
                                                  emodules/mod_orange/orange_mod_api.o
GUI_ButtonSetText                                 emodules/mod_orange/built-in.o
                                                  emodules/mod_orange/orange_mod_api.o
GUI_ButtonSetTxtPos                               emodules/mod_orange/built-in.o
                                                  emodules/mod_orange/orange_mod_api.o
GUI_ButtonSetUnFcsTxtColor                        emodules/mod_orange/built-in.o
                                                  emodules/mod_orange/orange_mod_api.o
GUI_ButtonSetUnFocusBmp                           emodules/mod_orange/built-in.o
                                                  emodules/mod_orange/orange_mod_api.o
GUI_CalcColorDist                                 emodules/mod_orange/built-in.o
GUI_CalcVisColorError                             emodules/mod_orange/built-in.o
GUI_ChangActiveManWindow                          emodules/mod_orange/built-in.o
GUI_CharSetToEncode                               emodules/mod_orange/built-in.o
                                                  emodules/mod_orange/orange_mod_api.o
GUI_Clear                                         emodules/mod_orange/built-in.o
                                                  emodules/mod_orange/orange_mod_api.o
GUI_ClearBeforeMsg                                emodules/mod_orange/built-in.o
GUI_ClearKeyBuffer                                emodules/mod_orange/built-in.o
GUI_ClearPostMsg                                  emodules/mod_orange/built-in.o
GUI_ClearRect                                     emodules/mod_orange/built-in.o
                                                  emodules/mod_orange/orange_mod_api.o
GUI_ClearRectEx                                   emodules/mod_orange/built-in.o
                                                  emodules/mod_orange/orange_mod_api.o
GUI_ClientToScreen                                emodules/mod_orange/built-in.o
                                                  emodules/mod_orange/orange_mod_api.o
GUI_CloseAlphaBlend                               emodules/mod_orange/built-in.o
                                                  emodules/mod_orange/orange_mod_api.o
GUI_Color2Index                                   emodules/mod_orange/built-in.o
GUI_Color2VisColor                                emodules/mod_orange/built-in.o
GUI_ColorIsAvailable                              emodules/mod_orange/built-in.o
GUI_Context                                       emodules/mod_orange/built-in.o
GUI_Core_Exit                                     emodules/mod_orange/built-in.o
GUI_Core_Init                                     emodules/mod_orange/built-in.o
GUI_CreateAutoPanel                               emodules/mod_orange/built-in.o
                                                  emodules/mod_orange/orange_mod_api.o
GUI_CreateLayer                                   emodules/mod_orange/built-in.o
                                                  emodules/mod_orange/orange_mod_api.o
GUI_CtrlWinCreate                                 emodules/mod_orange/built-in.o
                                                  emodules/mod_orange/orange_mod_api.o
GUI_CtrlWinDefaultProc                            emodules/mod_orange/built-in.o
                                                  emodules/mod_orange/orange_mod_api.o
GUI_CtrlWinDelete                                 emodules/mod_orange/built-in.o
                                                  emodules/mod_orange/orange_mod_api.o
GUI_CtrlWinGetAddData                             emodules/mod_orange/built-in.o
                                                  emodules/mod_orange/orange_mod_api.o
GUI_CtrlWinGetClassName                           emodules/mod_orange/built-in.o
                                                  emodules/mod_orange/orange_mod_api.o
GUI_CtrlWinSetAddData                             emodules/mod_orange/built-in.o
                                                  emodules/mod_orange/orange_mod_api.o
GUI_CursorArrowL                                  emodules/mod_orange/built-in.o
GUI_CursorArrowLI                                 emodules/mod_orange/built-in.o
GUI_CursorArrowM                                  emodules/mod_orange/built-in.o
GUI_CursorArrowMI                                 emodules/mod_orange/built-in.o
GUI_CursorArrowS                                  emodules/mod_orange/built-in.o
GUI_CursorArrowSI                                 emodules/mod_orange/built-in.o
GUI_CursorCreate                                  emodules/mod_orange/built-in.o
                                                  emodules/mod_orange/orange_mod_api.o
GUI_CursorCrossL                                  emodules/mod_orange/built-in.o
GUI_CursorCrossLI                                 emodules/mod_orange/built-in.o
GUI_CursorCrossM                                  emodules/mod_orange/built-in.o
GUI_CursorCrossMI                                 emodules/mod_orange/built-in.o
GUI_CursorCrossS                                  emodules/mod_orange/built-in.o
GUI_CursorCrossSI                                 emodules/mod_orange/built-in.o
GUI_CursorDelete                                  emodules/mod_orange/built-in.o
                                                  emodules/mod_orange/orange_mod_api.o
GUI_CursorGetPos                                  emodules/mod_orange/built-in.o
                                                  emodules/mod_orange/orange_mod_api.o
GUI_CursorHeaderM                                 emodules/mod_orange/built-in.o
GUI_CursorHeaderMI                                emodules/mod_orange/built-in.o
GUI_CursorHide                                    emodules/mod_orange/built-in.o
                                                  emodules/mod_orange/orange_mod_api.o
GUI_CursorPal                                     emodules/mod_orange/built-in.o
GUI_CursorPalI                                    emodules/mod_orange/built-in.o
GUI_CursorSetPara                                 emodules/mod_orange/built-in.o
                                                  emodules/mod_orange/orange_mod_api.o
GUI_CursorSetPos                                  emodules/mod_orange/built-in.o
                                                  emodules/mod_orange/orange_mod_api.o
GUI_CursorShow                                    emodules/mod_orange/built-in.o
                                                  emodules/mod_orange/orange_mod_api.o
GUI_DB2UC                                         emodules/mod_orange/built-in.o
GUI_DecChar                                       emodules/mod_orange/built-in.o
GUI_Delay                                         emodules/mod_orange/built-in.o
GUI_DeleteControlClass                            emodules/mod_orange/built-in.o
                                                  emodules/mod_orange/orange_mod_api.o
GUI_DestroyAutoPanel                              emodules/mod_orange/built-in.o
                                                  emodules/mod_orange/orange_mod_api.o
GUI_DialogDefaultProc                             emodules/mod_orange/built-in.o
                                                  emodules/mod_orange/orange_mod_api.o
GUI_DirMemcpy                                     emodules/mod_orange/built-in.o
GUI_DispBin                                       emodules/mod_orange/built-in.o
                                                  emodules/mod_orange/orange_mod_api.o
GUI_DispBinAt                                     emodules/mod_orange/built-in.o
                                                  emodules/mod_orange/orange_mod_api.o
GUI_DispCEOL                                      emodules/mod_orange/built-in.o
                                                  emodules/mod_orange/orange_mod_api.o
GUI_DispChar                                      emodules/mod_orange/built-in.o
                                                  emodules/mod_orange/orange_mod_api.o
GUI_DispCharAt                                    emodules/mod_orange/built-in.o
                                                  emodules/mod_orange/orange_mod_api.o
GUI_DispChars                                     emodules/mod_orange/built-in.o
                                                  emodules/mod_orange/orange_mod_api.o
GUI_DispDec                                       emodules/mod_orange/built-in.o
GUI_DispDecAt                                     emodules/mod_orange/built-in.o
GUI_DispDecMin                                    emodules/mod_orange/built-in.o
GUI_DispDecShift                                  emodules/mod_orange/built-in.o
GUI_DispDecSpace                                  emodules/mod_orange/built-in.o
GUI_DispFloat                                     emodules/mod_orange/built-in.o
GUI_DispFloatFix                                  emodules/mod_orange/built-in.o
GUI_DispFloatMin                                  emodules/mod_orange/built-in.o
GUI_DispHex                                       emodules/mod_orange/built-in.o
                                                  emodules/mod_orange/orange_mod_api.o
GUI_DispHexAt                                     emodules/mod_orange/built-in.o
                                                  emodules/mod_orange/orange_mod_api.o
GUI_DispLyr2LogicLyr                              emodules/mod_orange/built-in.o
                                                  emodules/mod_orange/orange_mod_api.o
GUI_DispNextLine                                  emodules/mod_orange/built-in.o
                                                  emodules/mod_orange/orange_mod_api.o
GUI_DispSDec                                      emodules/mod_orange/built-in.o
GUI_DispSDecShift                                 emodules/mod_orange/built-in.o
GUI_DispSFloatFix                                 emodules/mod_orange/built-in.o
GUI_DispSFloatMin                                 emodules/mod_orange/built-in.o
GUI_DispString                                    emodules/mod_orange/built-in.o
                                                  emodules/mod_orange/orange_mod_api.o
GUI_DispStringAt                                  emodules/mod_orange/built-in.o
                                                  emodules/mod_orange/orange_mod_api.o
GUI_DispStringAtCEOL                              emodules/mod_orange/built-in.o
                                                  emodules/mod_orange/orange_mod_api.o
GUI_DispStringHCenterAt                           emodules/mod_orange/built-in.o
                                                  emodules/mod_orange/orange_mod_api.o
GUI_DispStringInRect                              emodules/mod_orange/built-in.o
                                                  emodules/mod_orange/orange_mod_api.o
GUI_DispStringInRectEx                            emodules/mod_orange/built-in.o
GUI_DispStringInRectMax                           emodules/mod_orange/built-in.o
                                                  emodules/mod_orange/orange_mod_api.o
GUI_DispStringInRectWrap                          emodules/mod_orange/built-in.o
                                                  emodules/mod_orange/orange_mod_api.o
GUI_DispStringLen                                 emodules/mod_orange/built-in.o
                                                  emodules/mod_orange/orange_mod_api.o
GUI_DispatchMessage                               emodules/mod_orange/built-in.o
                                                  emodules/mod_orange/orange_mod_api.o
GUI_DispatchTimerMessage                          emodules/mod_orange/built-in.o
GUI_Dispfb2Fb                                     emodules/mod_orange/built-in.o
                                                  emodules/mod_orange/orange_mod_api.o
GUI_DlgGetFirstButton                             emodules/mod_orange/built-in.o
                                                  emodules/mod_orange/orange_mod_api.o
GUI_DrawArc                                       emodules/mod_orange/built-in.o
                                                  emodules/mod_orange/orange_mod_api.o
GUI_DrawBitmap                                    emodules/mod_orange/built-in.o
GUI_DrawBitmapEx                                  emodules/mod_orange/built-in.o
GUI_DrawBitmapExp                                 emodules/mod_orange/built-in.o
GUI_DrawBitmapMag                                 emodules/mod_orange/built-in.o
GUI_DrawCircle                                    emodules/mod_orange/built-in.o
                                                  emodules/mod_orange/orange_mod_api.o
GUI_DrawEllipse                                   emodules/mod_orange/built-in.o
                                                  emodules/mod_orange/orange_mod_api.o
GUI_DrawFocusRect                                 emodules/mod_orange/built-in.o
GUI_DrawGraph                                     emodules/mod_orange/built-in.o
                                                  emodules/mod_orange/orange_mod_api.o
GUI_DrawHLine                                     emodules/mod_orange/built-in.o
                                                  emodules/mod_orange/orange_mod_api.o
GUI_DrawLine                                      emodules/mod_orange/built-in.o
                                                  emodules/mod_orange/orange_mod_api.o
GUI_DrawLineRel                                   emodules/mod_orange/built-in.o
                                                  emodules/mod_orange/orange_mod_api.o
GUI_DrawLineTo                                    emodules/mod_orange/built-in.o
                                                  emodules/mod_orange/orange_mod_api.o
GUI_DrawPie                                       emodules/mod_orange/built-in.o
                                                  emodules/mod_orange/orange_mod_api.o
GUI_DrawPixel                                     emodules/mod_orange/built-in.o
                                                  emodules/mod_orange/orange_mod_api.o
GUI_DrawPoint                                     emodules/mod_orange/built-in.o
                                                  emodules/mod_orange/orange_mod_api.o
GUI_DrawPolyLine                                  emodules/mod_orange/built-in.o
GUI_DrawPolygon                                   emodules/mod_orange/built-in.o
                                                  emodules/mod_orange/orange_mod_api.o
GUI_DrawRect                                      emodules/mod_orange/built-in.o
                                                  emodules/mod_orange/orange_mod_api.o
GUI_DrawRectEx                                    emodules/mod_orange/built-in.o
                                                  emodules/mod_orange/orange_mod_api.o
GUI_DrawStreamedBitmap                            emodules/mod_orange/built-in.o
GUI_DrawVLine                                     emodules/mod_orange/built-in.o
                                                  emodules/mod_orange/orange_mod_api.o
GUI_ENC_APIList_SJIS                              emodules/mod_orange/built-in.o
GUI_EmptyControlClassInfoTable                    emodules/mod_orange/built-in.o
                                                  emodules/mod_orange/orange_mod_api.o
GUI_EndDialog                                     emodules/mod_orange/built-in.o
                                                  emodules/mod_orange/orange_mod_api.o
GUI_EnlargePolygon                                emodules/mod_orange/built-in.o
GUI_ErrorOut                                      emodules/mod_orange/built-in.o
                                                  emodules/mod_orange/orange_mod_api.o
GUI_ErrorOut1                                     emodules/mod_orange/built-in.o
                                                  emodules/mod_orange/orange_mod_api.o
GUI_ErrorOut2                                     emodules/mod_orange/built-in.o
                                                  emodules/mod_orange/orange_mod_api.o
GUI_ErrorOut3                                     emodules/mod_orange/built-in.o
                                                  emodules/mod_orange/orange_mod_api.o
GUI_ErrorOut4                                     emodules/mod_orange/built-in.o
                                                  emodules/mod_orange/orange_mod_api.o
GUI_Exec                                          emodules/mod_orange/built-in.o
GUI_Exec1                                         emodules/mod_orange/built-in.o
GUI_Exit                                          emodules/mod_orange/built-in.o
                                                  emodules/mod_orange/mod_orange.o
GUI_F6x8_Mono                                     emodules/mod_orange/built-in.o
GUI_F6x8_TI8859_1                                 emodules/mod_orange/built-in.o
GUI_F6x8_TL8859_1                                 emodules/mod_orange/built-in.o
GUI_FBFlushCache                                  emodules/mod_orange/built-in.o
GUI_FBGetStatus                                   emodules/mod_orange/built-in.o
GUI_FBResume                                      emodules/mod_orange/built-in.o
GUI_FBSuspend                                     emodules/mod_orange/built-in.o
GUI_FBToScreen                                    emodules/mod_orange/built-in.o
                                                  emodules/mod_orange/orange_mod_api.o
GUI_Fb2Dispfb                                     emodules/mod_orange/built-in.o
                                                  emodules/mod_orange/orange_mod_api.o
GUI_FillCircle                                    emodules/mod_orange/built-in.o
                                                  emodules/mod_orange/orange_mod_api.o
GUI_FillEllipse                                   emodules/mod_orange/built-in.o
                                                  emodules/mod_orange/orange_mod_api.o
GUI_FillPolygon                                   emodules/mod_orange/built-in.o
                                                  emodules/mod_orange/orange_mod_api.o
GUI_FillRect                                      emodules/mod_orange/built-in.o
                                                  emodules/mod_orange/orange_mod_api.o
GUI_FillRectEx                                    emodules/mod_orange/built-in.o
                                                  emodules/mod_orange/orange_mod_api.o
GUI_Font6x8                                       emodules/mod_orange/built-in.o
GUI_Font6x9                                       emodules/mod_orange/built-in.o
GUI_FrameClentToScreen                            emodules/mod_orange/built-in.o
GUI_FrameWinToScreen                              emodules/mod_orange/built-in.o
GUI_FrmWinCreate                                  emodules/mod_orange/built-in.o
                                                  emodules/mod_orange/orange_mod_api.o
GUI_FrmWinDefaultProc                             emodules/mod_orange/built-in.o
                                                  emodules/mod_orange/orange_mod_api.o
GUI_FrmWinDelete                                  emodules/mod_orange/built-in.o
                                                  emodules/mod_orange/orange_mod_api.o
GUI_FrmWinDestroyAllCtrlWins                      emodules/mod_orange/built-in.o
GUI_GMsgBox                                       emodules/mod_orange/built-in.o
                                                  emodules/mod_orange/orange_mod_api.o
GUI_GMsgBoxSetText                                emodules/mod_orange/built-in.o
                                                  emodules/mod_orange/orange_mod_api.o
GUI_GMsgBoxSetTextPos                             emodules/mod_orange/built-in.o
                                                  emodules/mod_orange/orange_mod_api.o
GUI_GetActiveManWin                               emodules/mod_orange/built-in.o
                                                  emodules/mod_orange/orange_mod_api.o
GUI_GetBitmapPixelColor                           emodules/mod_orange/built-in.o
GUI_GetBitmapPixelIndex                           emodules/mod_orange/built-in.o
GUI_GetBkColor                                    emodules/mod_orange/built-in.o
GUI_GetBkColorIndex                               emodules/mod_orange/built-in.o
GUI_GetCharDistX                                  emodules/mod_orange/built-in.o
                                                  emodules/mod_orange/orange_mod_api.o
GUI_GetChildWinUnderPoint                         emodules/mod_orange/built-in.o
GUI_GetClientRect                                 emodules/mod_orange/built-in.o
GUI_GetColor                                      emodules/mod_orange/built-in.o
GUI_GetColorIndex                                 emodules/mod_orange/built-in.o
GUI_GetControlClassData                           emodules/mod_orange/built-in.o
GUI_GetControlClassInfo                           emodules/mod_orange/built-in.o
GUI_GetCtrlClassAddData                           emodules/mod_orange/built-in.o
                                                  emodules/mod_orange/orange_mod_api.o
GUI_GetDecChar                                    emodules/mod_orange/built-in.o
GUI_GetDefaultFont                                emodules/mod_orange/built-in.o
                                                  emodules/mod_orange/orange_mod_api.o
GUI_GetDispPosX                                   emodules/mod_orange/built-in.o
GUI_GetDispPosY                                   emodules/mod_orange/built-in.o
GUI_GetDlgItem                                    emodules/mod_orange/built-in.o
                                                  emodules/mod_orange/orange_mod_api.o
GUI_GetFont                                       emodules/mod_orange/built-in.o
                                                  emodules/mod_orange/orange_mod_api.o
GUI_GetFontDistY                                  emodules/mod_orange/built-in.o
                                                  emodules/mod_orange/orange_mod_api.o
GUI_GetFontInfo                                   emodules/mod_orange/built-in.o
                                                  emodules/mod_orange/orange_mod_api.o
GUI_GetFontSizeY                                  emodules/mod_orange/built-in.o
                                                  emodules/mod_orange/orange_mod_api.o
GUI_GetFrameWinUnderPoint                         emodules/mod_orange/built-in.o
GUI_GetFrameWinUnderPointEx                       emodules/mod_orange/built-in.o
GUI_GetKey                                        emodules/mod_orange/built-in.o
GUI_GetLayerFrameWinUnderPoint                    emodules/mod_orange/built-in.o
GUI_GetLayerUnderPoint                            emodules/mod_orange/built-in.o
GUI_GetLineStyle                                  emodules/mod_orange/built-in.o
                                                  emodules/mod_orange/orange_mod_api.o
GUI_GetMessage                                    emodules/mod_orange/built-in.o
                                                  emodules/mod_orange/orange_mod_api.o
GUI_GetMessageEx                                  emodules/mod_orange/built-in.o
                                                  emodules/mod_orange/orange_mod_api.o
GUI_GetNextDlgTabItem                             emodules/mod_orange/built-in.o
                                                  emodules/mod_orange/orange_mod_api.o
GUI_GetPenShape                                   emodules/mod_orange/built-in.o
                                                  emodules/mod_orange/orange_mod_api.o
GUI_GetPenSize                                    emodules/mod_orange/built-in.o
                                                  emodules/mod_orange/orange_mod_api.o
GUI_GetRectMem                                    emodules/mod_orange/built-in.o
                                                  emodules/mod_orange/orange_mod_api.o
GUI_GetRectMemEx                                  emodules/mod_orange/built-in.o
GUI_GetScnDir                                     emodules/mod_orange/built-in.o
                                                  emodules/mod_orange/orange_mod_api.o
GUI_GetScreenSize                                 emodules/mod_orange/built-in.o
                                                  emodules/mod_orange/orange_mod_api.o
GUI_GetStringDistX                                emodules/mod_orange/built-in.o
                                                  emodules/mod_orange/orange_mod_api.o
GUI_GetTextAlign                                  emodules/mod_orange/built-in.o
                                                  emodules/mod_orange/orange_mod_api.o
GUI_GetTextExtend                                 emodules/mod_orange/built-in.o
                                                  emodules/mod_orange/orange_mod_api.o
GUI_GetTextMode                                   emodules/mod_orange/built-in.o
                                                  emodules/mod_orange/orange_mod_api.o
GUI_GetTickCount                                  emodules/mod_orange/built-in.o
                                                  emodules/mod_orange/orange_mod_api.o
GUI_GetTime                                       emodules/mod_orange/built-in.o
GUI_GetTimerExpired                               emodules/mod_orange/built-in.o
                                                  emodules/mod_orange/orange_mod_api.o
GUI_GetTouchFocusWin                              emodules/mod_orange/built-in.o
                                                  emodules/mod_orange/orange_mod_api.o
GUI_GetVersionString                              emodules/mod_orange/built-in.o
GUI_GetWinUnderPoint                              emodules/mod_orange/built-in.o
GUI_GetYAdjust                                    emodules/mod_orange/built-in.o
                                                  emodules/mod_orange/orange_mod_api.o
GUI_GetYDistOfFont                                emodules/mod_orange/built-in.o
                                                  emodules/mod_orange/orange_mod_api.o
GUI_GetYSizeOfFont                                emodules/mod_orange/built-in.o
                                                  emodules/mod_orange/orange_mod_api.o
GUI_GotoX                                         emodules/mod_orange/built-in.o
                                                  emodules/mod_orange/orange_mod_api.o
GUI_GotoXY                                        emodules/mod_orange/built-in.o
                                                  emodules/mod_orange/orange_mod_api.o
GUI_GotoY                                         emodules/mod_orange/built-in.o
                                                  emodules/mod_orange/orange_mod_api.o
GUI_HaveFreeTimer                                 emodules/mod_orange/built-in.o
                                                  emodules/mod_orange/orange_mod_api.o
GUI_HavePendingMessage                            emodules/mod_orange/built-in.o
                                                  emodules/mod_orange/orange_mod_api.o
GUI_Heap                                          emodules/mod_orange/built-in.o
GUI_Index2Color                                   emodules/mod_orange/built-in.o
GUI_Init                                          emodules/mod_orange/built-in.o
                                                  emodules/mod_orange/mod_orange.o
GUI_InitControlClass                              emodules/mod_orange/built-in.o
GUI_Init_layer                                    emodules/mod_orange/built-in.o
                                                  emodules/mod_orange/orange_mod_api.o
GUI_InvalidateRect                                emodules/mod_orange/built-in.o
                                                  emodules/mod_orange/orange_mod_api.o
GUI_InvertRect                                    emodules/mod_orange/built-in.o
                                                  emodules/mod_orange/orange_mod_api.o
GUI_IsInFont                                      emodules/mod_orange/built-in.o
                                                  emodules/mod_orange/orange_mod_api.o
GUI_IsTimerInstalled                              emodules/mod_orange/built-in.o
                                                  emodules/mod_orange/orange_mod_api.o
GUI_Kernel_Exit                                   emodules/mod_orange/built-in.o
GUI_Kernel_Init                                   emodules/mod_orange/built-in.o
GUI_KillTimer                                     emodules/mod_orange/built-in.o
                                                  emodules/mod_orange/orange_mod_api.o
GUI_LayerInfo                                     emodules/mod_orange/built-in.o
GUI_Lock                                          emodules/mod_orange/built-in.o
                                                  emodules/mod_orange/orange_mod_api.o
GUI_LockAccept                                    emodules/mod_orange/built-in.o
                                                  emodules/mod_orange/orange_mod_api.o
GUI_Log                                           emodules/mod_orange/built-in.o
                                                  emodules/mod_orange/orange_mod_api.o
GUI_Log1                                          emodules/mod_orange/built-in.o
                                                  emodules/mod_orange/orange_mod_api.o
GUI_Log2                                          emodules/mod_orange/built-in.o
                                                  emodules/mod_orange/orange_mod_api.o
GUI_Log3                                          emodules/mod_orange/built-in.o
                                                  emodules/mod_orange/orange_mod_api.o
GUI_Log4                                          emodules/mod_orange/built-in.o
                                                  emodules/mod_orange/orange_mod_api.o
GUI_LogPt2PhyPt                                   emodules/mod_orange/built-in.o
GUI_LogicLayerGetFb                               emodules/mod_orange/built-in.o
GUI_LogicLayerGetPara                             emodules/mod_orange/built-in.o
GUI_LogicLayerGetScnWin                           emodules/mod_orange/built-in.o
GUI_LogicLayerGetSrcWin                           emodules/mod_orange/built-in.o
GUI_LogicLayerRequest                             emodules/mod_orange/built-in.o
GUI_LogicLayerSetFb                               emodules/mod_orange/built-in.o
GUI_LogicLayerSetPara                             emodules/mod_orange/built-in.o
GUI_LogicLayerSetScnWin                           emodules/mod_orange/built-in.o
GUI_LogicLayerSetSrcWin                           emodules/mod_orange/built-in.o
GUI_LogicLyr2DispLyr                              emodules/mod_orange/built-in.o
                                                  emodules/mod_orange/orange_mod_api.o
GUI_Long2Len                                      emodules/mod_orange/built-in.o
GUI_LongStringCreate                              emodules/mod_orange/built-in.o
                                                  emodules/mod_orange/orange_mod_api.o
GUI_LongStringDelete                              emodules/mod_orange/built-in.o
                                                  emodules/mod_orange/orange_mod_api.o
GUI_LongStringExit                                emodules/mod_orange/built-in.o
GUI_LongStringInit                                emodules/mod_orange/built-in.o
GUI_LongStringMove                                emodules/mod_orange/built-in.o
GUI_LongStringReset                               emodules/mod_orange/built-in.o
                                                  emodules/mod_orange/orange_mod_api.o
GUI_LongStringStart                               emodules/mod_orange/built-in.o
                                                  emodules/mod_orange/orange_mod_api.o
GUI_LongStringStop                                emodules/mod_orange/built-in.o
                                                  emodules/mod_orange/orange_mod_api.o
GUI_LongString_Task                               emodules/mod_orange/built-in.o
GUI_LstmAddItemTail                               emodules/mod_orange/built-in.o
                                                  emodules/mod_orange/orange_mod_api.o
GUI_LstmChildInFb                                 emodules/mod_orange/built-in.o
                                                  emodules/mod_orange/orange_mod_api.o
GUI_LstmCurProc                                   emodules/mod_orange/built-in.o
GUI_LstmDelCurItem                                emodules/mod_orange/built-in.o
                                                  emodules/mod_orange/orange_mod_api.o
GUI_LstmDestroy                                   emodules/mod_orange/built-in.o
GUI_LstmDrawCurNo                                 emodules/mod_orange/built-in.o
                                                  emodules/mod_orange/orange_mod_api.o
GUI_LstmGetCurItem                                emodules/mod_orange/built-in.o
                                                  emodules/mod_orange/orange_mod_api.o
GUI_LstmGetHostWin                                emodules/mod_orange/built-in.o
                                                  emodules/mod_orange/orange_mod_api.o
GUI_LstmGetItem                                   emodules/mod_orange/built-in.o
                                                  emodules/mod_orange/orange_mod_api.o
GUI_LstmGetItemAttr                               emodules/mod_orange/built-in.o
                                                  emodules/mod_orange/orange_mod_api.o
GUI_LstmGetItemCount                              emodules/mod_orange/built-in.o
                                                  emodules/mod_orange/orange_mod_api.o
GUI_LstmGetItemLyrWin                             emodules/mod_orange/built-in.o
                                                  emodules/mod_orange/orange_mod_api.o
GUI_LstmGetItemNo                                 emodules/mod_orange/built-in.o
                                                  emodules/mod_orange/orange_mod_api.o
GUI_LstmGetItemRect                               emodules/mod_orange/built-in.o
                                                  emodules/mod_orange/orange_mod_api.o
GUI_LstmGetSelItem                                emodules/mod_orange/built-in.o
GUI_LstmKeyDefault                                emodules/mod_orange/built-in.o
GUI_LstmKeyDown                                   emodules/mod_orange/built-in.o
GUI_LstmKeyRise                                   emodules/mod_orange/built-in.o
GUI_LstmKeyUp                                     emodules/mod_orange/built-in.o
GUI_LstmMove                                      emodules/mod_orange/built-in.o
GUI_LstmMoveDown                                  emodules/mod_orange/built-in.o
GUI_LstmMoveStop                                  emodules/mod_orange/built-in.o
GUI_LstmMoveUp                                    emodules/mod_orange/built-in.o
GUI_LstmNextPage                                  emodules/mod_orange/built-in.o
GUI_LstmOnDraw                                    emodules/mod_orange/built-in.o
GUI_LstmOnMessage                                 emodules/mod_orange/built-in.o
GUI_LstmPostMoveMsg                               emodules/mod_orange/built-in.o
GUI_LstmPostRunMsg                                emodules/mod_orange/built-in.o
GUI_LstmPrevPage                                  emodules/mod_orange/built-in.o
GUI_LstmPrivCreate                                emodules/mod_orange/built-in.o
GUI_LstmRxThread                                  emodules/mod_orange/built-in.o
GUI_LstmSetCurItemNo                              emodules/mod_orange/built-in.o
GUI_LstmSetCurNo                                  emodules/mod_orange/built-in.o
                                                  emodules/mod_orange/orange_mod_api.o
GUI_LstmSetFoucs                                  emodules/mod_orange/built-in.o
GUI_LstmSetUnFoucs                                emodules/mod_orange/built-in.o
GUI_LstmSleep                                     emodules/mod_orange/built-in.o
GUI_LstmStopOnLoad                                emodules/mod_orange/built-in.o
GUI_LstmStopProc                                  emodules/mod_orange/built-in.o
GUI_LstmStopSlip                                  emodules/mod_orange/built-in.o
                                                  emodules/mod_orange/orange_mod_api.o
GUI_LstmTouchDown                                 emodules/mod_orange/built-in.o
GUI_LstmTouchMove                                 emodules/mod_orange/built-in.o
GUI_LstmTouchUp                                   emodules/mod_orange/built-in.o
GUI_LstmUpdateItem                                emodules/mod_orange/built-in.o
                                                  emodules/mod_orange/orange_mod_api.o
GUI_LstmWakeup                                    emodules/mod_orange/built-in.o
GUI_LyrGetPrio                                    emodules/mod_orange/built-in.o
GUI_LyrInitOS                                     emodules/mod_orange/built-in.o
                                                  emodules/mod_orange/orange_mod_api.o
GUI_LyrLock                                       emodules/mod_orange/built-in.o
                                                  emodules/mod_orange/orange_mod_api.o
GUI_LyrLockAccept                                 emodules/mod_orange/built-in.o
                                                  emodules/mod_orange/orange_mod_api.o
GUI_LyrMove                                       emodules/mod_orange/built-in.o
                                                  emodules/mod_orange/orange_mod_api.o
GUI_LyrUnlock                                     emodules/mod_orange/built-in.o
                                                  emodules/mod_orange/orange_mod_api.o
GUI_LyrWinAlphaOff                                emodules/mod_orange/built-in.o
                                                  emodules/mod_orange/orange_mod_api.o
GUI_LyrWinAlphaOn                                 emodules/mod_orange/built-in.o
                                                  emodules/mod_orange/orange_mod_api.o
GUI_LyrWinCKOff                                   emodules/mod_orange/built-in.o
                                                  emodules/mod_orange/orange_mod_api.o
GUI_LyrWinCKOn                                    emodules/mod_orange/built-in.o
                                                  emodules/mod_orange/orange_mod_api.o
GUI_LyrWinCacheOff                                emodules/mod_orange/built-in.o
                                                  emodules/mod_orange/orange_mod_api.o
GUI_LyrWinCacheOn                                 emodules/mod_orange/built-in.o
                                                  emodules/mod_orange/orange_mod_api.o
GUI_LyrWinCreate                                  emodules/mod_orange/built-in.o
                                                  emodules/mod_orange/orange_mod_api.o
GUI_LyrWinDelete                                  emodules/mod_orange/built-in.o
                                                  emodules/mod_orange/orange_mod_api.o
GUI_LyrWinFlushFB                                 emodules/mod_orange/built-in.o
                                                  emodules/mod_orange/orange_mod_api.o
GUI_LyrWinGetFB                                   emodules/mod_orange/built-in.o
                                                  emodules/mod_orange/orange_mod_api.o
GUI_LyrWinGetHWLyr                                emodules/mod_orange/built-in.o
GUI_LyrWinGetScnWindow                            emodules/mod_orange/built-in.o
                                                  emodules/mod_orange/orange_mod_api.o
GUI_LyrWinGetSrcWindow                            emodules/mod_orange/built-in.o
                                                  emodules/mod_orange/orange_mod_api.o
GUI_LyrWinGetSta                                  emodules/mod_orange/built-in.o
                                                  emodules/mod_orange/orange_mod_api.o
GUI_LyrWinSel                                     emodules/mod_orange/built-in.o
                                                  emodules/mod_orange/orange_mod_api.o
GUI_LyrWinSetAlpha                                emodules/mod_orange/built-in.o
                                                  emodules/mod_orange/orange_mod_api.o
GUI_LyrWinSetBottom                               emodules/mod_orange/built-in.o
                                                  emodules/mod_orange/orange_mod_api.o
GUI_LyrWinSetFB                                   emodules/mod_orange/built-in.o
                                                  emodules/mod_orange/orange_mod_api.o
GUI_LyrWinSetScnWindow                            emodules/mod_orange/built-in.o
                                                  emodules/mod_orange/orange_mod_api.o
GUI_LyrWinSetSrcWindow                            emodules/mod_orange/built-in.o
                                                  emodules/mod_orange/orange_mod_api.o
GUI_LyrWinSetSta                                  emodules/mod_orange/built-in.o
                                                  emodules/mod_orange/orange_mod_api.o
GUI_LyrWinSetTop                                  emodules/mod_orange/built-in.o
                                                  emodules/mod_orange/orange_mod_api.o
GUI_MEMDEV_Clear                                  emodules/mod_orange/built-in.o
                                                  emodules/mod_orange/orange_mod_api.o
GUI_MEMDEV_CompareWithLCD                         emodules/mod_orange/built-in.o
                                                  emodules/mod_orange/orange_mod_api.o
GUI_MEMDEV_CopyFromLCD                            emodules/mod_orange/built-in.o
                                                  emodules/mod_orange/orange_mod_api.o
GUI_MEMDEV_CopyToLCD                              emodules/mod_orange/built-in.o
                                                  emodules/mod_orange/orange_mod_api.o
GUI_MEMDEV_CopyToLCDAt                            emodules/mod_orange/built-in.o
                                                  emodules/mod_orange/orange_mod_api.o
GUI_MEMDEV_Create                                 emodules/mod_orange/built-in.o
                                                  emodules/mod_orange/orange_mod_api.o
GUI_MEMDEV_CreateEx                               emodules/mod_orange/built-in.o
                                                  emodules/mod_orange/orange_mod_api.o
GUI_MEMDEV_CreateFixed                            emodules/mod_orange/built-in.o
                                                  emodules/mod_orange/orange_mod_api.o
GUI_MEMDEV_Delete                                 emodules/mod_orange/built-in.o
                                                  emodules/mod_orange/orange_mod_api.o
GUI_MEMDEV_GetDataPtr                             emodules/mod_orange/built-in.o
                                                  emodules/mod_orange/orange_mod_api.o
GUI_MEMDEV_GetXSize                               emodules/mod_orange/built-in.o
                                                  emodules/mod_orange/orange_mod_api.o
GUI_MEMDEV_GetYSize                               emodules/mod_orange/built-in.o
                                                  emodules/mod_orange/orange_mod_api.o
GUI_MEMDEV_ReduceYSize                            emodules/mod_orange/built-in.o
                                                  emodules/mod_orange/orange_mod_api.o
GUI_MEMDEV_Select                                 emodules/mod_orange/built-in.o
                                                  emodules/mod_orange/orange_mod_api.o
GUI_MEMDEV_SetOrg                                 emodules/mod_orange/built-in.o
                                                  emodules/mod_orange/orange_mod_api.o
GUI_MEMDEV_Write                                  emodules/mod_orange/built-in.o
                                                  emodules/mod_orange/orange_mod_api.o
GUI_MEMDEV_WriteAt                                emodules/mod_orange/built-in.o
                                                  emodules/mod_orange/orange_mod_api.o
GUI_MEMDEV_WriteEx                                emodules/mod_orange/built-in.o
                                                  emodules/mod_orange/orange_mod_api.o
GUI_MEMDEV_WriteExAt                              emodules/mod_orange/built-in.o
                                                  emodules/mod_orange/orange_mod_api.o
GUI_MEMDEV__APIList1                              emodules/mod_orange/built-in.o
GUI_MEMDEV__APIList16                             emodules/mod_orange/built-in.o
GUI_MEMDEV__APIList32                             emodules/mod_orange/built-in.o
GUI_MEMDEV__APIList8                              emodules/mod_orange/built-in.o
GUI_MEMDEV__Color2Index                           emodules/mod_orange/built-in.o
GUI_MEMDEV__CreateFixed                           emodules/mod_orange/built-in.o
GUI_MEMDEV__CreateFixed1                          emodules/mod_orange/built-in.o
GUI_MEMDEV__GetIndexMask                          emodules/mod_orange/built-in.o
GUI_MEMDEV__GetRect                               emodules/mod_orange/built-in.o
GUI_MEMDEV__Index2Color                           emodules/mod_orange/built-in.o
GUI_MEMDEV__WriteToActiveAt                       emodules/mod_orange/built-in.o
GUI_MEMDEV__XY2PTR                                emodules/mod_orange/built-in.o
GUI_MEMDEV__XY2PTREx                              emodules/mod_orange/built-in.o
GUI_MOUSE_DRIVER_PS2_Init                         emodules/mod_orange/built-in.o
GUI_MOUSE_DRIVER_PS2_OnRx                         emodules/mod_orange/built-in.o
GUI_MOUSE_GetState                                emodules/mod_orange/built-in.o
GUI_MOUSE_StoreState                              emodules/mod_orange/built-in.o
GUI_MagnifyPolygon                                emodules/mod_orange/built-in.o
GUI_ManWinCreate                                  emodules/mod_orange/built-in.o
                                                  emodules/mod_orange/orange_mod_api.o
GUI_ManWinDefaultProc                             emodules/mod_orange/built-in.o
                                                  emodules/mod_orange/orange_mod_api.o
GUI_ManWinDelete                                  emodules/mod_orange/built-in.o
                                                  emodules/mod_orange/orange_mod_api.o
GUI_Memdev_FrameBuffer_Release                    emodules/mod_orange/built-in.o
                                                  emodules/mod_orange/orange_mod_api.o
GUI_MergeRect                                     emodules/mod_orange/built-in.o
                                                  emodules/mod_orange/orange_mod_api.o
GUI_ModuleDialogCreate                            emodules/mod_orange/built-in.o
                                                  emodules/mod_orange/orange_mod_api.o
GUI_ModulelessDialogCreate                        emodules/mod_orange/built-in.o
                                                  emodules/mod_orange/orange_mod_api.o
GUI_ModulelessDialogDelete                        emodules/mod_orange/built-in.o
                                                  emodules/mod_orange/orange_mod_api.o
GUI_MoveRect                                      emodules/mod_orange/built-in.o
                                                  emodules/mod_orange/orange_mod_api.o
GUI_MoveRel                                       emodules/mod_orange/built-in.o
                                                  emodules/mod_orange/orange_mod_api.o
GUI_MoveTo                                        emodules/mod_orange/built-in.o
                                                  emodules/mod_orange/orange_mod_api.o
GUI_MsgSetRepeatTimes                             emodules/mod_orange/built-in.o
                                                  emodules/mod_orange/orange_mod_api.o
GUI_NotifyMSGQ                                    emodules/mod_orange/built-in.o
GUI_NotifyParent                                  emodules/mod_orange/built-in.o
                                                  emodules/mod_orange/orange_mod_api.o
GUI_OpenAlphaBlend                                emodules/mod_orange/built-in.o
                                                  emodules/mod_orange/orange_mod_api.o
GUI_PID_GetState                                  emodules/mod_orange/built-in.o
GUI_PID_StoreState                                emodules/mod_orange/built-in.o
GUI_PeekMessage                                   emodules/mod_orange/built-in.o
                                                  emodules/mod_orange/orange_mod_api.o
GUI_PhyPt2LogPt                                   emodules/mod_orange/built-in.o
GUI_PixelsHeaderM                                 emodules/mod_orange/built-in.o
GUI_Pixels_ArrowL                                 emodules/mod_orange/built-in.o
GUI_Pixels_ArrowM                                 emodules/mod_orange/built-in.o
GUI_Pixels_ArrowS                                 emodules/mod_orange/built-in.o
GUI_Pixels_CrossL                                 emodules/mod_orange/built-in.o
GUI_Pixels_CrossM                                 emodules/mod_orange/built-in.o
GUI_Pixels_CrossS                                 emodules/mod_orange/built-in.o
GUI_PostMessage                                   emodules/mod_orange/built-in.o
                                                  emodules/mod_orange/orange_mod_api.o
GUI_PostMsgHandle                                 emodules/mod_orange/built-in.o
GUI_PostQuitMessage                               emodules/mod_orange/built-in.o
                                                  emodules/mod_orange/orange_mod_api.o
GUI_PostSyncMessage                               emodules/mod_orange/built-in.o
                                                  emodules/mod_orange/orange_mod_api.o
GUI_PostSyncSem                                   emodules/mod_orange/built-in.o
                                                  emodules/mod_orange/orange_mod_api.o
GUI_Pow10                                         emodules/mod_orange/built-in.o
GUI_QueryMessage                                  emodules/mod_orange/built-in.o
                                                  emodules/mod_orange/orange_mod_api.o
GUI_QueueMessage                                  emodules/mod_orange/built-in.o
GUI_RectDispString                                emodules/mod_orange/built-in.o
GUI_RectsIntersect                                emodules/mod_orange/built-in.o
                                                  emodules/mod_orange/orange_mod_api.o
GUI_ReleaseLayer                                  emodules/mod_orange/built-in.o
                                                  emodules/mod_orange/orange_mod_api.o
GUI_ResetTimer                                    emodules/mod_orange/built-in.o
                                                  emodules/mod_orange/orange_mod_api.o
GUI_RestoreContext                                emodules/mod_orange/built-in.o
                                                  emodules/mod_orange/orange_mod_api.o
GUI_RotatePolygon                                 emodules/mod_orange/built-in.o
GUI_SFT_CreateFont                                emodules/mod_orange/built-in.o
                                                  emodules/mod_orange/orange_mod_api.o
GUI_SFT_ReleaseFont                               emodules/mod_orange/built-in.o
                                                  emodules/mod_orange/orange_mod_api.o
GUI_SIF_APIList_Prop                              emodules/mod_orange/built-in.o
GUI_SIF_CreateFont                                emodules/mod_orange/built-in.o
GUI_SIF_DeleteFont                                emodules/mod_orange/built-in.o
GUI_SaveContext                                   emodules/mod_orange/built-in.o
                                                  emodules/mod_orange/orange_mod_api.o
GUI_SceenPointInWin                               emodules/mod_orange/built-in.o
                                                  emodules/mod_orange/orange_mod_api.o
GUI_ScnLogPt2PhyPt                                emodules/mod_orange/built-in.o
GUI_ScnPhyPt2LogPt                                emodules/mod_orange/built-in.o
GUI_ScreenToClient                                emodules/mod_orange/built-in.o
                                                  emodules/mod_orange/orange_mod_api.o
GUI_ScreenToFB                                    emodules/mod_orange/built-in.o
                                                  emodules/mod_orange/orange_mod_api.o
GUI_ScreenToFrameWin                              emodules/mod_orange/built-in.o
GUI_ScreenToWindow                                emodules/mod_orange/built-in.o
                                                  emodules/mod_orange/orange_mod_api.o
GUI_SelectLCD                                     emodules/mod_orange/built-in.o
                                                  emodules/mod_orange/orange_mod_api.o
GUI_SelectLayer                                   emodules/mod_orange/built-in.o
                                                  emodules/mod_orange/orange_mod_api.o
GUI_SendAsyncMessage                              emodules/mod_orange/built-in.o
                                                  emodules/mod_orange/orange_mod_api.o
GUI_SendKeyMsg                                    emodules/mod_orange/built-in.o
GUI_SendMessage                                   emodules/mod_orange/built-in.o
                                                  emodules/mod_orange/orange_mod_api.o
GUI_SendMessageTimeout                            emodules/mod_orange/built-in.o
                                                  emodules/mod_orange/orange_mod_api.o
GUI_SendNotifyMessage                             emodules/mod_orange/built-in.o
                                                  emodules/mod_orange/orange_mod_api.o
GUI_SetActiveManWin                               emodules/mod_orange/built-in.o
                                                  emodules/mod_orange/orange_mod_api.o
GUI_SetBkColor                                    emodules/mod_orange/built-in.o
                                                  emodules/mod_orange/orange_mod_api.o
GUI_SetBkColorIndex                               emodules/mod_orange/built-in.o
GUI_SetClipRect                                   emodules/mod_orange/built-in.o
                                                  emodules/mod_orange/orange_mod_api.o
GUI_SetColor                                      emodules/mod_orange/built-in.o
                                                  emodules/mod_orange/orange_mod_api.o
GUI_SetColorIndex                                 emodules/mod_orange/built-in.o
GUI_SetControlClassData                           emodules/mod_orange/built-in.o
GUI_SetCtrlClassAddData                           emodules/mod_orange/built-in.o
                                                  emodules/mod_orange/orange_mod_api.o
GUI_SetDecChar                                    emodules/mod_orange/built-in.o
GUI_SetDefault                                    emodules/mod_orange/built-in.o
                                                  emodules/mod_orange/orange_mod_api.o
GUI_SetDrawMode                                   emodules/mod_orange/built-in.o
                                                  emodules/mod_orange/orange_mod_api.o
GUI_SetFont                                       emodules/mod_orange/built-in.o
                                                  emodules/mod_orange/orange_mod_api.o
GUI_SetFontMode                                   emodules/mod_orange/built-in.o
                                                  emodules/mod_orange/orange_mod_api.o
GUI_SetFrameColor32bpp                            emodules/mod_orange/built-in.o
GUI_SetFrameColor8bpp32                           emodules/mod_orange/built-in.o
                                                  emodules/mod_orange/orange_mod_api.o
GUI_SetKeyMsgHook                                 emodules/mod_orange/built-in.o
GUI_SetLBorder                                    emodules/mod_orange/built-in.o
GUI_SetLCDDirection                               emodules/mod_orange/built-in.o
                                                  emodules/mod_orange/orange_mod_api.o
GUI_SetLCDSize                                    emodules/mod_orange/built-in.o
                                                  emodules/mod_orange/orange_mod_api.o
GUI_SetLUTColor                                   emodules/mod_orange/built-in.o
GUI_SetLUTColorEx                                 emodules/mod_orange/built-in.o
GUI_SetLUTEntry                                   emodules/mod_orange/built-in.o
GUI_SetLineStyle                                  emodules/mod_orange/built-in.o
                                                  emodules/mod_orange/orange_mod_api.o
GUI_SetOrg                                        emodules/mod_orange/built-in.o
GUI_SetPenShape                                   emodules/mod_orange/built-in.o
                                                  emodules/mod_orange/orange_mod_api.o
GUI_SetPenSize                                    emodules/mod_orange/built-in.o
                                                  emodules/mod_orange/orange_mod_api.o
GUI_SetRectMem                                    emodules/mod_orange/built-in.o
                                                  emodules/mod_orange/orange_mod_api.o
GUI_SetRectMemEx                                  emodules/mod_orange/built-in.o
GUI_SetScnDir                                     emodules/mod_orange/built-in.o
                                                  emodules/mod_orange/orange_mod_api.o
GUI_SetSyncMsgRetVal                              emodules/mod_orange/built-in.o
                                                  emodules/mod_orange/orange_mod_api.o
GUI_SetTextAlign                                  emodules/mod_orange/built-in.o
                                                  emodules/mod_orange/orange_mod_api.o
GUI_SetTextMode                                   emodules/mod_orange/built-in.o
                                                  emodules/mod_orange/orange_mod_api.o
GUI_SetTextStyle                                  emodules/mod_orange/built-in.o
GUI_SetTimer                                      emodules/mod_orange/built-in.o
                                                  emodules/mod_orange/orange_mod_api.o
GUI_SetZoomWin                                    emodules/mod_orange/built-in.o
                                                  emodules/mod_orange/orange_mod_api.o
GUI_StaticSetBmpPos                               emodules/mod_orange/built-in.o
                                                  emodules/mod_orange/orange_mod_api.o
GUI_StaticSetCharSet                              emodules/mod_orange/built-in.o
                                                  emodules/mod_orange/orange_mod_api.o
GUI_StaticSetFcsTxtColor                          emodules/mod_orange/built-in.o
                                                  emodules/mod_orange/orange_mod_api.o
GUI_StaticSetFocusBmp                             emodules/mod_orange/built-in.o
                                                  emodules/mod_orange/orange_mod_api.o
GUI_StaticSetText                                 emodules/mod_orange/built-in.o
                                                  emodules/mod_orange/orange_mod_api.o
GUI_StaticSetTxtPos                               emodules/mod_orange/built-in.o
                                                  emodules/mod_orange/orange_mod_api.o
GUI_StaticSetUnFcsTxtColor                        emodules/mod_orange/built-in.o
                                                  emodules/mod_orange/orange_mod_api.o
GUI_StaticSetUnFocusBmp                           emodules/mod_orange/built-in.o
                                                  emodules/mod_orange/orange_mod_api.o
GUI_StaticStartMove                               emodules/mod_orange/built-in.o
                                                  emodules/mod_orange/orange_mod_api.o
GUI_StaticStopMove                                emodules/mod_orange/built-in.o
                                                  emodules/mod_orange/orange_mod_api.o
GUI_StoreKey                                      emodules/mod_orange/built-in.o
GUI_StoreKeyMsg                                   emodules/mod_orange/built-in.o
GUI_StubNop                                       emodules/mod_orange/orange_mod_api.o
GUI_SysToGUIColor                                 emodules/mod_orange/built-in.o
GUI_TIMER_Context                                 emodules/mod_orange/built-in.o
GUI_TIMER_Create                                  emodules/mod_orange/built-in.o
GUI_TIMER_Delete                                  emodules/mod_orange/built-in.o
GUI_TIMER_Exec                                    emodules/mod_orange/built-in.o
GUI_TIMER_Restart                                 emodules/mod_orange/built-in.o
GUI_TIMER_SetDelay                                emodules/mod_orange/built-in.o
GUI_TIMER_SetPeriod                               emodules/mod_orange/built-in.o
GUI_TIMER_SetTime                                 emodules/mod_orange/built-in.o
GUI_TOUCH_DriverAnalog_C                          emodules/mod_orange/built-in.o
GUI_TOUCH_GetState                                emodules/mod_orange/built-in.o
GUI_TOUCH_GetUnstable                             emodules/mod_orange/built-in.o
GUI_TOUCH_StoreState                              emodules/mod_orange/built-in.o
GUI_TOUCH_StoreStateEx                            emodules/mod_orange/built-in.o
GUI_TOUCH_StoreUnstable                           emodules/mod_orange/built-in.o
GUI_TOUCH_X_ActivateX                             emodules/mod_orange/built-in.o
                                                  emodules/mod_orange/orange_mod_api.o
GUI_TOUCH_X_ActivateY                             emodules/mod_orange/built-in.o
                                                  emodules/mod_orange/orange_mod_api.o
GUI_TOUCH_X_MeasureX                              emodules/mod_orange/built-in.o
                                                  emodules/mod_orange/orange_mod_api.o
GUI_TOUCH_X_MeasureY                              emodules/mod_orange/built-in.o
                                                  emodules/mod_orange/orange_mod_api.o
GUI_TerminateControlClass                         emodules/mod_orange/built-in.o
                                                  emodules/mod_orange/orange_mod_api.o
GUI_ThrowAwayMessages                             emodules/mod_orange/built-in.o
                                                  emodules/mod_orange/orange_mod_api.o
GUI_TouchPhyDirToLogDir                           emodules/mod_orange/built-in.o
GUI_TxtBoxSetPara                                 emodules/mod_orange/built-in.o
                                                  emodules/mod_orange/orange_mod_api.o
GUI_TxtboxDelete                                  emodules/mod_orange/built-in.o
GUI_TxtboxDestroy                                 emodules/mod_orange/built-in.o
GUI_TxtboxGetItemCount                            emodules/mod_orange/built-in.o
GUI_TxtboxGetMode                                 emodules/mod_orange/built-in.o
                                                  emodules/mod_orange/orange_mod_api.o
GUI_TxtboxOnDraw                                  emodules/mod_orange/built-in.o
                                                  emodules/mod_orange/orange_mod_api.o
GUI_TxtboxPrivCreate                              emodules/mod_orange/built-in.o
GUI_TxtboxSetMode                                 emodules/mod_orange/built-in.o
                                                  emodules/mod_orange/orange_mod_api.o
GUI_TxtboxSetStamp                                emodules/mod_orange/built-in.o
                                                  emodules/mod_orange/orange_mod_api.o
GUI_TxtboxSetTextAlign                            emodules/mod_orange/built-in.o
GUI_UC2DB                                         emodules/mod_orange/built-in.o
GUI_UC_DispString                                 emodules/mod_orange/built-in.o
GUI_UC_Encode                                     emodules/mod_orange/built-in.o
GUI_UC_GetCharCode                                emodules/mod_orange/built-in.o
                                                  emodules/mod_orange/orange_mod_api.o
GUI_UC_GetCharSize                                emodules/mod_orange/built-in.o
                                                  emodules/mod_orange/orange_mod_api.o
GUI_UC_SetEncodeBig5                              emodules/mod_orange/built-in.o
                                                  emodules/mod_orange/orange_mod_api.o
GUI_UC_SetEncodeCP1250                            emodules/mod_orange/built-in.o
                                                  emodules/mod_orange/orange_mod_api.o
GUI_UC_SetEncodeCP1251                            emodules/mod_orange/built-in.o
                                                  emodules/mod_orange/orange_mod_api.o
GUI_UC_SetEncodeCP1253                            emodules/mod_orange/built-in.o
                                                  emodules/mod_orange/orange_mod_api.o
GUI_UC_SetEncodeCP1255                            emodules/mod_orange/built-in.o
                                                  emodules/mod_orange/orange_mod_api.o
GUI_UC_SetEncodeCP1256                            emodules/mod_orange/built-in.o
                                                  emodules/mod_orange/orange_mod_api.o
GUI_UC_SetEncodeCP1257                            emodules/mod_orange/built-in.o
                                                  emodules/mod_orange/orange_mod_api.o
GUI_UC_SetEncodeCP1258                            emodules/mod_orange/built-in.o
                                                  emodules/mod_orange/orange_mod_api.o
GUI_UC_SetEncodeCP874                             emodules/mod_orange/built-in.o
                                                  emodules/mod_orange/orange_mod_api.o
GUI_UC_SetEncodeEUCJP                             emodules/mod_orange/built-in.o
                                                  emodules/mod_orange/orange_mod_api.o
GUI_UC_SetEncodeEUCKR                             emodules/mod_orange/built-in.o
                                                  emodules/mod_orange/orange_mod_api.o
GUI_UC_SetEncodeGB2312                            emodules/mod_orange/built-in.o
                                                  emodules/mod_orange/orange_mod_api.o
GUI_UC_SetEncodeGBK                               emodules/mod_orange/built-in.o
                                                  emodules/mod_orange/orange_mod_api.o
GUI_UC_SetEncodeISO88591                          emodules/mod_orange/built-in.o
                                                  emodules/mod_orange/orange_mod_api.o
GUI_UC_SetEncodeISO885910                         emodules/mod_orange/built-in.o
                                                  emodules/mod_orange/orange_mod_api.o
GUI_UC_SetEncodeISO885911                         emodules/mod_orange/built-in.o
                                                  emodules/mod_orange/orange_mod_api.o
GUI_UC_SetEncodeISO885912                         emodules/mod_orange/built-in.o
                                                  emodules/mod_orange/orange_mod_api.o
GUI_UC_SetEncodeISO885913                         emodules/mod_orange/built-in.o
                                                  emodules/mod_orange/orange_mod_api.o
GUI_UC_SetEncodeISO885914                         emodules/mod_orange/built-in.o
                                                  emodules/mod_orange/orange_mod_api.o
GUI_UC_SetEncodeISO885915                         emodules/mod_orange/built-in.o
                                                  emodules/mod_orange/orange_mod_api.o
GUI_UC_SetEncodeISO885916                         emodules/mod_orange/built-in.o
                                                  emodules/mod_orange/orange_mod_api.o
GUI_UC_SetEncodeISO88592                          emodules/mod_orange/built-in.o
                                                  emodules/mod_orange/orange_mod_api.o
GUI_UC_SetEncodeISO88593                          emodules/mod_orange/built-in.o
                                                  emodules/mod_orange/orange_mod_api.o
GUI_UC_SetEncodeISO88594                          emodules/mod_orange/built-in.o
                                                  emodules/mod_orange/orange_mod_api.o
GUI_UC_SetEncodeISO88595                          emodules/mod_orange/built-in.o
                                                  emodules/mod_orange/orange_mod_api.o
GUI_UC_SetEncodeISO88596                          emodules/mod_orange/built-in.o
                                                  emodules/mod_orange/orange_mod_api.o
GUI_UC_SetEncodeISO88597                          emodules/mod_orange/built-in.o
                                                  emodules/mod_orange/orange_mod_api.o
GUI_UC_SetEncodeISO88598                          emodules/mod_orange/built-in.o
                                                  emodules/mod_orange/orange_mod_api.o
GUI_UC_SetEncodeISO88599                          emodules/mod_orange/built-in.o
                                                  emodules/mod_orange/orange_mod_api.o
GUI_UC_SetEncodeKIO8R                             emodules/mod_orange/built-in.o
                                                  emodules/mod_orange/orange_mod_api.o
GUI_UC_SetEncodeNone                              emodules/mod_orange/built-in.o
                                                  emodules/mod_orange/orange_mod_api.o
GUI_UC_SetEncodeSJIS                              emodules/mod_orange/built-in.o
                                                  emodules/mod_orange/orange_mod_api.o
GUI_UC_SetEncodeUTF8                              emodules/mod_orange/built-in.o
                                                  emodules/mod_orange/orange_mod_api.o
GUI_UC__CalcSizeOfChar                            emodules/mod_orange/built-in.o
GUI_UC__GetCharCodeInc                            emodules/mod_orange/built-in.o
GUI_UC__NumBytes2NumChars                         emodules/mod_orange/built-in.o
GUI_UC__NumChars2NumBytes                         emodules/mod_orange/built-in.o
GUI_USAGE_AddRect                                 emodules/mod_orange/built-in.o
GUI_USAGE_BM_Create                               emodules/mod_orange/built-in.o
GUI_USAGE_DecUseCnt                               emodules/mod_orange/built-in.o
GUI_USAGE_Select                                  emodules/mod_orange/built-in.o
GUI_Unlock                                        emodules/mod_orange/built-in.o
                                                  emodules/mod_orange/orange_mod_api.o
GUI_WaitEvent                                     emodules/mod_orange/built-in.o
GUI_WaitKey                                       emodules/mod_orange/built-in.o
GUI_Warn                                          emodules/mod_orange/built-in.o
                                                  emodules/mod_orange/orange_mod_api.o
GUI_Warn1                                         emodules/mod_orange/built-in.o
                                                  emodules/mod_orange/orange_mod_api.o
GUI_Warn2                                         emodules/mod_orange/built-in.o
                                                  emodules/mod_orange/orange_mod_api.o
GUI_Warn3                                         emodules/mod_orange/built-in.o
                                                  emodules/mod_orange/orange_mod_api.o
GUI_Warn4                                         emodules/mod_orange/built-in.o
                                                  emodules/mod_orange/orange_mod_api.o
GUI_WidgetToScreen                                emodules/mod_orange/built-in.o
GUI_WinAddNewHostedWin                            emodules/mod_orange/built-in.o
GUI_WinCreate                                     emodules/mod_orange/built-in.o
GUI_WinDelete                                     emodules/mod_orange/built-in.o
GUI_WinEnable                                     emodules/mod_orange/built-in.o
GUI_WinExit                                       emodules/mod_orange/built-in.o
                                                  emodules/mod_orange/orange_mod_api.o
GUI_WinFBToClient                                 emodules/mod_orange/built-in.o
GUI_WinGetActiveCtrlWin                           emodules/mod_orange/built-in.o
GUI_WinGetAddData                                 emodules/mod_orange/built-in.o
                                                  emodules/mod_orange/orange_mod_api.o
GUI_WinGetAttr                                    emodules/mod_orange/built-in.o
                                                  emodules/mod_orange/orange_mod_api.o
GUI_WinGetCallback                                emodules/mod_orange/built-in.o
                                                  emodules/mod_orange/orange_mod_api.o
GUI_WinGetCaptureWin                              emodules/mod_orange/built-in.o
                                                  emodules/mod_orange/orange_mod_api.o
GUI_WinGetChildFromName                           emodules/mod_orange/built-in.o
GUI_WinGetClient                                  emodules/mod_orange/built-in.o
                                                  emodules/mod_orange/orange_mod_api.o
GUI_WinGetClientFBRect                            emodules/mod_orange/built-in.o
                                                  emodules/mod_orange/orange_mod_api.o
GUI_WinGetClientRECT                              emodules/mod_orange/built-in.o
                                                  emodules/mod_orange/orange_mod_api.o
GUI_WinGetClientRect                              emodules/mod_orange/built-in.o
GUI_WinGetDlgItem                                 emodules/mod_orange/built-in.o
                                                  emodules/mod_orange/orange_mod_api.o
GUI_WinGetExStyle                                 emodules/mod_orange/built-in.o
                                                  emodules/mod_orange/orange_mod_api.o
GUI_WinGetFirstChild                              emodules/mod_orange/built-in.o
                                                  emodules/mod_orange/orange_mod_api.o
GUI_WinGetFirstHostedWin                          emodules/mod_orange/built-in.o
                                                  emodules/mod_orange/orange_mod_api.o
GUI_WinGetFocusChild                              emodules/mod_orange/built-in.o
                                                  emodules/mod_orange/orange_mod_api.o
GUI_WinGetFrmWin                                  emodules/mod_orange/built-in.o
                                                  emodules/mod_orange/orange_mod_api.o
GUI_WinGetHandFromId                              emodules/mod_orange/built-in.o
                                                  emodules/mod_orange/orange_mod_api.o
GUI_WinGetHandFromName                            emodules/mod_orange/built-in.o
                                                  emodules/mod_orange/orange_mod_api.o
GUI_WinGetItemId                                  emodules/mod_orange/built-in.o
                                                  emodules/mod_orange/orange_mod_api.o
GUI_WinGetLyrWin                                  emodules/mod_orange/built-in.o
                                                  emodules/mod_orange/orange_mod_api.o
GUI_WinGetMainManWin                              emodules/mod_orange/built-in.o
                                                  emodules/mod_orange/orange_mod_api.o
GUI_WinGetManWin                                  emodules/mod_orange/built-in.o
                                                  emodules/mod_orange/orange_mod_api.o
GUI_WinGetMsgQueue                                emodules/mod_orange/built-in.o
GUI_WinGetName                                    emodules/mod_orange/built-in.o
                                                  emodules/mod_orange/orange_mod_api.o
GUI_WinGetNextBro                                 emodules/mod_orange/built-in.o
                                                  emodules/mod_orange/orange_mod_api.o
GUI_WinGetNextHostedWin                           emodules/mod_orange/built-in.o
                                                  emodules/mod_orange/orange_mod_api.o
GUI_WinGetNotifyCallback                          emodules/mod_orange/built-in.o
                                                  emodules/mod_orange/orange_mod_api.o
GUI_WinGetOwnerWin                                emodules/mod_orange/built-in.o
                                                  emodules/mod_orange/orange_mod_api.o
GUI_WinGetParent                                  emodules/mod_orange/built-in.o
                                                  emodules/mod_orange/orange_mod_api.o
GUI_WinGetPrimitiveWin                            emodules/mod_orange/built-in.o
                                                  emodules/mod_orange/orange_mod_api.o
GUI_WinGetRootWin                                 emodules/mod_orange/built-in.o
                                                  emodules/mod_orange/orange_mod_api.o
GUI_WinGetStyle                                   emodules/mod_orange/built-in.o
                                                  emodules/mod_orange/orange_mod_api.o
GUI_WinGetTouchFocus                              emodules/mod_orange/built-in.o
                                                  emodules/mod_orange/orange_mod_api.o
GUI_WinGetType                                    emodules/mod_orange/built-in.o
                                                  emodules/mod_orange/orange_mod_api.o
GUI_WinGetWinFBRect                               emodules/mod_orange/built-in.o
                                                  emodules/mod_orange/orange_mod_api.o
GUI_WinGetWinRECT                                 emodules/mod_orange/built-in.o
                                                  emodules/mod_orange/orange_mod_api.o
GUI_WinGetWinThreadId                             emodules/mod_orange/built-in.o
GUI_WinInit                                       emodules/mod_orange/built-in.o
                                                  emodules/mod_orange/orange_mod_api.o
GUI_WinIsAncestor                                 emodules/mod_orange/built-in.o
                                                  emodules/mod_orange/orange_mod_api.o
GUI_WinIsChild                                    emodules/mod_orange/built-in.o
                                                  emodules/mod_orange/orange_mod_api.o
GUI_WinIsEnabled                                  emodules/mod_orange/built-in.o
GUI_WinIsVisible                                  emodules/mod_orange/built-in.o
                                                  emodules/mod_orange/orange_mod_api.o
GUI_WinLock                                       emodules/mod_orange/built-in.o
GUI_WinLockAccept                                 emodules/mod_orange/built-in.o
GUI_WinMove                                       emodules/mod_orange/built-in.o
GUI_WinReleaseCapture                             emodules/mod_orange/built-in.o
                                                  emodules/mod_orange/orange_mod_api.o
GUI_WinReleaseTouchFocus                          emodules/mod_orange/built-in.o
                                                  emodules/mod_orange/orange_mod_api.o
GUI_WinRemoveHostedWin                            emodules/mod_orange/built-in.o
GUI_WinSetActiveChild                             emodules/mod_orange/built-in.o
                                                  emodules/mod_orange/orange_mod_api.o
GUI_WinSetAddData                                 emodules/mod_orange/built-in.o
                                                  emodules/mod_orange/orange_mod_api.o
GUI_WinSetAttr                                    emodules/mod_orange/built-in.o
                                                  emodules/mod_orange/orange_mod_api.o
GUI_WinSetCallback                                emodules/mod_orange/built-in.o
                                                  emodules/mod_orange/orange_mod_api.o
GUI_WinSetCaptureWin                              emodules/mod_orange/built-in.o
                                                  emodules/mod_orange/orange_mod_api.o
GUI_WinSetClientRECT                              emodules/mod_orange/built-in.o
                                                  emodules/mod_orange/orange_mod_api.o
GUI_WinSetExStyle                                 emodules/mod_orange/built-in.o
                                                  emodules/mod_orange/orange_mod_api.o
GUI_WinSetFocusChild                              emodules/mod_orange/built-in.o
                                                  emodules/mod_orange/orange_mod_api.o
GUI_WinSetNotifyCallback                          emodules/mod_orange/built-in.o
                                                  emodules/mod_orange/orange_mod_api.o
GUI_WinSetStyle                                   emodules/mod_orange/built-in.o
                                                  emodules/mod_orange/orange_mod_api.o
GUI_WinSetTouchFocus                              emodules/mod_orange/built-in.o
                                                  emodules/mod_orange/orange_mod_api.o
GUI_WinSetWinRECT                                 emodules/mod_orange/built-in.o
                                                  emodules/mod_orange/orange_mod_api.o
GUI_WinShow                                       emodules/mod_orange/built-in.o
GUI_WinThreadCleanup                              emodules/mod_orange/built-in.o
                                                  emodules/mod_orange/orange_mod_api.o
GUI_WinUnlock                                     emodules/mod_orange/built-in.o
GUI_WinUpdate                                     emodules/mod_orange/built-in.o
                                                  emodules/mod_orange/orange_mod_api.o
GUI_Win_GetTaskId                                 emodules/mod_orange/built-in.o
GUI_Win_InitLock                                  emodules/mod_orange/built-in.o
GUI_Win_Lock                                      emodules/mod_orange/built-in.o
GUI_Win_LockAccept                                emodules/mod_orange/built-in.o
GUI_Win_Unlock                                    emodules/mod_orange/built-in.o
GUI_WindowToScreen                                emodules/mod_orange/built-in.o
                                                  emodules/mod_orange/orange_mod_api.o
GUI_WndInvalidateRect                             emodules/mod_orange/built-in.o
GUI_X_Delay                                       emodules/mod_orange/built-in.o
GUI_X_ErrorOut                                    emodules/mod_orange/built-in.o
GUI_X_ExecIdle                                    emodules/mod_orange/built-in.o
GUI_X_GetKey                                      emodules/mod_orange/built-in.o
GUI_X_GetTaskId                                   emodules/mod_orange/built-in.o
GUI_X_GetTime                                     emodules/mod_orange/built-in.o
GUI_X_Init                                        emodules/mod_orange/built-in.o
GUI_X_InitOS                                      emodules/mod_orange/built-in.o
GUI_X_Lock                                        emodules/mod_orange/built-in.o
GUI_X_LockAccept                                  emodules/mod_orange/built-in.o
GUI_X_Log                                         emodules/mod_orange/built-in.o
GUI_X_SignalEvent                                 emodules/mod_orange/built-in.o
GUI_X_StoreKey                                    emodules/mod_orange/built-in.o
GUI_X_Unlock                                      emodules/mod_orange/built-in.o
GUI_X_WaitEvent                                   emodules/mod_orange/built-in.o
GUI_X_WaitKey                                     emodules/mod_orange/built-in.o
GUI_X_Warn                                        emodules/mod_orange/built-in.o
GUI__API_TableNone                                emodules/mod_orange/built-in.o
GUI__AddSpaceHex                                  emodules/mod_orange/built-in.o
GUI__CalcTextRect                                 emodules/mod_orange/built-in.o
GUI__DispLine                                     emodules/mod_orange/built-in.o
GUI__DispStringInRect                             emodules/mod_orange/built-in.o
                                                  emodules/mod_orange/orange_mod_api.o
GUI__DivideRound                                  emodules/mod_orange/built-in.o
GUI__DivideRound32                                emodules/mod_orange/built-in.o
                                                  emodules/mod_orange/orange_mod_api.o
GUI__GetFontSizeY                                 emodules/mod_orange/built-in.o
GUI__GetLineDistX                                 emodules/mod_orange/built-in.o
GUI__GetLineNumChars                              emodules/mod_orange/built-in.o
GUI__GetNumChars                                  emodules/mod_orange/built-in.o
GUI__HandleEOLine                                 emodules/mod_orange/built-in.o
GUI__IntersectRect                                emodules/mod_orange/built-in.o
                                                  emodules/mod_orange/orange_mod_api.o
GUI__IntersectRects                               emodules/mod_orange/built-in.o
                                                  emodules/mod_orange/orange_mod_api.o
GUI__Read16                                       emodules/mod_orange/built-in.o
GUI__Read32                                       emodules/mod_orange/built-in.o
GUI__ReduceRect                                   emodules/mod_orange/built-in.o
GUI__SetText                                      emodules/mod_orange/built-in.o
GUI__WrapGetNumBytesToNextLine                    emodules/mod_orange/built-in.o
GUI__WrapGetNumCharsDisp                          emodules/mod_orange/built-in.o
GUI__WrapGetNumCharsToNextLine                    emodules/mod_orange/built-in.o
GUI__memset                                       emodules/mod_orange/built-in.o
GUI__memset16                                     emodules/mod_orange/built-in.o
GUI__memset32                                     emodules/mod_orange/built-in.o
GUI__strcmp                                       emodules/mod_orange/built-in.o
GUI__strcmp_hp                                    emodules/mod_orange/built-in.o
GUI__strlen                                       emodules/mod_orange/built-in.o
GUI_acFont6x8                                     emodules/mod_orange/built-in.o
GUI_cos                                           emodules/mod_orange/built-in.o
GUI_pLCD_APIList                                  emodules/mod_orange/built-in.o
GUI_pfDispCharStyle                               emodules/mod_orange/built-in.o
GUI_pfKeyMsgHook                                  emodules/mod_orange/built-in.o
GUI_pfTimerExec                                   emodules/mod_orange/built-in.o
GUI_sin                                           emodules/mod_orange/built-in.o
GetBoundRect                                      emodules/mod_orange/built-in.o
GetRes                                            emodules/mod_orange/built-in.o
                                                  emodules/mod_orange/orange_mod_api.o
GetResAddr                                        emodules/mod_orange/built-in.o
                                                  emodules/mod_orange/orange_mod_api.o
GetResSize                                        emodules/mod_orange/built-in.o
                                                  emodules/mod_orange/orange_mod_api.o
GetResType                                        emodules/mod_orange/built-in.o
                                                  emodules/mod_orange/orange_mod_api.o
GuiRectToSysRect                                  emodules/mod_orange/built-in.o
InflateRect                                       emodules/mod_orange/built-in.o
InflateRectToPt                                   emodules/mod_orange/built-in.o
InitFreeQMSGList                                  emodules/mod_orange/built-in.o
InitMemBlockLink                                  emodules/mod_orange/built-in.o
InitMsgQueue                                      emodules/mod_orange/built-in.o
InitTimer                                         emodules/mod_orange/built-in.o
InterMove                                         emodules/mod_orange/built-in.o
IntersectRect                                     emodules/mod_orange/built-in.o
IsCovered                                         emodules/mod_orange/built-in.o
IsRectEmpty                                       emodules/mod_orange/built-in.o
LCDL0Delta_c                                      emodules/mod_orange/built-in.o
LCDL0Mag_c                                        emodules/mod_orange/built-in.o
LCD_AA_MixColors                                  emodules/mod_orange/built-in.o
LCD_APIList180                                    emodules/mod_orange/built-in.o
LCD_APIListCCW                                    emodules/mod_orange/built-in.o
LCD_APIListCW                                     emodules/mod_orange/built-in.o
LCD_API_ColorConv_1                               emodules/mod_orange/built-in.o
LCD_API_ColorConv_2                               emodules/mod_orange/built-in.o
LCD_Color2Index                                   emodules/mod_orange/built-in.o
                                                  emodules/mod_orange/orange_mod_api.o
LCD_Color2Index_1                                 emodules/mod_orange/built-in.o
LCD_Color2Index_2                                 emodules/mod_orange/built-in.o
LCD_Color2Index_M233                              emodules/mod_orange/built-in.o
LCD_Color2Index_M565                              emodules/mod_orange/built-in.o
LCD_Color2Index_M8888                             emodules/mod_orange/built-in.o
LCD_DrawBitmap                                    emodules/mod_orange/built-in.o
LCD_DrawBitmap_Trans                              emodules/mod_orange/built-in.o
LCD_DrawHLine                                     emodules/mod_orange/built-in.o
                                                  emodules/mod_orange/orange_mod_api.o
LCD_DrawPixel                                     emodules/mod_orange/built-in.o
                                                  emodules/mod_orange/orange_mod_api.o
LCD_DrawVLine                                     emodules/mod_orange/built-in.o
                                                  emodules/mod_orange/orange_mod_api.o
LCD_FillRect                                      emodules/mod_orange/built-in.o
                                                  emodules/mod_orange/orange_mod_api.o
LCD_GetBitsPerPixel                               emodules/mod_orange/built-in.o
LCD_GetBitsPerPixelEx                             emodules/mod_orange/built-in.o
LCD_GetBitsPerPixel_1                             emodules/mod_orange/built-in.o
LCD_GetBitsPerPixel_L0Ex                          emodules/mod_orange/built-in.o
LCD_GetBkColorIndex                               emodules/mod_orange/built-in.o
LCD_GetColorIndex                                 emodules/mod_orange/built-in.o
LCD_GetDeltaModeEx                                emodules/mod_orange/built-in.o
LCD_GetDevCap                                     emodules/mod_orange/built-in.o
LCD_GetFixedPalette                               emodules/mod_orange/built-in.o
LCD_GetFixedPaletteEx                             emodules/mod_orange/built-in.o
                                                  emodules/mod_orange/orange_mod_api.o
LCD_GetFixedPalette_1                             emodules/mod_orange/built-in.o
LCD_GetIndexMask_1                                emodules/mod_orange/built-in.o
LCD_GetIndexMask_2                                emodules/mod_orange/built-in.o
LCD_GetIndexMask_M233                             emodules/mod_orange/built-in.o
LCD_GetIndexMask_M565                             emodules/mod_orange/built-in.o
LCD_GetIndexMask_M8888                            emodules/mod_orange/built-in.o
LCD_GetMirrorXEx                                  emodules/mod_orange/built-in.o
LCD_GetMirrorYEx                                  emodules/mod_orange/built-in.o
LCD_GetNumColors                                  emodules/mod_orange/built-in.o
LCD_GetNumColorsEx                                emodules/mod_orange/built-in.o
                                                  emodules/mod_orange/orange_mod_api.o
LCD_GetNumColors_1                                emodules/mod_orange/built-in.o
LCD_GetNumLayers                                  emodules/mod_orange/built-in.o
LCD_GetPixelColor                                 emodules/mod_orange/built-in.o
                                                  emodules/mod_orange/orange_mod_api.o
LCD_GetPixelIndex                                 emodules/mod_orange/built-in.o
                                                  emodules/mod_orange/orange_mod_api.o
LCD_GetSwapRBEx                                   emodules/mod_orange/built-in.o
                                                  emodules/mod_orange/orange_mod_api.o
LCD_GetSwapXYEx                                   emodules/mod_orange/built-in.o
LCD_GetVXSize                                     emodules/mod_orange/built-in.o
LCD_GetVXSizeEx                                   emodules/mod_orange/built-in.o
LCD_GetVXSize_1                                   emodules/mod_orange/built-in.o
LCD_GetVYSize                                     emodules/mod_orange/built-in.o
LCD_GetVYSizeEx                                   emodules/mod_orange/built-in.o
LCD_GetVYSize_1                                   emodules/mod_orange/built-in.o
LCD_GetXMag                                       emodules/mod_orange/built-in.o
                                                  emodules/mod_orange/orange_mod_api.o
LCD_GetXMagEx                                     emodules/mod_orange/built-in.o
LCD_GetXMag_1                                     emodules/mod_orange/built-in.o
LCD_GetXSize                                      emodules/mod_orange/built-in.o
                                                  emodules/mod_orange/orange_mod_api.o
LCD_GetXSizeEx                                    emodules/mod_orange/built-in.o
                                                  emodules/mod_orange/orange_mod_api.o
LCD_GetXSize_1                                    emodules/mod_orange/built-in.o
LCD_GetYMag                                       emodules/mod_orange/built-in.o
                                                  emodules/mod_orange/orange_mod_api.o
LCD_GetYMagEx                                     emodules/mod_orange/built-in.o
LCD_GetYMag_1                                     emodules/mod_orange/built-in.o
LCD_GetYSize                                      emodules/mod_orange/built-in.o
                                                  emodules/mod_orange/orange_mod_api.o
LCD_GetYSizeEx                                    emodules/mod_orange/built-in.o
                                                  emodules/mod_orange/orange_mod_api.o
LCD_GetYSize_1                                    emodules/mod_orange/built-in.o
LCD_GetpPalConvTable                              emodules/mod_orange/built-in.o
LCD_GetpPalConvTableUncached                      emodules/mod_orange/built-in.o
LCD_Index2Color                                   emodules/mod_orange/built-in.o
                                                  emodules/mod_orange/orange_mod_api.o
LCD_Index2ColorEx                                 emodules/mod_orange/built-in.o
LCD_Index2Color_1                                 emodules/mod_orange/built-in.o
LCD_Index2Color_2                                 emodules/mod_orange/built-in.o
LCD_Index2Color_565                               emodules/mod_orange/built-in.o
LCD_Index2Color_M233                              emodules/mod_orange/built-in.o
LCD_Index2Color_M565                              emodules/mod_orange/built-in.o
LCD_Index2Color_M8888                             emodules/mod_orange/built-in.o
LCD_Init                                          emodules/mod_orange/built-in.o
                                                  emodules/mod_orange/orange_mod_api.o
LCD_InitLUT                                       emodules/mod_orange/built-in.o
LCD_Init_layer                                    emodules/mod_orange/built-in.o
                                                  emodules/mod_orange/orange_mod_api.o
LCD_L0_1_APIList                                  emodules/mod_orange/built-in.o
LCD_L0_1_CheckInit                                emodules/mod_orange/built-in.o
LCD_L0_1_Color2Index                              emodules/mod_orange/built-in.o
                                                  emodules/mod_orange/orange_mod_api.o
LCD_L0_1_DrawBitmap                               emodules/mod_orange/built-in.o
LCD_L0_1_DrawHLine                                emodules/mod_orange/built-in.o
LCD_L0_1_DrawPixel                                emodules/mod_orange/built-in.o
LCD_L0_1_DrawVLine                                emodules/mod_orange/built-in.o
LCD_L0_1_FillRect                                 emodules/mod_orange/built-in.o
LCD_L0_1_GetIndexMask                             emodules/mod_orange/built-in.o
                                                  emodules/mod_orange/orange_mod_api.o
LCD_L0_1_GetPixelIndex                            emodules/mod_orange/built-in.o
LCD_L0_1_GetRect                                  emodules/mod_orange/built-in.o
LCD_L0_1_Index2Color                              emodules/mod_orange/built-in.o
                                                  emodules/mod_orange/orange_mod_api.o
LCD_L0_1_Init                                     emodules/mod_orange/built-in.o
LCD_L0_1_ReInit                                   emodules/mod_orange/built-in.o
LCD_L0_1_SetLUTEntry                              emodules/mod_orange/built-in.o
LCD_L0_1_SetOrg                                   emodules/mod_orange/built-in.o
LCD_L0_1_SetPixelIndex                            emodules/mod_orange/built-in.o
LCD_L0_1_XorPixel                                 emodules/mod_orange/built-in.o
LCD_L0_2_APIList                                  emodules/mod_orange/built-in.o
LCD_L0_2_CheckInit                                emodules/mod_orange/built-in.o
LCD_L0_2_Color2Index                              emodules/mod_orange/built-in.o
                                                  emodules/mod_orange/orange_mod_api.o
LCD_L0_2_DrawBitmap                               emodules/mod_orange/built-in.o
LCD_L0_2_DrawHLine                                emodules/mod_orange/built-in.o
LCD_L0_2_DrawPixel                                emodules/mod_orange/built-in.o
LCD_L0_2_DrawVLine                                emodules/mod_orange/built-in.o
LCD_L0_2_FillRect                                 emodules/mod_orange/built-in.o
LCD_L0_2_GetIndexMask                             emodules/mod_orange/built-in.o
                                                  emodules/mod_orange/orange_mod_api.o
LCD_L0_2_GetPixelIndex                            emodules/mod_orange/built-in.o
LCD_L0_2_GetRect                                  emodules/mod_orange/built-in.o
LCD_L0_2_Index2Color                              emodules/mod_orange/built-in.o
                                                  emodules/mod_orange/orange_mod_api.o
LCD_L0_2_Init                                     emodules/mod_orange/built-in.o
LCD_L0_2_ReInit                                   emodules/mod_orange/built-in.o
LCD_L0_2_SetLUTEntry                              emodules/mod_orange/built-in.o
LCD_L0_2_SetOrg                                   emodules/mod_orange/built-in.o
LCD_L0_2_SetPixelIndex                            emodules/mod_orange/built-in.o
LCD_L0_2_XorPixel                                 emodules/mod_orange/built-in.o
LCD_L0_3_Color2Index                              emodules/mod_orange/built-in.o
                                                  emodules/mod_orange/orange_mod_api.o
LCD_L0_3_GetIndexMask                             emodules/mod_orange/built-in.o
                                                  emodules/mod_orange/orange_mod_api.o
LCD_L0_3_GetRect                                  emodules/mod_orange/built-in.o
LCD_L0_3_Index2Color                              emodules/mod_orange/built-in.o
                                                  emodules/mod_orange/orange_mod_api.o
LCD_L0_APIList                                    emodules/mod_orange/built-in.o
LCD_L0_CheckInit                                  emodules/mod_orange/built-in.o
                                                  emodules/mod_orange/orange_mod_api.o
LCD_L0_Color2Index                                emodules/mod_orange/built-in.o
                                                  emodules/mod_orange/orange_mod_api.o
LCD_L0_DrawBitmap                                 emodules/mod_orange/built-in.o
LCD_L0_DrawBitmap8bpp                             emodules/mod_orange/built-in.o
LCD_L0_DrawHLine                                  emodules/mod_orange/built-in.o
LCD_L0_DrawPixel                                  emodules/mod_orange/built-in.o
LCD_L0_DrawVLine                                  emodules/mod_orange/built-in.o
LCD_L0_FillRect                                   emodules/mod_orange/built-in.o
LCD_L0_GetIndexMask                               emodules/mod_orange/built-in.o
                                                  emodules/mod_orange/orange_mod_api.o
LCD_L0_GetPixelIndex                              emodules/mod_orange/built-in.o
LCD_L0_GetRect                                    emodules/mod_orange/built-in.o
LCD_L0_Index2Color                                emodules/mod_orange/built-in.o
                                                  emodules/mod_orange/orange_mod_api.o
LCD_L0_Init                                       emodules/mod_orange/built-in.o
LCD_L0_ReInit                                     emodules/mod_orange/built-in.o
LCD_L0_SetLUTEntry                                emodules/mod_orange/built-in.o
LCD_L0_SetOrg                                     emodules/mod_orange/built-in.o
LCD_L0_SetPixelIndex                              emodules/mod_orange/built-in.o
LCD_L0_XorPixel                                   emodules/mod_orange/built-in.o
LCD_MixColors256                                  emodules/mod_orange/built-in.o
                                                  emodules/mod_orange/orange_mod_api.o
LCD_SelectLCD                                     emodules/mod_orange/built-in.o
LCD_SetAPI                                        emodules/mod_orange/built-in.o
LCD_SetBkColor                                    emodules/mod_orange/built-in.o
                                                  emodules/mod_orange/orange_mod_api.o
LCD_SetBkColorIndex                               emodules/mod_orange/built-in.o
                                                  emodules/mod_orange/orange_mod_api.o
LCD_SetClipRectEx                                 emodules/mod_orange/built-in.o
                                                  emodules/mod_orange/orange_mod_api.o
LCD_SetClipRectMax                                emodules/mod_orange/built-in.o
                                                  emodules/mod_orange/orange_mod_api.o
LCD_SetColor                                      emodules/mod_orange/built-in.o
                                                  emodules/mod_orange/orange_mod_api.o
LCD_SetColorIndex                                 emodules/mod_orange/built-in.o
                                                  emodules/mod_orange/orange_mod_api.o
LCD_SetDrawMode                                   emodules/mod_orange/built-in.o
                                                  emodules/mod_orange/orange_mod_api.o
LCD_SetFontMode                                   emodules/mod_orange/built-in.o
                                                  emodules/mod_orange/orange_mod_api.o
LCD_SetPixelAA                                    emodules/mod_orange/built-in.o
LCD_SetPixelAA_NoTrans                            emodules/mod_orange/built-in.o
LCD_SetPixelIndex                                 emodules/mod_orange/built-in.o
                                                  emodules/mod_orange/orange_mod_api.o
LCD_UpdateColorIndices                            emodules/mod_orange/built-in.o
LCD__aConvTable                                   emodules/mod_orange/built-in.o
LCD_aAPI                                          emodules/mod_orange/built-in.o
LCD_aMirror                                       emodules/mod_orange/built-in.o
Lang_Close                                        emodules/mod_orange/built-in.o
                                                  emodules/mod_orange/orange_mod_api.o
Lang_GetString                                    emodules/mod_orange/built-in.o
                                                  emodules/mod_orange/orange_mod_api.o
Lang_GetStringAddress                             emodules/mod_orange/built-in.o
                                                  emodules/mod_orange/orange_mod_api.o
Lang_GetStringSize                                emodules/mod_orange/built-in.o
                                                  emodules/mod_orange/orange_mod_api.o
Lang_Open                                         emodules/mod_orange/built-in.o
                                                  emodules/mod_orange/orange_mod_api.o
Lang_Read                                         emodules/mod_orange/built-in.o
                                                  emodules/mod_orange/orange_mod_api.o
Layer_AttachToInVisList                           emodules/mod_orange/built-in.o
Layer_AttachToVisableList                         emodules/mod_orange/built-in.o
Layer_DeattachFromInVisList                       emodules/mod_orange/built-in.o
Layer_DeattachFromVisList                         emodules/mod_orange/built-in.o
Layer_ListSetBottom                               emodules/mod_orange/built-in.o
Layer_ListSetTop                                  emodules/mod_orange/built-in.o
ListBox_FixedKeyDownMsg                           emodules/mod_orange/built-in.o
ListBox_FixedKeyUpMsg                             emodules/mod_orange/built-in.o
ListBox_FlatFixedMoveDownMsg                      emodules/mod_orange/built-in.o
ListBox_FlatFixedMoveUpMsg                        emodules/mod_orange/built-in.o
ListBox_FlatMoveGetDist                           emodules/mod_orange/built-in.o
ListBox_FlatMoveToDist                            emodules/mod_orange/built-in.o
ListBox_FlatVarMoveDownMsg                        emodules/mod_orange/built-in.o
ListBox_FlatVarMoveUpMsg                          emodules/mod_orange/built-in.o
ListBox_FoucsItemThread                           emodules/mod_orange/built-in.o
ListBox_GetBufferStatus                           emodules/mod_orange/built-in.o
ListBox_GetMoveStatus                             emodules/mod_orange/built-in.o
ListBox_LoadItemThread                            emodules/mod_orange/built-in.o
ListBox_VarKeyDownMsg                             emodules/mod_orange/built-in.o
ListBox_VarKeyUpMsg                               emodules/mod_orange/built-in.o
ListBuffer_Create                                 emodules/mod_orange/built-in.o
ListBuffer_Destroy                                emodules/mod_orange/built-in.o
ListLayer_AddItemTail                             emodules/mod_orange/built-in.o
ListLayer_AdjustFb                                emodules/mod_orange/built-in.o
ListLayer_BoxAddItemTail                          emodules/mod_orange/built-in.o
ListLayer_BoxDelCurItem                           emodules/mod_orange/built-in.o
ListLayer_BoxDeleteMoveDown                       emodules/mod_orange/built-in.o
ListLayer_ClearMenuItem                           emodules/mod_orange/built-in.o
ListLayer_Create                                  emodules/mod_orange/built-in.o
ListLayer_DelCurItem                              emodules/mod_orange/built-in.o
ListLayer_Destroy                                 emodules/mod_orange/built-in.o
ListLayer_DrawActivedMenuItem                     emodules/mod_orange/built-in.o
ListLayer_DrawFastFoucsMenuItem                   emodules/mod_orange/built-in.o
ListLayer_DrawFoucsMenuItem                       emodules/mod_orange/built-in.o
ListLayer_DrawInActivedMenuItem                   emodules/mod_orange/built-in.o
ListLayer_DrawItemProcess                         emodules/mod_orange/built-in.o
ListLayer_FastFoucsMenuItem                       emodules/mod_orange/built-in.o
ListLayer_FastLoadMenuItem                        emodules/mod_orange/built-in.o
ListLayer_FastUnFoucsMenuItem                     emodules/mod_orange/built-in.o
ListLayer_FixedBoxOnDraw                          emodules/mod_orange/built-in.o
ListLayer_FixedKeyDownMsg                         emodules/mod_orange/built-in.o
ListLayer_FixedKeyUpMsg                           emodules/mod_orange/built-in.o
ListLayer_FixedOnDraw                             emodules/mod_orange/built-in.o
ListLayer_FlatFixedMoveDownMsg                    emodules/mod_orange/built-in.o
ListLayer_FlatFixedMoveUpMsg                      emodules/mod_orange/built-in.o
ListLayer_FlatVarMoveDownMsg                      emodules/mod_orange/built-in.o
ListLayer_FlatVarMoveUpMsg                        emodules/mod_orange/built-in.o
ListLayer_FoucsItemThread                         emodules/mod_orange/built-in.o
ListLayer_FoucsMenuItemCopy                       emodules/mod_orange/built-in.o
ListLayer_GetBPP                                  emodules/mod_orange/built-in.o
ListLayer_GetBufferStatus                         emodules/mod_orange/built-in.o
ListLayer_GetLayerInfo                            emodules/mod_orange/built-in.o
ListLayer_GetLoadStatus                           emodules/mod_orange/built-in.o
ListLayer_GetMoveStatus                           emodules/mod_orange/built-in.o
ListLayer_HeadToTailCopy                          emodules/mod_orange/built-in.o
ListLayer_KeyDownMsg                              emodules/mod_orange/built-in.o
ListLayer_KeyUpMsg                                emodules/mod_orange/built-in.o
ListLayer_LoadItemThread                          emodules/mod_orange/built-in.o
ListLayer_LoadMenuItem                            emodules/mod_orange/built-in.o
ListLayer_MenuItemCopy                            emodules/mod_orange/built-in.o
ListLayer_MenuItemUpdateChild                     emodules/mod_orange/built-in.o
ListLayer_MoveDownMsg                             emodules/mod_orange/built-in.o
ListLayer_MoveMsg                                 emodules/mod_orange/built-in.o
ListLayer_MoveUpMsg                               emodules/mod_orange/built-in.o
ListLayer_OnDraw                                  emodules/mod_orange/built-in.o
ListLayer_OnMesssage                              emodules/mod_orange/built-in.o
ListLayer_SetLayerFastFoucs                       emodules/mod_orange/built-in.o
ListLayer_SetLayerFoucs                           emodules/mod_orange/built-in.o
ListLayer_SetLayerUnFoucs                         emodules/mod_orange/built-in.o
ListLayer_SetWinFoucs                             emodules/mod_orange/built-in.o
ListLayer_SetWinUnFoucs                           emodules/mod_orange/built-in.o
ListLayer_Sleep                                   emodules/mod_orange/built-in.o
ListLayer_SwitchFB                                emodules/mod_orange/built-in.o
ListLayer_SwitchLyr                               emodules/mod_orange/built-in.o
ListLayer_TailToHeadCopy                          emodules/mod_orange/built-in.o
ListLayer_UnFoucsMenuItem                         emodules/mod_orange/built-in.o
ListLayer_VarBoxOnDraw                            emodules/mod_orange/built-in.o
ListLayer_VarKeyDownMsg                           emodules/mod_orange/built-in.o
ListLayer_VarKeyUpMsg                             emodules/mod_orange/built-in.o
ListLayer_VarNextPage                             emodules/mod_orange/built-in.o
ListLayer_VarOnDraw                               emodules/mod_orange/built-in.o
ListLayer_VarPrevPage                             emodules/mod_orange/built-in.o
ListLayer_Wakeup                                  emodules/mod_orange/built-in.o
LoadBmpFromFile                                   emodules/mod_orange/built-in.o
LzmaDec_Allocate                                  ./elibrary/bin/liblzma.a(LzmaDec.o)
LzmaDec_AllocateProbs                             ./elibrary/bin/liblzma.a(LzmaDec.o)
LzmaDec_DecodeToBuf                               ./elibrary/bin/liblzma.a(LzmaDec.o)
LzmaDec_DecodeToDic                               ./elibrary/bin/liblzma.a(LzmaDec.o)
LzmaDec_Free                                      ./elibrary/bin/liblzma.a(LzmaDec.o)
LzmaDec_FreeProbs                                 ./elibrary/bin/liblzma.a(LzmaDec.o)
LzmaDec_Init                                      ./elibrary/bin/liblzma.a(LzmaDec.o)
LzmaDec_InitDicAndState                           ./elibrary/bin/liblzma.a(LzmaDec.o)
LzmaDecode                                        ./elibrary/bin/liblzma.a(LzmaDec.o)
                                                  ./elibrary/bin/liblzma.a(LzmaLib.o)
LzmaProps_Decode                                  ./elibrary/bin/liblzma.a(LzmaDec.o)
LzmaUncompress                                    ./elibrary/bin/liblzma.a(LzmaLib.o)
                                                  ./elibrary/bin/liblzma.a(compress.o)
MemBlockAlloc                                     emodules/mod_orange/built-in.o
MemBlockFree                                      emodules/mod_orange/built-in.o
MenuItem_Create                                   emodules/mod_orange/built-in.o
MenuItem_Destroy                                  emodules/mod_orange/built-in.o
MenuItem_GetPrev                                  emodules/mod_orange/built-in.o
MenuList_AddHead                                  emodules/mod_orange/built-in.o
MenuList_AddTail                                  emodules/mod_orange/built-in.o
MenuList_Create                                   emodules/mod_orange/built-in.o
MenuList_DelAll                                   emodules/mod_orange/built-in.o
MenuList_DelItem                                  emodules/mod_orange/built-in.o
MenuList_Destroy                                  emodules/mod_orange/built-in.o
MenuList_GetCurItem                               emodules/mod_orange/built-in.o
MenuList_GetHead                                  emodules/mod_orange/built-in.o
MenuList_GetItemCount                             emodules/mod_orange/built-in.o
MenuList_GetTail                                  emodules/mod_orange/built-in.o
MenuList_InsertAfter                              emodules/mod_orange/built-in.o
MenuList_SetCurItem                               emodules/mod_orange/built-in.o
Menuitem_GetNext                                  emodules/mod_orange/built-in.o
NormalizeRect                                     emodules/mod_orange/built-in.o
ORANGE_MClose                                     emodules/mod_orange/mod_orange.o
                                                  emodules/mod_orange/magic.o
ORANGE_MExit                                      emodules/mod_orange/mod_orange.o
                                                  emodules/mod_orange/magic.o
ORANGE_MInit                                      emodules/mod_orange/mod_orange.o
                                                  emodules/mod_orange/magic.o
ORANGE_MIoctrl                                    emodules/mod_orange/mod_orange.o
                                                  emodules/mod_orange/magic.o
ORANGE_MOpen                                      emodules/mod_orange/mod_orange.o
                                                  emodules/mod_orange/magic.o
ORANGE_MRead                                      emodules/mod_orange/mod_orange.o
                                                  emodules/mod_orange/magic.o
ORANGE_MWrite                                     emodules/mod_orange/mod_orange.o
                                                  emodules/mod_orange/magic.o
OffsetRect                                        emodules/mod_orange/built-in.o
OpenRes                                           emodules/mod_orange/built-in.o
                                                  emodules/mod_orange/orange_mod_api.o
PtInRect                                          emodules/mod_orange/built-in.o
ReadRes                                           emodules/mod_orange/built-in.o
                                                  emodules/mod_orange/orange_mod_api.o
RegisterButtonControl                             emodules/mod_orange/built-in.o
                                                  emodules/mod_orange/orange_mod_api.o
RegisterListBoxControl                            emodules/mod_orange/built-in.o
                                                  emodules/mod_orange/orange_mod_api.o
RegisterListMenuControl                           emodules/mod_orange/built-in.o
                                                  emodules/mod_orange/orange_mod_api.o
RegisterSliderControl                             emodules/mod_orange/built-in.o
                                                  emodules/mod_orange/orange_mod_api.o
RegisterStaticControl                             emodules/mod_orange/built-in.o
                                                  emodules/mod_orange/orange_mod_api.o
RegisterTxtboxControl                             emodules/mod_orange/built-in.o
                                                  emodules/mod_orange/orange_mod_api.o
SFTE_Done_Face                                    emodules/mod_orange/built-in.o
SFTE_Get_Glyph                                    emodules/mod_orange/built-in.o
SFTE_Get_Index_Table                              emodules/mod_orange/built-in.o
SFTE_Get_XAdvance                                 emodules/mod_orange/built-in.o
SFTE_New_Face                                     emodules/mod_orange/built-in.o
SFTE_Set_Pixel_Sizes                              emodules/mod_orange/built-in.o
SHADOW_SIZE                                       emodules/mod_orange/built-in.o
SItem_Create                                      emodules/mod_orange/built-in.o
SItem_Destory                                     emodules/mod_orange/built-in.o
SLIDER_GetLineSize                                emodules/mod_orange/built-in.o
                                                  emodules/mod_orange/orange_mod_api.o
SLIDER_GetMax                                     emodules/mod_orange/built-in.o
                                                  emodules/mod_orange/orange_mod_api.o
SLIDER_GetMin                                     emodules/mod_orange/built-in.o
                                                  emodules/mod_orange/orange_mod_api.o
SLIDER_GetValue                                   emodules/mod_orange/built-in.o
                                                  emodules/mod_orange/orange_mod_api.o
SLIDER_SetLineSize                                emodules/mod_orange/built-in.o
                                                  emodules/mod_orange/orange_mod_api.o
SLIDER_SetRange                                   emodules/mod_orange/built-in.o
                                                  emodules/mod_orange/orange_mod_api.o
SLIDER_SetValue                                   emodules/mod_orange/built-in.o
                                                  emodules/mod_orange/orange_mod_api.o
SListbox_AddTail                                  emodules/mod_orange/built-in.o
                                                  emodules/mod_orange/orange_mod_api.o
SListbox_CtrlMemdevStart                          emodules/mod_orange/built-in.o
SListbox_CtrlMemdevStop                           emodules/mod_orange/built-in.o
SListbox_DelCurItem                               emodules/mod_orange/built-in.o
                                                  emodules/mod_orange/orange_mod_api.o
SListbox_Destroy                                  emodules/mod_orange/built-in.o
SListbox_Disable                                  emodules/mod_orange/built-in.o
                                                  emodules/mod_orange/orange_mod_api.o
SListbox_DisableMenuItem                          emodules/mod_orange/built-in.o
SListbox_DrawFreeMenuItem                         emodules/mod_orange/built-in.o
SListbox_DrawMenuItem                             emodules/mod_orange/built-in.o
SListbox_FocusMenuItem                            emodules/mod_orange/built-in.o
SListbox_GetCurItem                               emodules/mod_orange/built-in.o
                                                  emodules/mod_orange/orange_mod_api.o
SListbox_GetHeadindex                             emodules/mod_orange/built-in.o
                                                  emodules/mod_orange/orange_mod_api.o
SListbox_GetHostWin                               emodules/mod_orange/built-in.o
                                                  emodules/mod_orange/orange_mod_api.o
SListbox_GetItem                                  emodules/mod_orange/built-in.o
                                                  emodules/mod_orange/orange_mod_api.o
SListbox_GetItemAttr                              emodules/mod_orange/built-in.o
                                                  emodules/mod_orange/orange_mod_api.o
SListbox_GetItemCount                             emodules/mod_orange/built-in.o
                                                  emodules/mod_orange/orange_mod_api.o
SListbox_GetItemLyrWin                            emodules/mod_orange/built-in.o
                                                  emodules/mod_orange/orange_mod_api.o
SListbox_GetItemNo                                emodules/mod_orange/built-in.o
                                                  emodules/mod_orange/orange_mod_api.o
SListbox_GetItemRect                              emodules/mod_orange/built-in.o
                                                  emodules/mod_orange/orange_mod_api.o
SListbox_ItemDisable                              emodules/mod_orange/built-in.o
                                                  emodules/mod_orange/orange_mod_api.o
SListbox_ItemEnable                               emodules/mod_orange/built-in.o
                                                  emodules/mod_orange/orange_mod_api.o
SListbox_KeyDefault                               emodules/mod_orange/built-in.o
SListbox_KeyDown                                  emodules/mod_orange/built-in.o
SListbox_KeyRise                                  emodules/mod_orange/built-in.o
SListbox_KeyUp                                    emodules/mod_orange/built-in.o
SListbox_NextPage                                 emodules/mod_orange/built-in.o
                                                  emodules/mod_orange/orange_mod_api.o
SListbox_Ondraw                                   emodules/mod_orange/built-in.o
SListbox_PrevPage                                 emodules/mod_orange/built-in.o
                                                  emodules/mod_orange/orange_mod_api.o
SListbox_PrivCreate                               emodules/mod_orange/built-in.o
SListbox_SetCurItem                               emodules/mod_orange/built-in.o
                                                  emodules/mod_orange/orange_mod_api.o
SListbox_SetFoucs                                 emodules/mod_orange/built-in.o
SListbox_SetUnFoucs                               emodules/mod_orange/built-in.o
SListbox_UpdateControl                            emodules/mod_orange/built-in.o
SListbox_UpdateDown                               emodules/mod_orange/built-in.o
SListbox_UpdateDownEx                             emodules/mod_orange/built-in.o
SListbox_UpdateMenulist                           emodules/mod_orange/built-in.o
                                                  emodules/mod_orange/orange_mod_api.o
SListbox_UpdateUp                                 emodules/mod_orange/built-in.o
SListbox_UpdateUpEx                               emodules/mod_orange/built-in.o
SListbox_Wakeup                                   emodules/mod_orange/built-in.o
SMenuItem_Create                                  emodules/mod_orange/built-in.o
SMenuItem_Destroy                                 emodules/mod_orange/built-in.o
SMenuItem_GetNext                                 emodules/mod_orange/built-in.o
SMenuItem_GetPrev                                 emodules/mod_orange/built-in.o
SMenuList_AddHead                                 emodules/mod_orange/built-in.o
SMenuList_AddTail                                 emodules/mod_orange/built-in.o
SMenuList_Create                                  emodules/mod_orange/built-in.o
SMenuList_DelAll                                  emodules/mod_orange/built-in.o
SMenuList_DelItem                                 emodules/mod_orange/built-in.o
SMenuList_Destroy                                 emodules/mod_orange/built-in.o
SMenuList_FindNextEnable                          emodules/mod_orange/built-in.o
SMenuList_FindPrevEnable                          emodules/mod_orange/built-in.o
SMenuList_GetCurPageNum                           emodules/mod_orange/built-in.o
SMenuList_GetHead                                 emodules/mod_orange/built-in.o
SMenuList_GetItemCount                            emodules/mod_orange/built-in.o
SMenuList_GetMenuitem                             emodules/mod_orange/built-in.o
SMenuList_GetTail                                 emodules/mod_orange/built-in.o
SMenuList_InsertAfter                             emodules/mod_orange/built-in.o
SMenuList_SetHeadItemFromItem                     emodules/mod_orange/built-in.o
Screen_Context                                    emodules/mod_orange/built-in.o
SetRect                                           emodules/mod_orange/built-in.o
SetRectEmpty                                      emodules/mod_orange/built-in.o
SubtractRect                                      emodules/mod_orange/built-in.o
SysRectToGuiRect                                  emodules/mod_orange/built-in.o
                                                  emodules/mod_orange/orange_mod_api.o
TerminateTimer                                    emodules/mod_orange/built-in.o
TxtBuffer_Create                                  emodules/mod_orange/built-in.o
TxtBuffer_Destroy                                 emodules/mod_orange/built-in.o
TxtLayer_BackUpItem                               emodules/mod_orange/built-in.o
TxtLayer_ClearTxtItem                             emodules/mod_orange/built-in.o
TxtLayer_Create                                   emodules/mod_orange/built-in.o
TxtLayer_Destroy                                  emodules/mod_orange/built-in.o
TxtLayer_DrawItem                                 emodules/mod_orange/built-in.o
TxtLayer_DrawMultiItem                            emodules/mod_orange/built-in.o
TxtLayer_FixedOnDraw                              emodules/mod_orange/built-in.o
TxtLayer_FoucsDrawItem                            emodules/mod_orange/built-in.o
TxtLayer_GetBPP                                   emodules/mod_orange/built-in.o
TxtLayer_GetLayerInfo                             emodules/mod_orange/built-in.o
TxtLayer_OnDraw                                   emodules/mod_orange/built-in.o
TxtLayer_StampProcess                             emodules/mod_orange/built-in.o
TxtLayer_StampToPos                               emodules/mod_orange/built-in.o
TxtLayer_SwitchFB                                 emodules/mod_orange/built-in.o
TxtLayer_SwitchLyr                                emodules/mod_orange/built-in.o
TxtList_AddTail                                   emodules/mod_orange/built-in.o
TxtList_Create                                    emodules/mod_orange/built-in.o
TxtList_DelAll                                    emodules/mod_orange/built-in.o
TxtList_Destroy                                   emodules/mod_orange/built-in.o
TxtList_GetItemCount                              emodules/mod_orange/built-in.o
TxtList_SetCurItem                                emodules/mod_orange/built-in.o
UnRegisterListBoxControl                          emodules/mod_orange/built-in.o
                                                  emodules/mod_orange/orange_mod_api.o
UnionRect                                         emodules/mod_orange/built-in.o
UnloadBmp                                         emodules/mod_orange/built-in.o
WM_pfHandlePID                                    emodules/mod_orange/built-in.o
Win_AttachToParent                                emodules/mod_orange/built-in.o
Win_AttachToZorder                                emodules/mod_orange/built-in.o
Win_DeattachFromParent                            emodules/mod_orange/built-in.o
Win_DeattachFromZorder                            emodules/mod_orange/built-in.o
__errno                                           /home/yuzuki/WorkSpace/melis-v3.0/melis-4.x-release/toolchain/riscv64-elf-x86_64-20201104/bin/../lib/gcc/riscv64-unknown-elf/8.4.0/../../../../riscv64-unknown-elf/lib/rv64imafdcxtheadc/lp64d/libc.a(lib_a-errno.o)
                                                  /home/yuzuki/WorkSpace/melis-v3.0/melis-4.x-release/toolchain/riscv64-elf-x86_64-20201104/bin/../lib/gcc/riscv64-unknown-elf/8.4.0/../../../../riscv64-unknown-elf/lib/rv64imafdcxtheadc/lp64d/libm.a(lib_a-w_sqrt.o)
__fdlib_version                                   /home/yuzuki/WorkSpace/melis-v3.0/melis-4.x-release/toolchain/riscv64-elf-x86_64-20201104/bin/../lib/gcc/riscv64-unknown-elf/8.4.0/../../../../riscv64-unknown-elf/lib/rv64imafdcxtheadc/lp64d/libm.a(lib_a-s_lib_ver.o)
                                                  /home/yuzuki/WorkSpace/melis-v3.0/melis-4.x-release/toolchain/riscv64-elf-x86_64-20201104/bin/../lib/gcc/riscv64-unknown-elf/8.4.0/../../../../riscv64-unknown-elf/lib/rv64imafdcxtheadc/lp64d/libm.a(lib_a-w_sqrt.o)
__ieee754_rem_pio2                                /home/yuzuki/WorkSpace/melis-v3.0/melis-4.x-release/toolchain/riscv64-elf-x86_64-20201104/bin/../lib/gcc/riscv64-unknown-elf/8.4.0/../../../../riscv64-unknown-elf/lib/rv64imafdcxtheadc/lp64d/libm.a(lib_a-e_rem_pio2.o)
                                                  /home/yuzuki/WorkSpace/melis-v3.0/melis-4.x-release/toolchain/riscv64-elf-x86_64-20201104/bin/../lib/gcc/riscv64-unknown-elf/8.4.0/../../../../riscv64-unknown-elf/lib/rv64imafdcxtheadc/lp64d/libm.a(lib_a-s_sin.o)
                                                  /home/yuzuki/WorkSpace/melis-v3.0/melis-4.x-release/toolchain/riscv64-elf-x86_64-20201104/bin/../lib/gcc/riscv64-unknown-elf/8.4.0/../../../../riscv64-unknown-elf/lib/rv64imafdcxtheadc/lp64d/libm.a(lib_a-s_cos.o)
__ieee754_sqrt                                    /home/yuzuki/WorkSpace/melis-v3.0/melis-4.x-release/toolchain/riscv64-elf-x86_64-20201104/bin/../lib/gcc/riscv64-unknown-elf/8.4.0/../../../../riscv64-unknown-elf/lib/rv64imafdcxtheadc/lp64d/libm.a(lib_a-e_sqrt.o)
                                                  /home/yuzuki/WorkSpace/melis-v3.0/melis-4.x-release/toolchain/riscv64-elf-x86_64-20201104/bin/../lib/gcc/riscv64-unknown-elf/8.4.0/../../../../riscv64-unknown-elf/lib/rv64imafdcxtheadc/lp64d/libm.a(lib_a-w_sqrt.o)
__kernel_cos                                      /home/yuzuki/WorkSpace/melis-v3.0/melis-4.x-release/toolchain/riscv64-elf-x86_64-20201104/bin/../lib/gcc/riscv64-unknown-elf/8.4.0/../../../../riscv64-unknown-elf/lib/rv64imafdcxtheadc/lp64d/libm.a(lib_a-k_cos.o)
                                                  /home/yuzuki/WorkSpace/melis-v3.0/melis-4.x-release/toolchain/riscv64-elf-x86_64-20201104/bin/../lib/gcc/riscv64-unknown-elf/8.4.0/../../../../riscv64-unknown-elf/lib/rv64imafdcxtheadc/lp64d/libm.a(lib_a-s_sin.o)
                                                  /home/yuzuki/WorkSpace/melis-v3.0/melis-4.x-release/toolchain/riscv64-elf-x86_64-20201104/bin/../lib/gcc/riscv64-unknown-elf/8.4.0/../../../../riscv64-unknown-elf/lib/rv64imafdcxtheadc/lp64d/libm.a(lib_a-s_cos.o)
__kernel_rem_pio2                                 /home/yuzuki/WorkSpace/melis-v3.0/melis-4.x-release/toolchain/riscv64-elf-x86_64-20201104/bin/../lib/gcc/riscv64-unknown-elf/8.4.0/../../../../riscv64-unknown-elf/lib/rv64imafdcxtheadc/lp64d/libm.a(lib_a-k_rem_pio2.o)
                                                  /home/yuzuki/WorkSpace/melis-v3.0/melis-4.x-release/toolchain/riscv64-elf-x86_64-20201104/bin/../lib/gcc/riscv64-unknown-elf/8.4.0/../../../../riscv64-unknown-elf/lib/rv64imafdcxtheadc/lp64d/libm.a(lib_a-e_rem_pio2.o)
__kernel_sin                                      /home/yuzuki/WorkSpace/melis-v3.0/melis-4.x-release/toolchain/riscv64-elf-x86_64-20201104/bin/../lib/gcc/riscv64-unknown-elf/8.4.0/../../../../riscv64-unknown-elf/lib/rv64imafdcxtheadc/lp64d/libm.a(lib_a-k_sin.o)
                                                  /home/yuzuki/WorkSpace/melis-v3.0/melis-4.x-release/toolchain/riscv64-elf-x86_64-20201104/bin/../lib/gcc/riscv64-unknown-elf/8.4.0/../../../../riscv64-unknown-elf/lib/rv64imafdcxtheadc/lp64d/libm.a(lib_a-s_sin.o)
                                                  /home/yuzuki/WorkSpace/melis-v3.0/melis-4.x-release/toolchain/riscv64-elf-x86_64-20201104/bin/../lib/gcc/riscv64-unknown-elf/8.4.0/../../../../riscv64-unknown-elf/lib/rv64imafdcxtheadc/lp64d/libm.a(lib_a-s_cos.o)
__libc_init_array                                 ./elibrary/bin/libsyscall.a(syscall_fops.o)
__malloc_lock                                     ./elibrary/bin/libsyscall.a(syscall_fops.o)
__malloc_unlock                                   ./elibrary/bin/libsyscall.a(syscall_fops.o)
_calloc_r                                         ./elibrary/bin/libsyscall.a(syscall_fops.o)
_close_r                                          ./elibrary/bin/libsyscall.a(syscall_fops.o)
_exit                                             ./elibrary/bin/libminic.a(elibs_stdlib.o)
_free_r                                           ./elibrary/bin/libsyscall.a(syscall_fops.o)
_fstat_r                                          ./elibrary/bin/libsyscall.a(syscall_fops.o)
_getpid                                           ./elibrary/bin/libminic.a(elibs_stdlib.o)
_gettimeofday_r                                   ./elibrary/bin/libsyscall.a(syscall_fops.o)
_global_impure_ptr                                /home/yuzuki/WorkSpace/melis-v3.0/melis-4.x-release/toolchain/riscv64-elf-x86_64-20201104/bin/../lib/gcc/riscv64-unknown-elf/8.4.0/../../../../riscv64-unknown-elf/lib/rv64imafdcxtheadc/lp64d/libc.a(lib_a-impure.o)
_hActiveTimer                                     emodules/mod_orange/built-in.o
_impure_ptr                                       /home/yuzuki/WorkSpace/melis-v3.0/melis-4.x-release/toolchain/riscv64-elf-x86_64-20201104/bin/../lib/gcc/riscv64-unknown-elf/8.4.0/../../../../riscv64-unknown-elf/lib/rv64imafdcxtheadc/lp64d/libc.a(lib_a-impure.o)
                                                  /home/yuzuki/WorkSpace/melis-v3.0/melis-4.x-release/toolchain/riscv64-elf-x86_64-20201104/bin/../lib/gcc/riscv64-unknown-elf/8.4.0/../../../../riscv64-unknown-elf/lib/rv64imafdcxtheadc/lp64d/libc.a(lib_a-errno.o)
_isatty                                           ./elibrary/bin/libsyscall.a(syscall_fops.o)
_isatty_r                                         ./elibrary/bin/libsyscall.a(syscall_fops.o)
_kill                                             ./elibrary/bin/libminic.a(elibs_stdlib.o)
_lseek_r                                          ./elibrary/bin/libsyscall.a(syscall_fops.o)
_lstm_key_song                                    emodules/mod_orange/built-in.o
_malloc_r                                         ./elibrary/bin/libsyscall.a(syscall_fops.o)
_mkdir_r                                          ./elibrary/bin/libsyscall.a(syscall_fops.o)
_open_r                                           ./elibrary/bin/libsyscall.a(syscall_fops.o)
_read_r                                           ./elibrary/bin/libsyscall.a(syscall_fops.o)
_realloc_r                                        ./elibrary/bin/libsyscall.a(syscall_fops.o)
_rename_r                                         ./elibrary/bin/libsyscall.a(syscall_fops.o)
_sbrk                                             ./elibrary/bin/libminic.a(elibs_stdlib.o)
_stat_r                                           ./elibrary/bin/libsyscall.a(syscall_fops.o)
_system                                           ./elibrary/bin/libsyscall.a(syscall_fops.o)
_unlink_r                                         ./elibrary/bin/libsyscall.a(syscall_fops.o)
_write                                            ./elibrary/bin/libminic.a(elibs_stdlib.o)
_write_r                                          ./elibrary/bin/libsyscall.a(syscall_fops.o)
aTan                                              emodules/mod_orange/built-in.o
active_mainwnd                                    emodules/mod_orange/built-in.o
backtrace                                         ./elibrary/bin/libsyscall.a(syscall.o)
bmp_close                                         emodules/mod_orange/built-in.o
                                                  emodules/mod_orange/orange_mod_api.o
bmp_get_bitcount                                  emodules/mod_orange/built-in.o
                                                  emodules/mod_orange/orange_mod_api.o
bmp_get_height                                    emodules/mod_orange/built-in.o
                                                  emodules/mod_orange/orange_mod_api.o
bmp_get_matrix                                    emodules/mod_orange/built-in.o
                                                  emodules/mod_orange/orange_mod_api.o
bmp_get_size                                      emodules/mod_orange/built-in.o
                                                  emodules/mod_orange/orange_mod_api.o
bmp_get_width                                     emodules/mod_orange/built-in.o
                                                  emodules/mod_orange/orange_mod_api.o
bmp_open                                          emodules/mod_orange/built-in.o
                                                  emodules/mod_orange/orange_mod_api.o
capture_wnd                                       emodules/mod_orange/built-in.o
ccitable                                          emodules/mod_orange/built-in.o
ceil                                              /home/yuzuki/WorkSpace/melis-v3.0/melis-4.x-release/toolchain/riscv64-elf-x86_64-20201104/bin/../lib/gcc/riscv64-unknown-elf/8.4.0/../../../../riscv64-unknown-elf/lib/rv64imafdcxtheadc/lp64d/libm.a(lib_a-s_ceil.o)
                                                  emodules/mod_orange/built-in.o
closedir                                          ./elibrary/bin/libsyscall.a(syscall_fops.o)
copysign                                          /home/yuzuki/WorkSpace/melis-v3.0/melis-4.x-release/toolchain/riscv64-elf-x86_64-20201104/bin/../lib/gcc/riscv64-unknown-elf/8.4.0/../../../../riscv64-unknown-elf/lib/rv64imafdcxtheadc/lp64d/libm.a(lib_a-s_copysign.o)
                                                  /home/yuzuki/WorkSpace/melis-v3.0/melis-4.x-release/toolchain/riscv64-elf-x86_64-20201104/bin/../lib/gcc/riscv64-unknown-elf/8.4.0/../../../../riscv64-unknown-elf/lib/rv64imafdcxtheadc/lp64d/libm.a(lib_a-s_scalbn.o)
cos                                               /home/yuzuki/WorkSpace/melis-v3.0/melis-4.x-release/toolchain/riscv64-elf-x86_64-20201104/bin/../lib/gcc/riscv64-unknown-elf/8.4.0/../../../../riscv64-unknown-elf/lib/rv64imafdcxtheadc/lp64d/libm.a(lib_a-s_cos.o)
                                                  emodules/mod_orange/built-in.o
default_msg                                       emodules/mod_orange/built-in.o
eLIBs_DirEnt2Attr                                 ./elibrary/bin/libminic.a(elibs_stdio.o)
eLIBs_DirEnt2Name                                 ./elibrary/bin/libminic.a(elibs_stdio.o)
eLIBs_DirEnt2Size                                 ./elibrary/bin/libminic.a(elibs_stdio.o)
eLIBs_DirEnt2Time                                 ./elibrary/bin/libminic.a(elibs_stdio.o)
eLIBs_GetDate                                     ./elibrary/bin/libminic.a(elibs_stdio.o)
eLIBs_GetDevName                                  ./elibrary/bin/libminic.a(elibs_stdio.o)
eLIBs_GetDevParts                                 ./elibrary/bin/libminic.a(elibs_stdio.o)
eLIBs_GetDirATime                                 ./elibrary/bin/libminic.a(elibs_stdio.o)
eLIBs_GetDirCTime                                 ./elibrary/bin/libminic.a(elibs_stdio.o)
eLIBs_GetDirMTime                                 ./elibrary/bin/libminic.a(elibs_stdio.o)
eLIBs_GetDirSize                                  ./elibrary/bin/libminic.a(elibs_stdio.o)
eLIBs_GetDiskArray                                ./elibrary/bin/libminic.a(elibs_stdio.o)
eLIBs_GetFSAttribute                              ./elibrary/bin/libminic.a(elibs_stdio.o)
eLIBs_GetFSCharset                                ./elibrary/bin/libminic.a(elibs_stdio.o)
eLIBs_GetFSName                                   ./elibrary/bin/libminic.a(elibs_stdio.o)
eLIBs_GetFileATime                                ./elibrary/bin/libminic.a(elibs_stdio.o)
eLIBs_GetFileAttributes                           ./elibrary/bin/libminic.a(elibs_stdio.o)
eLIBs_GetFileCTime                                ./elibrary/bin/libminic.a(elibs_stdio.o)
eLIBs_GetFileMTime                                ./elibrary/bin/libminic.a(elibs_stdio.o)
eLIBs_GetFileSize                                 ./elibrary/bin/libminic.a(elibs_stdio.o)
eLIBs_GetNumFiles                                 ./elibrary/bin/libminic.a(elibs_stdio.o)
eLIBs_GetNumSubItems                              ./elibrary/bin/libminic.a(elibs_stdio.o)
eLIBs_GetPTName                                   ./elibrary/bin/libminic.a(elibs_stdio.o)
eLIBs_GetTime                                     ./elibrary/bin/libminic.a(elibs_stdio.o)
eLIBs_GetVolClustSize                             ./elibrary/bin/libminic.a(elibs_stdio.o)
eLIBs_GetVolFSpace                                ./elibrary/bin/libminic.a(elibs_stdio.o)
eLIBs_GetVolName                                  ./elibrary/bin/libminic.a(elibs_stdio.o)
eLIBs_GetVolNameCharset                           ./elibrary/bin/libminic.a(elibs_stdio.o)
eLIBs_GetVolTSpace                                ./elibrary/bin/libminic.a(elibs_stdio.o)
eLIBs_IsPartFormated                              ./elibrary/bin/libminic.a(elibs_stdio.o)
eLIBs_SetFileAttributes                           ./elibrary/bin/libminic.a(elibs_stdio.o)
eLIBs_atof                                        ./elibrary/bin/libminic.a(elibs_stdlib.o)
eLIBs_atoi                                        ./elibrary/bin/libminic.a(elibs_stdlib.o)
eLIBs_closedir                                    ./elibrary/bin/libminic.a(elibs_stdio.o)
                                                  emodules/mod_orange/built-in.o
eLIBs_disklock                                    ./elibrary/bin/libminic.a(elibs_stdio.o)
eLIBs_diskunlock                                  ./elibrary/bin/libminic.a(elibs_stdio.o)
eLIBs_fclose                                      ./elibrary/bin/libminic.a(elibs_stdio.o)
                                                  emodules/mod_orange/built-in.o
eLIBs_fd2file                                     ./elibrary/bin/libminic.a(elibs_stdio.o)
eLIBs_feof                                        ./elibrary/bin/libminic.a(elibs_stdio.o)
eLIBs_ferrclr                                     ./elibrary/bin/libminic.a(elibs_stdio.o)
eLIBs_ferror                                      ./elibrary/bin/libminic.a(elibs_stdio.o)
                                                  emodules/mod_orange/built-in.o
eLIBs_fgetc                                       ./elibrary/bin/libminic.a(elibs_stdio.o)
eLIBs_fgets                                       ./elibrary/bin/libminic.a(elibs_stdio.o)
eLIBs_file2fd                                     ./elibrary/bin/libminic.a(elibs_stdio.o)
eLIBs_fioctrl                                     ./elibrary/bin/libminic.a(elibs_stdio.o)
eLIBs_fllseek                                     ./elibrary/bin/libminic.a(elibs_stdio.o)
                                                  emodules/mod_orange/built-in.o
eLIBs_flltell                                     ./elibrary/bin/libminic.a(elibs_stdio.o)
                                                  emodules/mod_orange/built-in.o
eLIBs_fopen                                       ./elibrary/bin/libminic.a(elibs_stdio.o)
                                                  emodules/mod_orange/built-in.o
eLIBs_format                                      ./elibrary/bin/libminic.a(elibs_stdio.o)
eLIBs_fputc                                       ./elibrary/bin/libminic.a(elibs_stdio.o)
eLIBs_fputs                                       ./elibrary/bin/libminic.a(elibs_stdio.o)
eLIBs_fread                                       ./elibrary/bin/libminic.a(elibs_stdio.o)
                                                  emodules/mod_orange/built-in.o
eLIBs_free                                        ./elibrary/bin/libminic.a(elibs_stdlib.o)
                                                  ./elibrary/bin/liblzma.a(LzmaLib.o)
eLIBs_fseek                                       ./elibrary/bin/libminic.a(elibs_stdio.o)
                                                  emodules/mod_orange/built-in.o
eLIBs_fstat                                       ./elibrary/bin/libminic.a(elibs_stdio.o)
eLIBs_fsync                                       ./elibrary/bin/libminic.a(elibs_stdio.o)
eLIBs_ftell                                       ./elibrary/bin/libminic.a(elibs_stdio.o)
                                                  emodules/mod_orange/built-in.o
eLIBs_ftruncate                                   ./elibrary/bin/libminic.a(elibs_stdio.o)
eLIBs_fwrite                                      ./elibrary/bin/libminic.a(elibs_stdio.o)
                                                  emodules/mod_orange/built-in.o
eLIBs_int2str_dec                                 ./elibrary/bin/libminic.a(elibs_stdlib.o)
eLIBs_int2str_hex                                 ./elibrary/bin/libminic.a(elibs_stdlib.o)
eLIBs_isspace                                     ./elibrary/bin/libminic.a(elibs_stdlib.o)
eLIBs_malloc                                      ./elibrary/bin/libminic.a(elibs_stdlib.o)
                                                  ./elibrary/bin/liblzma.a(LzmaLib.o)
eLIBs_memclr                                      ./elibrary/bin/libminic.a(elibs_string.o)
                                                  emodules/mod_orange/built-in.o
eLIBs_memcmp                                      ./elibrary/bin/libminic.a(elibs_string.o)
                                                  emodules/mod_orange/built-in.o
eLIBs_memcpy                                      ./elibrary/bin/libminic.a(elibs_string.o)
                                                  ./elibrary/bin/libminic.a(elibs_stdio.o)
                                                  emodules/mod_orange/built-in.o
eLIBs_memmove                                     ./elibrary/bin/libminic.a(elibs_string.o)
eLIBs_memset                                      ./elibrary/bin/libminic.a(elibs_string.o)
                                                  emodules/mod_orange/built-in.o
eLIBs_mkdir                                       ./elibrary/bin/libminic.a(elibs_stdio.o)
                                                  emodules/mod_orange/built-in.o
eLIBs_open                                        ./elibrary/bin/libminic.a(elibs_stdio.o)
eLIBs_opendir                                     ./elibrary/bin/libminic.a(elibs_stdio.o)
                                                  emodules/mod_orange/built-in.o
eLIBs_printf                                      ./elibrary/bin/libminic.a(elibs_stdio.o)
eLIBs_ramdom                                      ./elibrary/bin/libminic.a(elibs_stdlib.o)
                                                  emodules/mod_orange/built-in.o
eLIBs_readdir                                     ./elibrary/bin/libminic.a(elibs_stdio.o)
                                                  emodules/mod_orange/built-in.o
eLIBs_realloc                                     ./elibrary/bin/libminic.a(elibs_stdlib.o)
eLIBs_remove                                      ./elibrary/bin/libminic.a(elibs_stdio.o)
                                                  emodules/mod_orange/built-in.o
eLIBs_rename                                      ./elibrary/bin/libminic.a(elibs_stdio.o)
eLIBs_rewinddir                                   ./elibrary/bin/libminic.a(elibs_stdio.o)
eLIBs_rmdir                                       ./elibrary/bin/libminic.a(elibs_stdio.o)
eLIBs_scnprintf                                   ./elibrary/bin/libminic.a(elibs_sprintf.o)
eLIBs_setfs                                       ./elibrary/bin/libminic.a(elibs_stdio.o)
eLIBs_snprintf                                    ./elibrary/bin/libminic.a(elibs_sprintf.o)
eLIBs_sprintf                                     ./elibrary/bin/libminic.a(elibs_sprintf.o)
eLIBs_sscanf                                      ./elibrary/bin/libminic.a(elibs_stdlib.o)
eLIBs_statfs                                      ./elibrary/bin/libminic.a(elibs_stdio.o)
eLIBs_strcat                                      ./elibrary/bin/libminic.a(elibs_string.o)
                                                  ./elibrary/bin/libminic.a(elibs_stdio.o)
eLIBs_strchr                                      ./elibrary/bin/libminic.a(elibs_string.o)
eLIBs_strchrlast                                  ./elibrary/bin/libminic.a(elibs_string.o)
eLIBs_strcmp                                      ./elibrary/bin/libminic.a(elibs_string.o)
                                                  ./elibrary/bin/libminic.a(elibs_stdio.o)
                                                  emodules/mod_orange/built-in.o
eLIBs_strcpy                                      ./elibrary/bin/libminic.a(elibs_string.o)
                                                  ./elibrary/bin/libminic.a(elibs_stdio.o)
                                                  emodules/mod_orange/built-in.o
eLIBs_stricmp                                     ./elibrary/bin/libminic.a(elibs_string.o)
                                                  ./elibrary/bin/libminic.a(elibs_stdio.o)
eLIBs_strlen                                      ./elibrary/bin/libminic.a(elibs_string.o)
                                                  ./elibrary/bin/libminic.a(elibs_stdio.o)
                                                  emodules/mod_orange/built-in.o
eLIBs_strncat                                     ./elibrary/bin/libminic.a(elibs_string.o)
eLIBs_strnchr                                     ./elibrary/bin/libminic.a(elibs_string.o)
eLIBs_strncmp                                     ./elibrary/bin/libminic.a(elibs_string.o)
                                                  ./elibrary/bin/liblzma.a(az100.o)
                                                  emodules/mod_orange/built-in.o
eLIBs_strncpy                                     ./elibrary/bin/libminic.a(elibs_string.o)
                                                  ./elibrary/bin/libminic.a(elibs_stdio.o)
                                                  emodules/mod_orange/built-in.o
eLIBs_strnicmp                                    ./elibrary/bin/libminic.a(elibs_string.o)
eLIBs_strnlen                                     ./elibrary/bin/libminic.a(elibs_string.o)
eLIBs_strstr                                      ./elibrary/bin/libminic.a(elibs_string.o)
eLIBs_strtol                                      ./elibrary/bin/libminic.a(elibs_stdlib.o)
eLIBs_toupper                                     ./elibrary/bin/libminic.a(elibs_stdlib.o)
eLIBs_uint2str_dec                                ./elibrary/bin/libminic.a(elibs_stdlib.o)
eLIBs_vprintf                                     ./elibrary/bin/libminic.a(elibs_stdio.o)
eLIBs_vscnprintf                                  ./elibrary/bin/libminic.a(elibs_sprintf.o)
                                                  ./elibrary/bin/libminic.a(elibs_stdio.o)
eLIBs_vsnprintf                                   ./elibrary/bin/libminic.a(elibs_sprintf.o)
eLIBs_vsprintf                                    ./elibrary/bin/libminic.a(elibs_sprintf.o)
esCFG_Exit_Ex                                     ./elibrary/bin/libsyscall.a(syscall.o)
esCFG_GetGPIOSecData                              ./elibrary/bin/libsyscall.a(syscall.o)
esCFG_GetGPIOSecData_Ex                           ./elibrary/bin/libsyscall.a(syscall.o)
esCFG_GetGPIOSecKeyCount                          ./elibrary/bin/libsyscall.a(syscall.o)
esCFG_GetGPIOSecKeyCount_Ex                       ./elibrary/bin/libsyscall.a(syscall.o)
esCFG_GetKeyValue                                 ./elibrary/bin/libsyscall.a(syscall.o)
esCFG_GetKeyValue_Ex                              ./elibrary/bin/libsyscall.a(syscall.o)
esCFG_GetSecCount                                 ./elibrary/bin/libsyscall.a(syscall.o)
esCFG_GetSecCount_Ex                              ./elibrary/bin/libsyscall.a(syscall.o)
esCFG_GetSecKeyCount                              ./elibrary/bin/libsyscall.a(syscall.o)
esCFG_GetSecKeyCount_Ex                           ./elibrary/bin/libsyscall.a(syscall.o)
esCFG_Init_Ex                                     ./elibrary/bin/libsyscall.a(syscall.o)
esCHS_Char2Uni                                    ./elibrary/bin/libsyscall.a(syscall.o)
                                                  emodules/mod_orange/built-in.o
esCHS_GetChLowerTbl                               ./elibrary/bin/libsyscall.a(syscall.o)
esCHS_GetChUpperTbl                               ./elibrary/bin/libsyscall.a(syscall.o)
esCHS_Uni2Char                                    ./elibrary/bin/libsyscall.a(syscall.o)
                                                  emodules/mod_orange/built-in.o
esCLK_CloseMclk                                   ./elibrary/bin/libsyscall.a(syscall.o)
esCLK_GetMclkDiv                                  ./elibrary/bin/libsyscall.a(syscall.o)
esCLK_GetMclkSrc                                  ./elibrary/bin/libsyscall.a(syscall.o)
esCLK_GetRound_Rate                               ./elibrary/bin/libsyscall.a(syscall.o)
esCLK_GetSrcFreq                                  ./elibrary/bin/libsyscall.a(syscall.o)
esCLK_MclkAssert                                  ./elibrary/bin/libsyscall.a(syscall.o)
esCLK_MclkDeassert                                ./elibrary/bin/libsyscall.a(syscall.o)
esCLK_MclkGetRstStatus                            ./elibrary/bin/libsyscall.a(syscall.o)
esCLK_MclkOnOff                                   ./elibrary/bin/libsyscall.a(syscall.o)
esCLK_MclkRegCb                                   ./elibrary/bin/libsyscall.a(syscall.o)
esCLK_MclkReset                                   ./elibrary/bin/libsyscall.a(syscall.o)
esCLK_MclkUnregCb                                 ./elibrary/bin/libsyscall.a(syscall.o)
esCLK_ModInfo                                     ./elibrary/bin/libsyscall.a(syscall.o)
esCLK_OpenMclk                                    ./elibrary/bin/libsyscall.a(syscall.o)
esCLK_SetMclkDiv                                  ./elibrary/bin/libsyscall.a(syscall.o)
esCLK_SetMclkSrc                                  ./elibrary/bin/libsyscall.a(syscall.o)
esCLK_SetSrcFreq                                  ./elibrary/bin/libsyscall.a(syscall.o)
esCLK_SysInfo                                     ./elibrary/bin/libsyscall.a(syscall.o)
esDEV_Close                                       ./elibrary/bin/libsyscall.a(syscall.o)
esDEV_DevReg                                      ./elibrary/bin/libsyscall.a(syscall.o)
esDEV_DevUnreg                                    ./elibrary/bin/libsyscall.a(syscall.o)
esDEV_Insmod                                      ./elibrary/bin/libsyscall.a(syscall.o)
esDEV_Ioctl                                       ./elibrary/bin/libsyscall.a(syscall.o)
esDEV_Lock                                        ./elibrary/bin/libsyscall.a(syscall.o)
esDEV_Open                                        ./elibrary/bin/libsyscall.a(syscall.o)
esDEV_Plugin                                      ./elibrary/bin/libsyscall.a(syscall.o)
esDEV_Plugout                                     ./elibrary/bin/libsyscall.a(syscall.o)
esDEV_Read                                        ./elibrary/bin/libsyscall.a(syscall.o)
esDEV_Unimod                                      ./elibrary/bin/libsyscall.a(syscall.o)
esDEV_Unlock                                      ./elibrary/bin/libsyscall.a(syscall.o)
esDEV_Write                                       ./elibrary/bin/libsyscall.a(syscall.o)
esDMA_ChangeMode                                  ./elibrary/bin/libsyscall.a(syscall.o)
esDMA_DisableINT                                  ./elibrary/bin/libsyscall.a(syscall.o)
esDMA_EnableINT                                   ./elibrary/bin/libsyscall.a(syscall.o)
esDMA_Information                                 ./elibrary/bin/libsyscall.a(syscall.o)
esDMA_QueryDst                                    ./elibrary/bin/libsyscall.a(syscall.o)
esDMA_QueryRestCount                              ./elibrary/bin/libsyscall.a(syscall.o)
esDMA_QuerySrc                                    ./elibrary/bin/libsyscall.a(syscall.o)
esDMA_QueryStat                                   ./elibrary/bin/libsyscall.a(syscall.o)
esDMA_RegDmaHdler                                 ./elibrary/bin/libsyscall.a(syscall.o)
esDMA_Release                                     ./elibrary/bin/libsyscall.a(syscall.o)
esDMA_Request                                     ./elibrary/bin/libsyscall.a(syscall.o)
esDMA_Restart                                     ./elibrary/bin/libsyscall.a(syscall.o)
esDMA_Setting                                     ./elibrary/bin/libsyscall.a(syscall.o)
esDMA_Start                                       ./elibrary/bin/libsyscall.a(syscall.o)
esDMA_Stop                                        ./elibrary/bin/libsyscall.a(syscall.o)
esDMA_UnregDmaHdler                               ./elibrary/bin/libsyscall.a(syscall.o)
esEXEC_PCreate                                    ./elibrary/bin/libsyscall.a(syscall.o)
esEXEC_PDel                                       ./elibrary/bin/libsyscall.a(syscall.o)
esEXEC_PDelReq                                    ./elibrary/bin/libsyscall.a(syscall.o)
esEXEC_Run                                        ./elibrary/bin/libsyscall.a(syscall.o)
esFSYS_clearpartupdateflag                        ./elibrary/bin/libsyscall.a(syscall.o)
esFSYS_closedir                                   ./elibrary/bin/libsyscall.a(syscall.o)
                                                  ./elibrary/bin/libminic.a(elibs_stdio.o)
esFSYS_fclose                                     ./elibrary/bin/libsyscall.a(syscall.o)
                                                  ./elibrary/bin/libminic.a(elibs_stdio.o)
esFSYS_fd2file                                    ./elibrary/bin/libsyscall.a(syscall.o)
                                                  ./elibrary/bin/libminic.a(elibs_stdio.o)
esFSYS_ferrclr                                    ./elibrary/bin/libsyscall.a(syscall.o)
                                                  ./elibrary/bin/libminic.a(elibs_stdio.o)
esFSYS_ferror                                     ./elibrary/bin/libsyscall.a(syscall.o)
                                                  ./elibrary/bin/libminic.a(elibs_stdio.o)
esFSYS_file2fd                                    ./elibrary/bin/libsyscall.a(syscall.o)
                                                  ./elibrary/bin/libminic.a(elibs_stdio.o)
esFSYS_fioctrl                                    ./elibrary/bin/libsyscall.a(syscall.o)
                                                  ./elibrary/bin/libminic.a(elibs_stdio.o)
esFSYS_fopen                                      ./elibrary/bin/libsyscall.a(syscall.o)
                                                  ./elibrary/bin/libminic.a(elibs_stdio.o)
esFSYS_format                                     ./elibrary/bin/libsyscall.a(syscall.o)
                                                  ./elibrary/bin/libminic.a(elibs_stdio.o)
esFSYS_fread                                      ./elibrary/bin/libsyscall.a(syscall.o)
                                                  ./elibrary/bin/libminic.a(elibs_stdio.o)
esFSYS_fsdbg                                      ./elibrary/bin/libsyscall.a(syscall.o)
esFSYS_fseek                                      ./elibrary/bin/libsyscall.a(syscall.o)
                                                  ./elibrary/bin/libminic.a(elibs_stdio.o)
esFSYS_fseekex                                    ./elibrary/bin/libsyscall.a(syscall.o)
                                                  ./elibrary/bin/libminic.a(elibs_stdio.o)
esFSYS_fsreg                                      ./elibrary/bin/libsyscall.a(syscall.o)
esFSYS_fstat                                      ./elibrary/bin/libsyscall.a(syscall.o)
                                                  ./elibrary/bin/libminic.a(elibs_stdio.o)
esFSYS_fsunreg                                    ./elibrary/bin/libsyscall.a(syscall.o)
esFSYS_fsync                                      ./elibrary/bin/libsyscall.a(syscall.o)
                                                  ./elibrary/bin/libminic.a(elibs_stdio.o)
esFSYS_ftell                                      ./elibrary/bin/libsyscall.a(syscall.o)
                                                  ./elibrary/bin/libminic.a(elibs_stdio.o)
esFSYS_ftellex                                    ./elibrary/bin/libsyscall.a(syscall.o)
                                                  ./elibrary/bin/libminic.a(elibs_stdio.o)
esFSYS_ftruncate                                  ./elibrary/bin/libsyscall.a(syscall.o)
                                                  ./elibrary/bin/libminic.a(elibs_stdio.o)
esFSYS_fwrite                                     ./elibrary/bin/libsyscall.a(syscall.o)
                                                  ./elibrary/bin/libminic.a(elibs_stdio.o)
esFSYS_getfscharset                               ./elibrary/bin/libsyscall.a(syscall.o)
                                                  ./elibrary/bin/libminic.a(elibs_stdio.o)
esFSYS_mkdir                                      ./elibrary/bin/libsyscall.a(syscall.o)
                                                  ./elibrary/bin/libminic.a(elibs_stdio.o)
esFSYS_mntfs                                      ./elibrary/bin/libsyscall.a(syscall.o)
esFSYS_mntparts                                   ./elibrary/bin/libsyscall.a(syscall.o)
esFSYS_open                                       ./elibrary/bin/libsyscall.a(syscall.o)
                                                  ./elibrary/bin/libminic.a(elibs_stdio.o)
esFSYS_opendir                                    ./elibrary/bin/libsyscall.a(syscall.o)
                                                  ./elibrary/bin/libminic.a(elibs_stdio.o)
esFSYS_partfslck                                  ./elibrary/bin/libsyscall.a(syscall.o)
                                                  ./elibrary/bin/libminic.a(elibs_stdio.o)
esFSYS_partfsunlck                                ./elibrary/bin/libsyscall.a(syscall.o)
                                                  ./elibrary/bin/libminic.a(elibs_stdio.o)
esFSYS_pclose                                     ./elibrary/bin/libsyscall.a(syscall.o)
esFSYS_pdreg                                      ./elibrary/bin/libsyscall.a(syscall.o)
esFSYS_pdunreg                                    ./elibrary/bin/libsyscall.a(syscall.o)
esFSYS_perrclr                                    ./elibrary/bin/libsyscall.a(syscall.o)
esFSYS_perror                                     ./elibrary/bin/libsyscall.a(syscall.o)
esFSYS_pioctrl                                    ./elibrary/bin/libsyscall.a(syscall.o)
esFSYS_popen                                      ./elibrary/bin/libsyscall.a(syscall.o)
esFSYS_pread                                      ./elibrary/bin/libsyscall.a(syscall.o)
esFSYS_premove                                    ./elibrary/bin/libsyscall.a(syscall.o)
esFSYS_prename                                    ./elibrary/bin/libsyscall.a(syscall.o)
esFSYS_pwrite                                     ./elibrary/bin/libsyscall.a(syscall.o)
esFSYS_querypartupdateflag                        ./elibrary/bin/libsyscall.a(syscall.o)
esFSYS_readdir                                    ./elibrary/bin/libsyscall.a(syscall.o)
                                                  ./elibrary/bin/libminic.a(elibs_stdio.o)
esFSYS_remove                                     ./elibrary/bin/libsyscall.a(syscall.o)
                                                  ./elibrary/bin/libminic.a(elibs_stdio.o)
esFSYS_rename                                     ./elibrary/bin/libsyscall.a(syscall.o)
                                                  ./elibrary/bin/libminic.a(elibs_stdio.o)
esFSYS_rewinddir                                  ./elibrary/bin/libsyscall.a(syscall.o)
                                                  ./elibrary/bin/libminic.a(elibs_stdio.o)
esFSYS_rmdir                                      ./elibrary/bin/libsyscall.a(syscall.o)
                                                  ./elibrary/bin/libminic.a(elibs_stdio.o)
esFSYS_setfs                                      ./elibrary/bin/libsyscall.a(syscall.o)
                                                  ./elibrary/bin/libminic.a(elibs_stdio.o)
esFSYS_statfs                                     ./elibrary/bin/libsyscall.a(syscall.o)
                                                  ./elibrary/bin/libminic.a(elibs_stdio.o)
esFSYS_statpt                                     ./elibrary/bin/libsyscall.a(syscall.o)
                                                  ./elibrary/bin/libminic.a(elibs_stdio.o)
esFSYS_umntfs                                     ./elibrary/bin/libsyscall.a(syscall.o)
esFSYS_umntparts                                  ./elibrary/bin/libsyscall.a(syscall.o)
esHID_SendMsg                                     ./elibrary/bin/libsyscall.a(syscall.o)
esHID_hiddevreg                                   ./elibrary/bin/libsyscall.a(syscall.o)
esHID_hiddevunreg                                 ./elibrary/bin/libsyscall.a(syscall.o)
esINPUT_GetLdevID                                 ./elibrary/bin/libsyscall.a(syscall.o)
esINPUT_LdevCtl                                   ./elibrary/bin/libsyscall.a(syscall.o)
esINPUT_LdevFeedback                              ./elibrary/bin/libsyscall.a(syscall.o)
esINPUT_LdevGrab                                  ./elibrary/bin/libsyscall.a(syscall.o)
esINPUT_LdevRelease                               ./elibrary/bin/libsyscall.a(syscall.o)
esINPUT_RegDev                                    ./elibrary/bin/libsyscall.a(syscall.o)
esINPUT_SendEvent                                 ./elibrary/bin/libsyscall.a(syscall.o)
esINPUT_UnregDev                                  ./elibrary/bin/libsyscall.a(syscall.o)
esINT_DisableINT                                  ./elibrary/bin/libsyscall.a(syscall.o)
esINT_EnableINT                                   ./elibrary/bin/libsyscall.a(syscall.o)
esINT_InsFIR                                      ./elibrary/bin/libsyscall.a(syscall.o)
esINT_InsISR                                      ./elibrary/bin/libsyscall.a(syscall.o)
esINT_SetIRQPrio                                  ./elibrary/bin/libsyscall.a(syscall.o)
esINT_UniFIR                                      ./elibrary/bin/libsyscall.a(syscall.o)
esINT_UniISR                                      ./elibrary/bin/libsyscall.a(syscall.o)
esKRNL_CallBack                                   ./elibrary/bin/libsyscall.a(syscall.o)
                                                  emodules/mod_orange/built-in.o
esKRNL_DumpStack                                  ./elibrary/bin/libsyscall.a(syscall.o)
esKRNL_FlagAccept                                 ./elibrary/bin/libsyscall.a(syscall.o)
esKRNL_FlagCreate                                 ./elibrary/bin/libsyscall.a(syscall.o)
                                                  emodules/mod_orange/built-in.o
esKRNL_FlagDel                                    ./elibrary/bin/libsyscall.a(syscall.o)
                                                  emodules/mod_orange/built-in.o
esKRNL_FlagNameGet                                ./elibrary/bin/libsyscall.a(syscall.o)
esKRNL_FlagNameSet                                ./elibrary/bin/libsyscall.a(syscall.o)
esKRNL_FlagPend                                   ./elibrary/bin/libsyscall.a(syscall.o)
                                                  emodules/mod_orange/built-in.o
esKRNL_FlagPendGetFlagsRdy                        ./elibrary/bin/libsyscall.a(syscall.o)
esKRNL_FlagPost                                   ./elibrary/bin/libsyscall.a(syscall.o)
                                                  emodules/mod_orange/built-in.o
esKRNL_FlagQuery                                  ./elibrary/bin/libsyscall.a(syscall.o)
                                                  emodules/mod_orange/built-in.o
esKRNL_GetCallBack                                ./elibrary/bin/libsyscall.a(syscall.o)
                                                  emodules/mod_orange/built-in.o
esKRNL_GetTIDCur                                  ./elibrary/bin/libsyscall.a(syscall.o)
                                                  emodules/mod_orange/built-in.o
esKRNL_InterruptDisable                           ./elibrary/bin/libsyscall.a(syscall.o)
esKRNL_InterruptEnable                            ./elibrary/bin/libsyscall.a(syscall.o)
esKRNL_MboxAccept                                 ./elibrary/bin/libsyscall.a(syscall.o)
esKRNL_MboxCreate                                 ./elibrary/bin/libsyscall.a(syscall.o)
                                                  emodules/mod_orange/built-in.o
esKRNL_MboxDel                                    ./elibrary/bin/libsyscall.a(syscall.o)
esKRNL_MboxPend                                   ./elibrary/bin/libsyscall.a(syscall.o)
                                                  emodules/mod_orange/built-in.o
esKRNL_MboxPost                                   ./elibrary/bin/libsyscall.a(syscall.o)
                                                  emodules/mod_orange/built-in.o
esKRNL_MboxPostOpt                                ./elibrary/bin/libsyscall.a(syscall.o)
esKRNL_MboxQuery                                  ./elibrary/bin/libsyscall.a(syscall.o)
esKRNL_MemLeakChk                                 ./elibrary/bin/libsyscall.a(syscall.o)
esKRNL_MutexCreate                                ./elibrary/bin/libsyscall.a(syscall.o)
esKRNL_MutexDel                                   ./elibrary/bin/libsyscall.a(syscall.o)
esKRNL_MutexPend                                  ./elibrary/bin/libsyscall.a(syscall.o)
esKRNL_MutexPost                                  ./elibrary/bin/libsyscall.a(syscall.o)
esKRNL_QAccept                                    ./elibrary/bin/libsyscall.a(syscall.o)
esKRNL_QCreate                                    ./elibrary/bin/libsyscall.a(syscall.o)
                                                  emodules/mod_orange/built-in.o
esKRNL_QDel                                       ./elibrary/bin/libsyscall.a(syscall.o)
                                                  emodules/mod_orange/built-in.o
esKRNL_QFlush                                     ./elibrary/bin/libsyscall.a(syscall.o)
                                                  emodules/mod_orange/built-in.o
esKRNL_QPend                                      ./elibrary/bin/libsyscall.a(syscall.o)
                                                  emodules/mod_orange/built-in.o
esKRNL_QPost                                      ./elibrary/bin/libsyscall.a(syscall.o)
                                                  emodules/mod_orange/built-in.o
esKRNL_QPostFront                                 ./elibrary/bin/libsyscall.a(syscall.o)
esKRNL_QPostOpt                                   ./elibrary/bin/libsyscall.a(syscall.o)
esKRNL_QQuery                                     ./elibrary/bin/libsyscall.a(syscall.o)
                                                  emodules/mod_orange/built-in.o
esKRNL_SchedLock                                  ./elibrary/bin/libsyscall.a(syscall.o)
esKRNL_SchedUnlock                                ./elibrary/bin/libsyscall.a(syscall.o)
esKRNL_SemAccept                                  ./elibrary/bin/libsyscall.a(syscall.o)
                                                  emodules/mod_orange/built-in.o
esKRNL_SemCreate                                  ./elibrary/bin/libsyscall.a(syscall.o)
                                                  emodules/mod_orange/built-in.o
esKRNL_SemDel                                     ./elibrary/bin/libsyscall.a(syscall.o)
                                                  emodules/mod_orange/built-in.o
esKRNL_SemPend                                    ./elibrary/bin/libsyscall.a(syscall.o)
                                                  emodules/mod_orange/built-in.o
esKRNL_SemPost                                    ./elibrary/bin/libsyscall.a(syscall.o)
                                                  emodules/mod_orange/built-in.o
esKRNL_SemQuery                                   ./elibrary/bin/libsyscall.a(syscall.o)
                                                  emodules/mod_orange/built-in.o
esKRNL_SemSet                                     ./elibrary/bin/libsyscall.a(syscall.o)
esKRNL_SktAccept                                  ./elibrary/bin/libsyscall.a(syscall.o)
esKRNL_SktCreate                                  ./elibrary/bin/libsyscall.a(syscall.o)
esKRNL_SktDel                                     ./elibrary/bin/libsyscall.a(syscall.o)
esKRNL_SktPend                                    ./elibrary/bin/libsyscall.a(syscall.o)
esKRNL_SktPost                                    ./elibrary/bin/libsyscall.a(syscall.o)
esKRNL_TCreate                                    ./elibrary/bin/libsyscall.a(syscall.o)
                                                  emodules/mod_orange/built-in.o
esKRNL_TDel                                       ./elibrary/bin/libsyscall.a(syscall.o)
                                                  emodules/mod_orange/built-in.o
esKRNL_TDelReq                                    ./elibrary/bin/libsyscall.a(syscall.o)
                                                  emodules/mod_orange/built-in.o
esKRNL_TaskNameSet                                ./elibrary/bin/libsyscall.a(syscall.o)
                                                  emodules/mod_orange/built-in.o
esKRNL_TaskPrefEn                                 ./elibrary/bin/libsyscall.a(syscall.o)
esKRNL_TaskQuery                                  ./elibrary/bin/libsyscall.a(syscall.o)
                                                  emodules/mod_orange/built-in.o
esKRNL_TaskResume                                 ./elibrary/bin/libsyscall.a(syscall.o)
                                                  emodules/mod_orange/built-in.o
esKRNL_TaskSuspend                                ./elibrary/bin/libsyscall.a(syscall.o)
                                                  emodules/mod_orange/built-in.o
esKRNL_Time                                       ./elibrary/bin/libsyscall.a(syscall.o)
esKRNL_TimeDly                                    ./elibrary/bin/libsyscall.a(syscall.o)
                                                  emodules/mod_orange/built-in.o
esKRNL_TimeDlyResume                              ./elibrary/bin/libsyscall.a(syscall.o)
esKRNL_TimeGet                                    ./elibrary/bin/libsyscall.a(syscall.o)
                                                  emodules/mod_orange/built-in.o
esKRNL_TimeSet                                    ./elibrary/bin/libsyscall.a(syscall.o)
esKRNL_TmrCreate                                  ./elibrary/bin/libsyscall.a(syscall.o)
esKRNL_TmrDel                                     ./elibrary/bin/libsyscall.a(syscall.o)
esKRNL_TmrError                                   ./elibrary/bin/libsyscall.a(syscall.o)
esKRNL_TmrRemainGet                               ./elibrary/bin/libsyscall.a(syscall.o)
esKRNL_TmrStart                                   ./elibrary/bin/libsyscall.a(syscall.o)
esKRNL_TmrStateGet                                ./elibrary/bin/libsyscall.a(syscall.o)
esKRNL_TmrStop                                    ./elibrary/bin/libsyscall.a(syscall.o)
esKRNL_Version                                    ./elibrary/bin/libsyscall.a(syscall.o)
esKSRV_ClearWatchDog                              ./elibrary/bin/libsyscall.a(syscall.o)
esKSRV_DisableWatchDog                            ./elibrary/bin/libsyscall.a(syscall.o)
esKSRV_DisableWatchDogSrv                         ./elibrary/bin/libsyscall.a(syscall.o)
esKSRV_EnableWatchDog                             ./elibrary/bin/libsyscall.a(syscall.o)
esKSRV_EnableWatchDogSrv                          ./elibrary/bin/libsyscall.a(syscall.o)
esKSRV_GetAddPara                                 ./elibrary/bin/libsyscall.a(syscall.o)
esKSRV_GetDramCfgPara                             ./elibrary/bin/libsyscall.a(syscall.o)
esKSRV_GetHighMsg                                 ./elibrary/bin/libsyscall.a(syscall.o)
esKSRV_GetLowMsg                                  ./elibrary/bin/libsyscall.a(syscall.o)
esKSRV_GetMsg                                     ./elibrary/bin/libsyscall.a(syscall.o)
esKSRV_GetPara                                    ./elibrary/bin/libsyscall.a(syscall.o)
esKSRV_GetSocID                                   ./elibrary/bin/libsyscall.a(syscall.o)
esKSRV_GetTargetPara                              ./elibrary/bin/libsyscall.a(syscall.o)
esKSRV_GetVersion                                 ./elibrary/bin/libsyscall.a(syscall.o)
esKSRV_Get_Display_Hld                            ./elibrary/bin/libsyscall.a(syscall.o)
                                                  emodules/mod_orange/built-in.o
esKSRV_Get_Mixture_Hld                            ./elibrary/bin/libsyscall.a(syscall.o)
esKSRV_PowerOff                                   ./elibrary/bin/libsyscall.a(syscall.o)
esKSRV_Random                                     ./elibrary/bin/libsyscall.a(syscall.o)
                                                  ./elibrary/bin/libminic.a(elibs_stdlib.o)
esKSRV_Reset                                      ./elibrary/bin/libsyscall.a(syscall.o)
esKSRV_Save_Display_Hld                           ./elibrary/bin/libsyscall.a(syscall.o)
esKSRV_Save_Mixture_Hld                           ./elibrary/bin/libsyscall.a(syscall.o)
esKSRV_SendMsg                                    ./elibrary/bin/libsyscall.a(syscall.o)
esKSRV_SendMsgEx                                  ./elibrary/bin/libsyscall.a(syscall.o)
esKSRV_SysInfo                                    ./elibrary/bin/libsyscall.a(syscall.o)
esKSRV_memcpy                                     ./elibrary/bin/libsyscall.a(syscall.o)
esKSRV_memset                                     ./elibrary/bin/libsyscall.a(syscall.o)
esMEMS_Balloc                                     ./elibrary/bin/libsyscall.a(syscall.o)
                                                  emodules/mod_orange/built-in.o
esMEMS_Bfree                                      ./elibrary/bin/libsyscall.a(syscall.o)
                                                  emodules/mod_orange/built-in.o
esMEMS_Calloc                                     ./elibrary/bin/libsyscall.a(syscall.o)
esMEMS_CleanDCache                                ./elibrary/bin/libsyscall.a(syscall.o)
esMEMS_CleanDCacheRegion                          ./elibrary/bin/libsyscall.a(syscall.o)
esMEMS_CleanFlushCache                            ./elibrary/bin/libsyscall.a(syscall.o)
esMEMS_CleanFlushCacheRegion                      ./elibrary/bin/libsyscall.a(syscall.o)
esMEMS_CleanFlushDCache                           ./elibrary/bin/libsyscall.a(syscall.o)
esMEMS_CleanFlushDCacheRegion                     ./elibrary/bin/libsyscall.a(syscall.o)
                                                  emodules/mod_orange/built-in.o
esMEMS_CleanInvalidateCacheAll                    ./elibrary/bin/libsyscall.a(syscall.o)
esMEMS_FlushCache                                 ./elibrary/bin/libsyscall.a(syscall.o)
esMEMS_FlushCacheRegion                           ./elibrary/bin/libsyscall.a(syscall.o)
esMEMS_FlushDCache                                ./elibrary/bin/libsyscall.a(syscall.o)
esMEMS_FlushDCacheRegion                          ./elibrary/bin/libsyscall.a(syscall.o)
esMEMS_FlushICache                                ./elibrary/bin/libsyscall.a(syscall.o)
esMEMS_FlushICacheRegion                          ./elibrary/bin/libsyscall.a(syscall.o)
esMEMS_FreeMemSize                                ./elibrary/bin/libsyscall.a(syscall.o)
esMEMS_GetIoVAByPA                                ./elibrary/bin/libsyscall.a(syscall.o)
esMEMS_HeapCreate                                 ./elibrary/bin/libsyscall.a(syscall.o)
esMEMS_HeapDel                                    ./elibrary/bin/libsyscall.a(syscall.o)
esMEMS_Info                                       ./elibrary/bin/libsyscall.a(syscall.o)
esMEMS_Malloc                                     ./elibrary/bin/libsyscall.a(syscall.o)
                                                  ./elibrary/bin/libminic.a(elibs_stdlib.o)
                                                  ./elibrary/bin/libminic.a(elibs_stdio.o)
                                                  emodules/mod_orange/built-in.o
esMEMS_Mfree                                      ./elibrary/bin/libsyscall.a(syscall.o)
                                                  ./elibrary/bin/libminic.a(elibs_stdlib.o)
                                                  ./elibrary/bin/libminic.a(elibs_stdio.o)
                                                  emodules/mod_orange/built-in.o
esMEMS_Palloc                                     ./elibrary/bin/libsyscall.a(syscall.o)
                                                  emodules/mod_orange/built-in.o
esMEMS_Pfree                                      ./elibrary/bin/libsyscall.a(syscall.o)
                                                  emodules/mod_orange/built-in.o
                                                  emodules/mod_orange/mod_orange.o
esMEMS_Realloc                                    ./elibrary/bin/libsyscall.a(syscall.o)
                                                  ./elibrary/bin/libminic.a(elibs_stdlib.o)
esMEMS_TotalMemSize                               ./elibrary/bin/libsyscall.a(syscall.o)
esMEMS_VA2PA                                      ./elibrary/bin/libsyscall.a(syscall.o)
esMEMS_VMCreate                                   ./elibrary/bin/libsyscall.a(syscall.o)
esMEMS_VMDelete                                   ./elibrary/bin/libsyscall.a(syscall.o)
esMEMS_VMalloc                                    ./elibrary/bin/libsyscall.a(syscall.o)
esMEMS_VMfree                                     ./elibrary/bin/libsyscall.a(syscall.o)
esMEM_BWDisable                                   ./elibrary/bin/libsyscall.a(syscall.o)
esMEM_BWEnable                                    ./elibrary/bin/libsyscall.a(syscall.o)
esMEM_BWGet                                       ./elibrary/bin/libsyscall.a(syscall.o)
esMEM_DramSuspend                                 ./elibrary/bin/libsyscall.a(syscall.o)
esMEM_DramWakeup                                  ./elibrary/bin/libsyscall.a(syscall.o)
esMEM_MasterGet                                   ./elibrary/bin/libsyscall.a(syscall.o)
esMEM_MasterSet                                   ./elibrary/bin/libsyscall.a(syscall.o)
esMEM_RegDramAccess                               ./elibrary/bin/libsyscall.a(syscall.o)
esMEM_ReleaseDramUsrMode                          ./elibrary/bin/libsyscall.a(syscall.o)
esMEM_RequestDramUsrMode                          ./elibrary/bin/libsyscall.a(syscall.o)
esMEM_SramRelBlk                                  ./elibrary/bin/libsyscall.a(syscall.o)
esMEM_SramReqBlk                                  ./elibrary/bin/libsyscall.a(syscall.o)
esMEM_SramSwitchBlk                               ./elibrary/bin/libsyscall.a(syscall.o)
esMEM_UnRegDramAccess                             ./elibrary/bin/libsyscall.a(syscall.o)
esMODS_MClose                                     ./elibrary/bin/libsyscall.a(syscall.o)
esMODS_MInstall                                   ./elibrary/bin/libsyscall.a(syscall.o)
esMODS_MIoctrl                                    ./elibrary/bin/libsyscall.a(syscall.o)
                                                  emodules/mod_orange/built-in.o
esMODS_MOpen                                      ./elibrary/bin/libsyscall.a(syscall.o)
esMODS_MRead                                      ./elibrary/bin/libsyscall.a(syscall.o)
esMODS_MUninstall                                 ./elibrary/bin/libsyscall.a(syscall.o)
esMODS_MWrite                                     ./elibrary/bin/libsyscall.a(syscall.o)
esMSTUB_GetFuncEntry                              ./elibrary/bin/libsyscall.a(syscall.o)
esMSTUB_RegFuncTbl                                ./elibrary/bin/libsyscall.a(syscall.o)
esMSTUB_UnRegFuncTbl                              ./elibrary/bin/libsyscall.a(syscall.o)
esPINS_ClearPending                               ./elibrary/bin/libsyscall.a(syscall.o)
esPINS_DisbaleInt                                 ./elibrary/bin/libsyscall.a(syscall.o)
esPINS_EnbaleInt                                  ./elibrary/bin/libsyscall.a(syscall.o)
esPINS_GetPinGrpStat                              ./elibrary/bin/libsyscall.a(syscall.o)
esPINS_GetPinStat                                 ./elibrary/bin/libsyscall.a(syscall.o)
esPINS_PinGrpRel                                  ./elibrary/bin/libsyscall.a(syscall.o)
esPINS_PinGrpReq                                  ./elibrary/bin/libsyscall.a(syscall.o)
esPINS_QueryInt                                   ./elibrary/bin/libsyscall.a(syscall.o)
esPINS_ReadPinData                                ./elibrary/bin/libsyscall.a(syscall.o)
esPINS_RegIntHdler                                ./elibrary/bin/libsyscall.a(syscall.o)
esPINS_SetIntMode                                 ./elibrary/bin/libsyscall.a(syscall.o)
esPINS_SetPinDrive                                ./elibrary/bin/libsyscall.a(syscall.o)
esPINS_SetPinIO                                   ./elibrary/bin/libsyscall.a(syscall.o)
esPINS_SetPinPull                                 ./elibrary/bin/libsyscall.a(syscall.o)
esPINS_SetPinStat                                 ./elibrary/bin/libsyscall.a(syscall.o)
esPINS_UnregIntHdler                              ./elibrary/bin/libsyscall.a(syscall.o)
esPINS_WritePinData                               ./elibrary/bin/libsyscall.a(syscall.o)
esPWRMAN_EnterStandby                             ./elibrary/bin/libsyscall.a(syscall.o)
esPWRMAN_GetStandbyPara                           ./elibrary/bin/libsyscall.a(syscall.o)
esPWRMAN_LockCpuFreq                              ./elibrary/bin/libsyscall.a(syscall.o)
esPWRMAN_RegDevice                                ./elibrary/bin/libsyscall.a(syscall.o)
esPWRMAN_RelPwrmanMode                            ./elibrary/bin/libsyscall.a(syscall.o)
esPWRMAN_ReqPwrmanMode                            ./elibrary/bin/libsyscall.a(syscall.o)
esPWRMAN_SetStandbyMode                           ./elibrary/bin/libsyscall.a(syscall.o)
esPWRMAN_UnlockCpuFreq                            ./elibrary/bin/libsyscall.a(syscall.o)
esPWRMAN_UnregDevice                              ./elibrary/bin/libsyscall.a(syscall.o)
esPWRMAN_UsrEventNotify                           ./elibrary/bin/libsyscall.a(syscall.o)
esRESM_RClose                                     ./elibrary/bin/libsyscall.a(syscall.o)
                                                  emodules/mod_orange/built-in.o
esRESM_ROpen                                      ./elibrary/bin/libsyscall.a(syscall.o)
                                                  emodules/mod_orange/built-in.o
esRESM_RRead                                      ./elibrary/bin/libsyscall.a(syscall.o)
                                                  emodules/mod_orange/built-in.o
esRESM_RSeek                                      ./elibrary/bin/libsyscall.a(syscall.o)
                                                  emodules/mod_orange/built-in.o
esSIOS_getchar                                    ./elibrary/bin/libsyscall.a(syscall.o)
esSIOS_gets                                       ./elibrary/bin/libsyscall.a(syscall.o)
esSIOS_putarg                                     ./elibrary/bin/libsyscall.a(syscall.o)
esSIOS_putstr                                     ./elibrary/bin/libsyscall.a(syscall.o)
                                                  ./elibrary/bin/libminic.a(elibs_stdio.o)
esSIOS_setbaud                                    ./elibrary/bin/libsyscall.a(syscall.o)
esSVC_RegCloseNode                                ./elibrary/bin/libsyscall.a(syscall.o)
esSVC_RegClrError                                 ./elibrary/bin/libsyscall.a(syscall.o)
esSVC_RegCreateKey                                ./elibrary/bin/libsyscall.a(syscall.o)
esSVC_RegCreatePath                               ./elibrary/bin/libsyscall.a(syscall.o)
esSVC_RegCreateSet                                ./elibrary/bin/libsyscall.a(syscall.o)
esSVC_RegDeleteKey                                ./elibrary/bin/libsyscall.a(syscall.o)
esSVC_RegDeleteNode                               ./elibrary/bin/libsyscall.a(syscall.o)
esSVC_RegDeletePath                               ./elibrary/bin/libsyscall.a(syscall.o)
esSVC_RegDeleteSet                                ./elibrary/bin/libsyscall.a(syscall.o)
esSVC_RegGetError                                 ./elibrary/bin/libsyscall.a(syscall.o)
esSVC_RegGetFirstKey                              ./elibrary/bin/libsyscall.a(syscall.o)
esSVC_RegGetFirstSet                              ./elibrary/bin/libsyscall.a(syscall.o)
esSVC_RegGetKeyCount                              ./elibrary/bin/libsyscall.a(syscall.o)
esSVC_RegGetKeyValue                              ./elibrary/bin/libsyscall.a(syscall.o)
esSVC_RegGetNextKey                               ./elibrary/bin/libsyscall.a(syscall.o)
esSVC_RegGetNextSet                               ./elibrary/bin/libsyscall.a(syscall.o)
esSVC_RegGetRootPath                              ./elibrary/bin/libsyscall.a(syscall.o)
esSVC_RegGetSetCount                              ./elibrary/bin/libsyscall.a(syscall.o)
esSVC_RegIni2Reg                                  ./elibrary/bin/libsyscall.a(syscall.o)
esSVC_RegOpenNode                                 ./elibrary/bin/libsyscall.a(syscall.o)
esSVC_RegReg2Ini                                  ./elibrary/bin/libsyscall.a(syscall.o)
esSVC_RegSetKeyValue                              ./elibrary/bin/libsyscall.a(syscall.o)
esSVC_RegSetRootPath                              ./elibrary/bin/libsyscall.a(syscall.o)
esSVC_ResourceRel                                 ./elibrary/bin/libsyscall.a(syscall.o)
esSVC_ResourceReq                                 ./elibrary/bin/libsyscall.a(syscall.o)
esTIME_ContiCntr                                  ./elibrary/bin/libsyscall.a(syscall.o)
esTIME_GetDate                                    ./elibrary/bin/libsyscall.a(syscall.o)
                                                  ./elibrary/bin/libminic.a(elibs_stdio.o)
esTIME_GetTime                                    ./elibrary/bin/libsyscall.a(syscall.o)
                                                  ./elibrary/bin/libminic.a(elibs_stdio.o)
esTIME_PauseCntr                                  ./elibrary/bin/libsyscall.a(syscall.o)
esTIME_QuerryAlarm                                ./elibrary/bin/libsyscall.a(syscall.o)
esTIME_QuerryCntr                                 ./elibrary/bin/libsyscall.a(syscall.o)
esTIME_QuerryCntrStat                             ./elibrary/bin/libsyscall.a(syscall.o)
esTIME_QuerryTimer                                ./elibrary/bin/libsyscall.a(syscall.o)
esTIME_ReleaseAlarm                               ./elibrary/bin/libsyscall.a(syscall.o)
esTIME_ReleaseCntr                                ./elibrary/bin/libsyscall.a(syscall.o)
esTIME_ReleaseTimer                               ./elibrary/bin/libsyscall.a(syscall.o)
esTIME_RequestAlarm                               ./elibrary/bin/libsyscall.a(syscall.o)
esTIME_RequestCntr                                ./elibrary/bin/libsyscall.a(syscall.o)
esTIME_RequestTimer                               ./elibrary/bin/libsyscall.a(syscall.o)
esTIME_SetCntrPrescale                            ./elibrary/bin/libsyscall.a(syscall.o)
esTIME_SetCntrValue                               ./elibrary/bin/libsyscall.a(syscall.o)
esTIME_SetDate                                    ./elibrary/bin/libsyscall.a(syscall.o)
esTIME_SetTime                                    ./elibrary/bin/libsyscall.a(syscall.o)
esTIME_StartAlarm                                 ./elibrary/bin/libsyscall.a(syscall.o)
esTIME_StartCntr                                  ./elibrary/bin/libsyscall.a(syscall.o)
esTIME_StartTimer                                 ./elibrary/bin/libsyscall.a(syscall.o)
esTIME_StopAlarm                                  ./elibrary/bin/libsyscall.a(syscall.o)
esTIME_StopCntr                                   ./elibrary/bin/libsyscall.a(syscall.o)
esTIME_StopTimer                                  ./elibrary/bin/libsyscall.a(syscall.o)
fabs                                              /home/yuzuki/WorkSpace/melis-v3.0/melis-4.x-release/toolchain/riscv64-elf-x86_64-20201104/bin/../lib/gcc/riscv64-unknown-elf/8.4.0/../../../../riscv64-unknown-elf/lib/rv64imafdcxtheadc/lp64d/libm.a(lib_a-s_fabs.o)
                                                  /home/yuzuki/WorkSpace/melis-v3.0/melis-4.x-release/toolchain/riscv64-elf-x86_64-20201104/bin/../lib/gcc/riscv64-unknown-elf/8.4.0/../../../../riscv64-unknown-elf/lib/rv64imafdcxtheadc/lp64d/libm.a(lib_a-e_rem_pio2.o)
fill_rect_with_column                             emodules/mod_orange/built-in.o
fill_rect_with_row                                emodules/mod_orange/built-in.o
fioctrl                                           ./elibrary/bin/libsyscall.a(syscall_fops.o)
floor                                             /home/yuzuki/WorkSpace/melis-v3.0/melis-4.x-release/toolchain/riscv64-elf-x86_64-20201104/bin/../lib/gcc/riscv64-unknown-elf/8.4.0/../../../../riscv64-unknown-elf/lib/rv64imafdcxtheadc/lp64d/libm.a(lib_a-s_floor.o)
                                                  /home/yuzuki/WorkSpace/melis-v3.0/melis-4.x-release/toolchain/riscv64-elf-x86_64-20201104/bin/../lib/gcc/riscv64-unknown-elf/8.4.0/../../../../riscv64-unknown-elf/lib/rv64imafdcxtheadc/lp64d/libm.a(lib_a-k_rem_pio2.o)
                                                  emodules/mod_orange/built-in.o
fsync                                             ./elibrary/bin/libsyscall.a(syscall_fops.o)
ftruncate                                         ./elibrary/bin/libsyscall.a(syscall_fops.o)
g_create_mutex                                    emodules/mod_orange/built-in.o
g_delete_mutex                                    emodules/mod_orange/built-in.o
g_feof                                            emodules/mod_orange/built-in.o
g_pend_mutex                                      emodules/mod_orange/built-in.o
g_post_mutex                                      emodules/mod_orange/built-in.o
g_rcScr                                           emodules/mod_orange/built-in.o
get_string_encode_group                           emodules/mod_orange/built-in.o
get_string_piexl_rect                             emodules/mod_orange/built-in.o
gui_get_timer                                     emodules/mod_orange/built-in.o
gui_get_timer_slot                                emodules/mod_orange/built-in.o
gui_move_timer_last                               emodules/mod_orange/built-in.o
gui_remove_timer                                  emodules/mod_orange/built-in.o
gui_scndir                                        emodules/mod_orange/built-in.o
gui_timer_counter                                 emodules/mod_orange/built-in.o
gui_timer_init                                    emodules/mod_orange/built-in.o
gui_zoom_rect                                     emodules/mod_orange/built-in.o
hFirstTimer                                       emodules/mod_orange/built-in.o
ioctl                                             ./elibrary/bin/libsyscall.a(syscall_fops.o)
                                                  emodules/mod_orange/built-in.o
keyfile                                           emodules/mod_orange/built-in.o
local_get_string_encode_group                     emodules/mod_orange/built-in.o
local_get_string_piexl_rect                       emodules/mod_orange/built-in.o
lstmglidecuv_init                                 emodules/mod_orange/built-in.o
lstmglidecuv_move                                 emodules/mod_orange/built-in.o
lstmglidecuv_start                                emodules/mod_orange/built-in.o
lstmglidecuv_stop                                 emodules/mod_orange/built-in.o
lstmglidecuv_up                                   emodules/mod_orange/built-in.o
matherr                                           /home/yuzuki/WorkSpace/melis-v3.0/melis-4.x-release/toolchain/riscv64-elf-x86_64-20201104/bin/../lib/gcc/riscv64-unknown-elf/8.4.0/../../../../riscv64-unknown-elf/lib/rv64imafdcxtheadc/lp64d/libm.a(lib_a-s_matherr.o)
                                                  /home/yuzuki/WorkSpace/melis-v3.0/melis-4.x-release/toolchain/riscv64-elf-x86_64-20201104/bin/../lib/gcc/riscv64-unknown-elf/8.4.0/../../../../riscv64-unknown-elf/lib/rv64imafdcxtheadc/lp64d/libm.a(lib_a-w_sqrt.o)
memcmp                                            /home/yuzuki/WorkSpace/melis-v3.0/melis-4.x-release/toolchain/riscv64-elf-x86_64-20201104/bin/../lib/gcc/riscv64-unknown-elf/8.4.0/../../../../riscv64-unknown-elf/lib/rv64imafdcxtheadc/lp64d/libc.a(lib_a-memcmp.o)
                                                  emodules/mod_orange/built-in.o
memcpy                                            /home/yuzuki/WorkSpace/melis-v3.0/melis-4.x-release/toolchain/riscv64-elf-x86_64-20201104/bin/../lib/gcc/riscv64-unknown-elf/8.4.0/../../../../riscv64-unknown-elf/lib/rv64imafdcxtheadc/lp64d/libc.a(lib_a-memcpy.o)
                                                  ./elibrary/bin/liblzma.a(LzmaDec.o)
                                                  emodules/mod_orange/built-in.o
memmove                                           /home/yuzuki/WorkSpace/melis-v3.0/melis-4.x-release/toolchain/riscv64-elf-x86_64-20201104/bin/../lib/gcc/riscv64-unknown-elf/8.4.0/../../../../riscv64-unknown-elf/lib/rv64imafdcxtheadc/lp64d/libc.a(lib_a-memmove-stub.o)
                                                  emodules/mod_orange/built-in.o
memset                                            /home/yuzuki/WorkSpace/melis-v3.0/melis-4.x-release/toolchain/riscv64-elf-x86_64-20201104/bin/../lib/gcc/riscv64-unknown-elf/8.4.0/../../../../riscv64-unknown-elf/lib/rv64imafdcxtheadc/lp64d/libc.a(lib_a-memset.o)
                                                  ./elibrary/bin/libminic.a(elibs_stdio.o)
                                                  emodules/mod_orange/built-in.o
mkdir                                             ./elibrary/bin/libsyscall.a(syscall_fops.o)
modinfo                                           emodules/mod_orange/magic.o
opendir                                           ./elibrary/bin/libsyscall.a(syscall_fops.o)
orange                                            emodules/mod_orange/mod_orange.o
                                                  emodules/mod_orange/built-in.o
orangemod_api                                     emodules/mod_orange/orange_mod_api.o
printk                                            ./elibrary/bin/libminic.a(elibs_stdio.o)
                                                  ./elibrary/bin/libminic.a(elibs_stdlib.o)
                                                  emodules/mod_orange/built-in.o
                                                  emodules/mod_orange/orange_mod_api.o
readdir                                           ./elibrary/bin/libsyscall.a(syscall_fops.o)
rect_copy                                         emodules/mod_orange/built-in.o
rect_copy_alpha                                   emodules/mod_orange/built-in.o
rect_get_column                                   emodules/mod_orange/built-in.o
rect_get_row                                      emodules/mod_orange/built-in.o
rect_hori_mirror                                  emodules/mod_orange/built-in.o
rect_vert_mirror                                  emodules/mod_orange/built-in.o
remove                                            ./elibrary/bin/libsyscall.a(syscall_fops.o)
res_closedir                                      emodules/mod_orange/built-in.o
res_dirent2attr                                   emodules/mod_orange/built-in.o
res_dirent2name                                   emodules/mod_orange/built-in.o
res_fclose                                        emodules/mod_orange/built-in.o
res_feof                                          emodules/mod_orange/built-in.o
res_fopen                                         emodules/mod_orange/built-in.o
res_fread                                         emodules/mod_orange/built-in.o
res_fseek                                         emodules/mod_orange/built-in.o
res_fwrite                                        emodules/mod_orange/built-in.o
res_mkdir                                         emodules/mod_orange/built-in.o
res_opendir                                       emodules/mod_orange/built-in.o
res_readdir                                       emodules/mod_orange/built-in.o
res_remove                                        emodules/mod_orange/built-in.o
rewinddir                                         ./elibrary/bin/libsyscall.a(syscall_fops.o)
rmdir                                             ./elibrary/bin/libsyscall.a(syscall_fops.o)
rt_device_register                                ./elibrary/bin/libsyscall.a(syscall.o)
rt_device_unregister                              ./elibrary/bin/libsyscall.a(syscall.o)
scalbn                                            /home/yuzuki/WorkSpace/melis-v3.0/melis-4.x-release/toolchain/riscv64-elf-x86_64-20201104/bin/../lib/gcc/riscv64-unknown-elf/8.4.0/../../../../riscv64-unknown-elf/lib/rv64imafdcxtheadc/lp64d/libm.a(lib_a-s_scalbn.o)
                                                  /home/yuzuki/WorkSpace/melis-v3.0/melis-4.x-release/toolchain/riscv64-elf-x86_64-20201104/bin/../lib/gcc/riscv64-unknown-elf/8.4.0/../../../../riscv64-unknown-elf/lib/rv64imafdcxtheadc/lp64d/libm.a(lib_a-k_rem_pio2.o)
settimeofday                                      ./elibrary/bin/libsyscall.a(syscall_fops.o)
sft_fclose                                        emodules/mod_orange/built-in.o
sft_fopen                                         emodules/mod_orange/built-in.o
sft_fread                                         emodules/mod_orange/built-in.o
sft_fseek                                         emodules/mod_orange/built-in.o
sft_ftell                                         emodules/mod_orange/built-in.o
sft_test                                          emodules/mod_orange/built-in.o
sft_test2                                         emodules/mod_orange/built-in.o
sg_InVisLayerList                                 emodules/mod_orange/built-in.o
sg_InVisSpriteList                                emodules/mod_orange/built-in.o
sg_VisiLayerList                                  emodules/mod_orange/built-in.o
sg_VisiSpriteList                                 emodules/mod_orange/built-in.o
shadow                                            emodules/mod_orange/built-in.o
shadow_Dilation                                   emodules/mod_orange/built-in.o
sin                                               /home/yuzuki/WorkSpace/melis-v3.0/melis-4.x-release/toolchain/riscv64-elf-x86_64-20201104/bin/../lib/gcc/riscv64-unknown-elf/8.4.0/../../../../riscv64-unknown-elf/lib/rv64imafdcxtheadc/lp64d/libm.a(lib_a-s_sin.o)
                                                  emodules/mod_orange/built-in.o
speed_step                                        emodules/mod_orange/built-in.o
speed_step2                                       emodules/mod_orange/built-in.o
sqrt                                              /home/yuzuki/WorkSpace/melis-v3.0/melis-4.x-release/toolchain/riscv64-elf-x86_64-20201104/bin/../lib/gcc/riscv64-unknown-elf/8.4.0/../../../../riscv64-unknown-elf/lib/rv64imafdcxtheadc/lp64d/libm.a(lib_a-w_sqrt.o)
                                                  emodules/mod_orange/built-in.o
statfs                                            ./elibrary/bin/libsyscall.a(syscall_fops.o)
step_table                                        emodules/mod_orange/built-in.o
strcpy                                            /home/yuzuki/WorkSpace/melis-v3.0/melis-4.x-release/toolchain/riscv64-elf-x86_64-20201104/bin/../lib/gcc/riscv64-unknown-elf/8.4.0/../../../../riscv64-unknown-elf/lib/rv64imafdcxtheadc/lp64d/libc.a(lib_a-strcpy.o)
                                                  emodules/mod_orange/built-in.o
strlen                                            /home/yuzuki/WorkSpace/melis-v3.0/melis-4.x-release/toolchain/riscv64-elf-x86_64-20201104/bin/../lib/gcc/riscv64-unknown-elf/8.4.0/../../../../riscv64-unknown-elf/lib/rv64imafdcxtheadc/lp64d/libc.a(lib_a-strlen.o)
                                                  emodules/mod_orange/built-in.o
touchfocus_wnd                                    emodules/mod_orange/built-in.o
txtitem_Create                                    emodules/mod_orange/built-in.o
txtitem_Destroy                                   emodules/mod_orange/built-in.o
