Archive member included to satisfy reference by file (symbol)

./elibrary/bin//libsyscall.a(syscall.o)
                              livedesk/beetles/mod_desktop/mod_desktop.o (esCFG_GetKeyValue)
./elibrary/bin//libsyscall.a(syscall_fops.o)
                              livedesk/beetles/mod_desktop/engine/built-in.o (ioctl)
./elibrary/bin//libminic.a(elibs_stdio.o)
                              livedesk/beetles/mod_desktop/engine/built-in.o (eLIBs_fopen)
./elibrary/bin//libminic.a(elibs_stdlib.o)
                              livedesk/beetles/mod_desktop/engine/built-in.o (eLIBs_uint2str_dec)
./elibrary/bin//libminic.a(elibs_string.o)
                              livedesk/beetles/mod_desktop/functions/built-in.o (eLIBs_strlen)
./elibrary/bin//libminic.a(elibs_sprintf.o)
                              ./elibrary/bin//libminic.a(elibs_stdio.o) (eLIBs_vscnprintf)
./elibrary/bin//liblzma.a(az100.o)
                              livedesk/beetles/mod_desktop/functions/built-in.o (AZ100_IsCompress)
./elibrary/bin//liblzma.a(compress.o)
                              ./elibrary/bin//liblzma.a(az100.o) (AZ100_DataUncompress)
./elibrary/bin//liblzma.a(LzmaLib.o)
                              ./elibrary/bin//liblzma.a(compress.o) (LzmaUncompress)
./elibrary/bin//liblzma.a(LzmaDec.o)
                              ./elibrary/bin//liblzma.a(LzmaLib.o) (LzmaDecode)
./elibrary/bin//libcharset.a(elibs_charset.o)
                              livedesk/beetles/mod_desktop/engine/built-in.o (eLIBs_charset_convert)
./elibrary/bin//libmediainfo.a(elibs_mediainf.o)
                              livedesk/beetles/mod_desktop/engine/built-in.o (eLIBs_GetAudioFormat)
./elibrary/bin//libmediainfo.a(GetAudio_format.o)
                              ./elibrary/bin//libmediainfo.a(elibs_mediainf.o) (GetAudioFormat)
./elibrary/bin//libmediainfo.a(AudioInfo_WMA.o)
                              ./elibrary/bin//libmediainfo.a(GetAudio_format.o) (GetInfo_WMA)
./elibrary/bin//libmediainfo.a(AudioInfo_WAV.o)
                              ./elibrary/bin//libmediainfo.a(GetAudio_format.o) (GetInfo_WAV)
./elibrary/bin//libmediainfo.a(AudioInfo_RA.o)
                              ./elibrary/bin//libmediainfo.a(GetAudio_format.o) (GetInfo_RA)
./elibrary/bin//libmediainfo.a(AudioInfo_OGG.o)
                              ./elibrary/bin//libmediainfo.a(GetAudio_format.o) (GetInfo_OGG)
./elibrary/bin//libmediainfo.a(AudioInfo_MP3.o)
                              ./elibrary/bin//libmediainfo.a(GetAudio_format.o) (GetInfo_MP3)
./elibrary/bin//libmediainfo.a(AudioInfo_MID_timidity.o)
                              ./elibrary/bin//libmediainfo.a(GetAudio_format.o) (GetInfo_MID)
./elibrary/bin//libmediainfo.a(AudioInfo_FLAC.o)
                              ./elibrary/bin//libmediainfo.a(GetAudio_format.o) (GetInfo_FLAC)
./elibrary/bin//libmediainfo.a(AudioInfo_DTS.o)
                              ./elibrary/bin//libmediainfo.a(GetAudio_format.o) (GetInfo_DTS)
./elibrary/bin//libmediainfo.a(AudioInfo_DRA.o)
                              ./elibrary/bin//libmediainfo.a(GetAudio_format.o) (GetInfo_DRA)
./elibrary/bin//libmediainfo.a(AudioInfo_CAF.o)
                              ./elibrary/bin//libmediainfo.a(GetAudio_format.o) (GetInfo_CAF)
./elibrary/bin//libmediainfo.a(AudioInfo_ATRAC.o)
                              ./elibrary/bin//libmediainfo.a(GetAudio_format.o) (GetInfo_ATRAC)
./elibrary/bin//libmediainfo.a(AudioInfo_APE.o)
                              ./elibrary/bin//libmediainfo.a(GetAudio_format.o) (GetInfo_APE)
./elibrary/bin//libmediainfo.a(AudioInfo_AMR.o)
                              ./elibrary/bin//libmediainfo.a(GetAudio_format.o) (GetInfo_AMR)
./elibrary/bin//libmediainfo.a(AudioInfo_AC3.o)
                              ./elibrary/bin//libmediainfo.a(GetAudio_format.o) (GetInfo_AC3)
./elibrary/bin//libmediainfo.a(AudioInfo_AAC.o)
                              ./elibrary/bin//libmediainfo.a(GetAudio_format.o) (GetInfo_AAC)
./elibrary/bin//libmediainfo.a(bitstream.o)
                              ./elibrary/bin//libmediainfo.a(AudioInfo_WMA.o) (GetInfo_BsInit)
./elibrary/bin//libmediainfo.a(audio_fs_direct.o)
                              ./elibrary/bin//libmediainfo.a(GetAudio_format.o) (set_encrytp_mod)
./elibrary/bin//libmediainfo.a(Tag_XING.o)
                              ./elibrary/bin//libmediainfo.a(AudioInfo_MP3.o) (GetInfo_GETTAG_XING)
./elibrary/bin//libmediainfo.a(Tag_VBRI.o)
                              ./elibrary/bin//libmediainfo.a(AudioInfo_MP3.o) (GetInfo_GETTAG_VBRI)
./elibrary/bin//libmediainfo.a(Tag_OGG.o)
                              ./elibrary/bin//libmediainfo.a(AudioInfo_OGG.o) (GetInfo_oggStandardTag)
./elibrary/bin//libmediainfo.a(Tag_ID3.o)
                              ./elibrary/bin//libmediainfo.a(GetAudio_format.o) (GetInfo_GETID3_Len)
./elibrary/bin//libmediainfo.a(Tag_Enoding.o)
                              ./elibrary/bin//libmediainfo.a(Tag_ID3.o) (GetInfo_Language_encoding)
./elibrary/bin//libmediainfo.a(Tag_APE.o)
                              ./elibrary/bin//libmediainfo.a(AudioInfo_MP3.o) (GetInfo_APETAG)
/home/yuzuki/WorkSpace/melis-v3.0/melis-4.x-release/toolchain/riscv64-elf-x86_64-20201104/bin/../lib/gcc/riscv64-unknown-elf/8.4.0/../../../../riscv64-unknown-elf/lib/rv64imafdcxtheadc/lp64d/libc.a(lib_a-fclose.o)
                              livedesk/beetles/mod_desktop/functions/built-in.o (fclose)
/home/yuzuki/WorkSpace/melis-v3.0/melis-4.x-release/toolchain/riscv64-elf-x86_64-20201104/bin/../lib/gcc/riscv64-unknown-elf/8.4.0/../../../../riscv64-unknown-elf/lib/rv64imafdcxtheadc/lp64d/libc.a(lib_a-fflush.o)
                              /home/yuzuki/WorkSpace/melis-v3.0/melis-4.x-release/toolchain/riscv64-elf-x86_64-20201104/bin/../lib/gcc/riscv64-unknown-elf/8.4.0/../../../../riscv64-unknown-elf/lib/rv64imafdcxtheadc/lp64d/libc.a(lib_a-fclose.o) (__sflush_r)
/home/yuzuki/WorkSpace/melis-v3.0/melis-4.x-release/toolchain/riscv64-elf-x86_64-20201104/bin/../lib/gcc/riscv64-unknown-elf/8.4.0/../../../../riscv64-unknown-elf/lib/rv64imafdcxtheadc/lp64d/libc.a(lib_a-findfp.o)
                              /home/yuzuki/WorkSpace/melis-v3.0/melis-4.x-release/toolchain/riscv64-elf-x86_64-20201104/bin/../lib/gcc/riscv64-unknown-elf/8.4.0/../../../../riscv64-unknown-elf/lib/rv64imafdcxtheadc/lp64d/libc.a(lib_a-fclose.o) (__sinit)
/home/yuzuki/WorkSpace/melis-v3.0/melis-4.x-release/toolchain/riscv64-elf-x86_64-20201104/bin/../lib/gcc/riscv64-unknown-elf/8.4.0/../../../../riscv64-unknown-elf/lib/rv64imafdcxtheadc/lp64d/libc.a(lib_a-fopen.o)
                              livedesk/beetles/mod_desktop/functions/built-in.o (fopen)
/home/yuzuki/WorkSpace/melis-v3.0/melis-4.x-release/toolchain/riscv64-elf-x86_64-20201104/bin/../lib/gcc/riscv64-unknown-elf/8.4.0/../../../../riscv64-unknown-elf/lib/rv64imafdcxtheadc/lp64d/libc.a(lib_a-fseek.o)
                              /home/yuzuki/WorkSpace/melis-v3.0/melis-4.x-release/toolchain/riscv64-elf-x86_64-20201104/bin/../lib/gcc/riscv64-unknown-elf/8.4.0/../../../../riscv64-unknown-elf/lib/rv64imafdcxtheadc/lp64d/libc.a(lib_a-fopen.o) (_fseek_r)
/home/yuzuki/WorkSpace/melis-v3.0/melis-4.x-release/toolchain/riscv64-elf-x86_64-20201104/bin/../lib/gcc/riscv64-unknown-elf/8.4.0/../../../../riscv64-unknown-elf/lib/rv64imafdcxtheadc/lp64d/libc.a(lib_a-fseeko.o)
                              /home/yuzuki/WorkSpace/melis-v3.0/melis-4.x-release/toolchain/riscv64-elf-x86_64-20201104/bin/../lib/gcc/riscv64-unknown-elf/8.4.0/../../../../riscv64-unknown-elf/lib/rv64imafdcxtheadc/lp64d/libc.a(lib_a-fseek.o) (_fseeko_r)
/home/yuzuki/WorkSpace/melis-v3.0/melis-4.x-release/toolchain/riscv64-elf-x86_64-20201104/bin/../lib/gcc/riscv64-unknown-elf/8.4.0/../../../../riscv64-unknown-elf/lib/rv64imafdcxtheadc/lp64d/libc.a(lib_a-fwalk.o)
                              /home/yuzuki/WorkSpace/melis-v3.0/melis-4.x-release/toolchain/riscv64-elf-x86_64-20201104/bin/../lib/gcc/riscv64-unknown-elf/8.4.0/../../../../riscv64-unknown-elf/lib/rv64imafdcxtheadc/lp64d/libc.a(lib_a-findfp.o) (_fwalk)
/home/yuzuki/WorkSpace/melis-v3.0/melis-4.x-release/toolchain/riscv64-elf-x86_64-20201104/bin/../lib/gcc/riscv64-unknown-elf/8.4.0/../../../../riscv64-unknown-elf/lib/rv64imafdcxtheadc/lp64d/libc.a(lib_a-fwrite.o)
                              livedesk/beetles/mod_desktop/functions/built-in.o (fwrite)
/home/yuzuki/WorkSpace/melis-v3.0/melis-4.x-release/toolchain/riscv64-elf-x86_64-20201104/bin/../lib/gcc/riscv64-unknown-elf/8.4.0/../../../../riscv64-unknown-elf/lib/rv64imafdcxtheadc/lp64d/libc.a(lib_a-impure.o)
                              /home/yuzuki/WorkSpace/melis-v3.0/melis-4.x-release/toolchain/riscv64-elf-x86_64-20201104/bin/../lib/gcc/riscv64-unknown-elf/8.4.0/../../../../riscv64-unknown-elf/lib/rv64imafdcxtheadc/lp64d/libc.a(lib_a-fflush.o) (_global_impure_ptr)
/home/yuzuki/WorkSpace/melis-v3.0/melis-4.x-release/toolchain/riscv64-elf-x86_64-20201104/bin/../lib/gcc/riscv64-unknown-elf/8.4.0/../../../../riscv64-unknown-elf/lib/rv64imafdcxtheadc/lp64d/libc.a(lib_a-makebuf.o)
                              /home/yuzuki/WorkSpace/melis-v3.0/melis-4.x-release/toolchain/riscv64-elf-x86_64-20201104/bin/../lib/gcc/riscv64-unknown-elf/8.4.0/../../../../riscv64-unknown-elf/lib/rv64imafdcxtheadc/lp64d/libc.a(lib_a-fseeko.o) (__smakebuf_r)
/home/yuzuki/WorkSpace/melis-v3.0/melis-4.x-release/toolchain/riscv64-elf-x86_64-20201104/bin/../lib/gcc/riscv64-unknown-elf/8.4.0/../../../../riscv64-unknown-elf/lib/rv64imafdcxtheadc/lp64d/libc.a(lib_a-memcpy.o)
                              livedesk/beetles/mod_desktop/engine/built-in.o (memcpy)
/home/yuzuki/WorkSpace/melis-v3.0/melis-4.x-release/toolchain/riscv64-elf-x86_64-20201104/bin/../lib/gcc/riscv64-unknown-elf/8.4.0/../../../../riscv64-unknown-elf/lib/rv64imafdcxtheadc/lp64d/libc.a(lib_a-memset.o)
                              livedesk/beetles/mod_desktop/framework/built-in.o (memset)
/home/yuzuki/WorkSpace/melis-v3.0/melis-4.x-release/toolchain/riscv64-elf-x86_64-20201104/bin/../lib/gcc/riscv64-unknown-elf/8.4.0/../../../../riscv64-unknown-elf/lib/rv64imafdcxtheadc/lp64d/libc.a(lib_a-refill.o)
                              /home/yuzuki/WorkSpace/melis-v3.0/melis-4.x-release/toolchain/riscv64-elf-x86_64-20201104/bin/../lib/gcc/riscv64-unknown-elf/8.4.0/../../../../riscv64-unknown-elf/lib/rv64imafdcxtheadc/lp64d/libc.a(lib_a-fseeko.o) (__srefill_r)
/home/yuzuki/WorkSpace/melis-v3.0/melis-4.x-release/toolchain/riscv64-elf-x86_64-20201104/bin/../lib/gcc/riscv64-unknown-elf/8.4.0/../../../../riscv64-unknown-elf/lib/rv64imafdcxtheadc/lp64d/libc.a(lib_a-stdio.o)
                              /home/yuzuki/WorkSpace/melis-v3.0/melis-4.x-release/toolchain/riscv64-elf-x86_64-20201104/bin/../lib/gcc/riscv64-unknown-elf/8.4.0/../../../../riscv64-unknown-elf/lib/rv64imafdcxtheadc/lp64d/libc.a(lib_a-findfp.o) (__sread)
/home/yuzuki/WorkSpace/melis-v3.0/melis-4.x-release/toolchain/riscv64-elf-x86_64-20201104/bin/../lib/gcc/riscv64-unknown-elf/8.4.0/../../../../riscv64-unknown-elf/lib/rv64imafdcxtheadc/lp64d/libc.a(lib_a-strcat.o)
                              livedesk/beetles/mod_desktop/framework/built-in.o (strcat)
/home/yuzuki/WorkSpace/melis-v3.0/melis-4.x-release/toolchain/riscv64-elf-x86_64-20201104/bin/../lib/gcc/riscv64-unknown-elf/8.4.0/../../../../riscv64-unknown-elf/lib/rv64imafdcxtheadc/lp64d/libc.a(lib_a-strcmp.o)
                              livedesk/beetles/mod_desktop/framework/built-in.o (strcmp)
/home/yuzuki/WorkSpace/melis-v3.0/melis-4.x-release/toolchain/riscv64-elf-x86_64-20201104/bin/../lib/gcc/riscv64-unknown-elf/8.4.0/../../../../riscv64-unknown-elf/lib/rv64imafdcxtheadc/lp64d/libc.a(lib_a-strcpy.o)
                              livedesk/beetles/mod_desktop/framework/built-in.o (strcpy)
/home/yuzuki/WorkSpace/melis-v3.0/melis-4.x-release/toolchain/riscv64-elf-x86_64-20201104/bin/../lib/gcc/riscv64-unknown-elf/8.4.0/../../../../riscv64-unknown-elf/lib/rv64imafdcxtheadc/lp64d/libc.a(lib_a-strlen.o)
                              livedesk/beetles/mod_desktop/framework/built-in.o (strlen)
/home/yuzuki/WorkSpace/melis-v3.0/melis-4.x-release/toolchain/riscv64-elf-x86_64-20201104/bin/../lib/gcc/riscv64-unknown-elf/8.4.0/../../../../riscv64-unknown-elf/lib/rv64imafdcxtheadc/lp64d/libc.a(lib_a-strncmp.o)
                              ./elibrary/bin//libmediainfo.a(GetAudio_format.o) (strncmp)
/home/yuzuki/WorkSpace/melis-v3.0/melis-4.x-release/toolchain/riscv64-elf-x86_64-20201104/bin/../lib/gcc/riscv64-unknown-elf/8.4.0/../../../../riscv64-unknown-elf/lib/rv64imafdcxtheadc/lp64d/libc.a(lib_a-strncpy.o)
                              livedesk/beetles/mod_desktop/engine/built-in.o (strncpy)
/home/yuzuki/WorkSpace/melis-v3.0/melis-4.x-release/toolchain/riscv64-elf-x86_64-20201104/bin/../lib/gcc/riscv64-unknown-elf/8.4.0/../../../../riscv64-unknown-elf/lib/rv64imafdcxtheadc/lp64d/libc.a(lib_a-strstr.o)
                              livedesk/beetles/mod_desktop/framework/built-in.o (strstr)
/home/yuzuki/WorkSpace/melis-v3.0/melis-4.x-release/toolchain/riscv64-elf-x86_64-20201104/bin/../lib/gcc/riscv64-unknown-elf/8.4.0/../../../../riscv64-unknown-elf/lib/rv64imafdcxtheadc/lp64d/libc.a(lib_a-sysclose.o)
                              livedesk/beetles/mod_desktop/engine/built-in.o (close)
/home/yuzuki/WorkSpace/melis-v3.0/melis-4.x-release/toolchain/riscv64-elf-x86_64-20201104/bin/../lib/gcc/riscv64-unknown-elf/8.4.0/../../../../riscv64-unknown-elf/lib/rv64imafdcxtheadc/lp64d/libc.a(lib_a-sysopen.o)
                              livedesk/beetles/mod_desktop/engine/built-in.o (open)
/home/yuzuki/WorkSpace/melis-v3.0/melis-4.x-release/toolchain/riscv64-elf-x86_64-20201104/bin/../lib/gcc/riscv64-unknown-elf/8.4.0/../../../../riscv64-unknown-elf/lib/rv64imafdcxtheadc/lp64d/libc.a(lib_a-flags.o)
                              /home/yuzuki/WorkSpace/melis-v3.0/melis-4.x-release/toolchain/riscv64-elf-x86_64-20201104/bin/../lib/gcc/riscv64-unknown-elf/8.4.0/../../../../riscv64-unknown-elf/lib/rv64imafdcxtheadc/lp64d/libc.a(lib_a-fopen.o) (__sflags)
/home/yuzuki/WorkSpace/melis-v3.0/melis-4.x-release/toolchain/riscv64-elf-x86_64-20201104/bin/../lib/gcc/riscv64-unknown-elf/8.4.0/../../../../riscv64-unknown-elf/lib/rv64imafdcxtheadc/lp64d/libc.a(lib_a-fvwrite.o)
                              /home/yuzuki/WorkSpace/melis-v3.0/melis-4.x-release/toolchain/riscv64-elf-x86_64-20201104/bin/../lib/gcc/riscv64-unknown-elf/8.4.0/../../../../riscv64-unknown-elf/lib/rv64imafdcxtheadc/lp64d/libc.a(lib_a-fwrite.o) (__sfvwrite_r)
/home/yuzuki/WorkSpace/melis-v3.0/melis-4.x-release/toolchain/riscv64-elf-x86_64-20201104/bin/../lib/gcc/riscv64-unknown-elf/8.4.0/../../../../riscv64-unknown-elf/lib/rv64imafdcxtheadc/lp64d/libc.a(lib_a-memchr.o)
                              /home/yuzuki/WorkSpace/melis-v3.0/melis-4.x-release/toolchain/riscv64-elf-x86_64-20201104/bin/../lib/gcc/riscv64-unknown-elf/8.4.0/../../../../riscv64-unknown-elf/lib/rv64imafdcxtheadc/lp64d/libc.a(lib_a-strstr.o) (memchr)
/home/yuzuki/WorkSpace/melis-v3.0/melis-4.x-release/toolchain/riscv64-elf-x86_64-20201104/bin/../lib/gcc/riscv64-unknown-elf/8.4.0/../../../../riscv64-unknown-elf/lib/rv64imafdcxtheadc/lp64d/libc.a(lib_a-memcmp.o)
                              /home/yuzuki/WorkSpace/melis-v3.0/melis-4.x-release/toolchain/riscv64-elf-x86_64-20201104/bin/../lib/gcc/riscv64-unknown-elf/8.4.0/../../../../riscv64-unknown-elf/lib/rv64imafdcxtheadc/lp64d/libc.a(lib_a-strstr.o) (memcmp)
/home/yuzuki/WorkSpace/melis-v3.0/melis-4.x-release/toolchain/riscv64-elf-x86_64-20201104/bin/../lib/gcc/riscv64-unknown-elf/8.4.0/../../../../riscv64-unknown-elf/lib/rv64imafdcxtheadc/lp64d/libc.a(lib_a-memmove-stub.o)
                              /home/yuzuki/WorkSpace/melis-v3.0/melis-4.x-release/toolchain/riscv64-elf-x86_64-20201104/bin/../lib/gcc/riscv64-unknown-elf/8.4.0/../../../../riscv64-unknown-elf/lib/rv64imafdcxtheadc/lp64d/libc.a(lib_a-fvwrite.o) (memmove)
/home/yuzuki/WorkSpace/melis-v3.0/melis-4.x-release/toolchain/riscv64-elf-x86_64-20201104/bin/../lib/gcc/riscv64-unknown-elf/8.4.0/../../../../riscv64-unknown-elf/lib/rv64imafdcxtheadc/lp64d/libc.a(lib_a-strchr.o)
                              /home/yuzuki/WorkSpace/melis-v3.0/melis-4.x-release/toolchain/riscv64-elf-x86_64-20201104/bin/../lib/gcc/riscv64-unknown-elf/8.4.0/../../../../riscv64-unknown-elf/lib/rv64imafdcxtheadc/lp64d/libc.a(lib_a-strstr.o) (strchr)
/home/yuzuki/WorkSpace/melis-v3.0/melis-4.x-release/toolchain/riscv64-elf-x86_64-20201104/bin/../lib/gcc/riscv64-unknown-elf/8.4.0/../../../../riscv64-unknown-elf/lib/rv64imafdcxtheadc/lp64d/libc.a(lib_a-wsetup.o)
                              /home/yuzuki/WorkSpace/melis-v3.0/melis-4.x-release/toolchain/riscv64-elf-x86_64-20201104/bin/../lib/gcc/riscv64-unknown-elf/8.4.0/../../../../riscv64-unknown-elf/lib/rv64imafdcxtheadc/lp64d/libc.a(lib_a-fvwrite.o) (__swsetup_r)

Discarded input sections

 .text          0x0000000000000000        0x0 livedesk/beetles/mod_desktop/desktop_api.o
 .data          0x0000000000000000        0x0 livedesk/beetles/mod_desktop/desktop_api.o
 .bss           0x0000000000000000        0x0 livedesk/beetles/mod_desktop/desktop_api.o
 .text          0x0000000000000000        0x0 livedesk/beetles/mod_desktop/mod_desktop.o
 .data          0x0000000000000000        0x0 livedesk/beetles/mod_desktop/mod_desktop.o
 .bss           0x0000000000000000        0x0 livedesk/beetles/mod_desktop/mod_desktop.o
 .text          0x0000000000000000        0x0 livedesk/beetles/mod_desktop/magic.o
 .data          0x0000000000000000        0x0 livedesk/beetles/mod_desktop/magic.o
 .bss           0x0000000000000000        0x0 livedesk/beetles/mod_desktop/magic.o
 .text          0x0000000000000000        0x0 livedesk/beetles/mod_desktop/engine/built-in.o
 .text.dsk_misc_open_rtc_clk
                0x0000000000000000        0x4 livedesk/beetles/mod_desktop/engine/built-in.o
 .text.dsk_misc_close_rtc_clk
                0x0000000000000000        0x4 livedesk/beetles/mod_desktop/engine/built-in.o
 .text.dsk_radio_rcv_search_stop
                0x0000000000000000       0x1a livedesk/beetles/mod_desktop/engine/built-in.o
 .text.dek_radio_set_FM1_3_ID
                0x0000000000000000       0x32 livedesk/beetles/mod_desktop/engine/built-in.o
 .text.dek_radio_set_FM1_3
                0x0000000000000000       0x3a livedesk/beetles/mod_desktop/engine/built-in.o
 .text.dek_radio_get_FM1_3
                0x0000000000000000       0x1a livedesk/beetles/mod_desktop/engine/built-in.o
 .text.my_isdigit
                0x0000000000000000        0xe livedesk/beetles/mod_desktop/engine/built-in.o
 .text.__dsk_wkm_orchid_open
                0x0000000000000000       0x78 livedesk/beetles/mod_desktop/engine/built-in.o
 .text.__dsk_wkm_npl_create
                0x0000000000000000       0x88 livedesk/beetles/mod_desktop/engine/built-in.o
 .text.__dsk_wkm_npl_invalidate_item
                0x0000000000000000       0x3a livedesk/beetles/mod_desktop/engine/built-in.o
 .text.__dsk_wkm_npl_item_is_valid
                0x0000000000000000       0x34 livedesk/beetles/mod_desktop/engine/built-in.o
 .text.__dsk_wkm_npl_get_valid_count
                0x0000000000000000       0x2e livedesk/beetles/mod_desktop/engine/built-in.o
 .rodata.__dsk_wkm_npl_create.str1.8
                0x0000000000000000       0x3c livedesk/beetles/mod_desktop/engine/built-in.o
 .rodata.__func__.19938
                0x0000000000000000       0x16 livedesk/beetles/mod_desktop/engine/built-in.o
 .rodata.__func__.19947
                0x0000000000000000       0x15 livedesk/beetles/mod_desktop/engine/built-in.o
 .data          0x0000000000000000        0x0 livedesk/beetles/mod_desktop/engine/built-in.o
 .bss           0x0000000000000000        0x0 livedesk/beetles/mod_desktop/engine/built-in.o
 .bss.mid_wlo   0x0000000000000000        0x1 livedesk/beetles/mod_desktop/engine/built-in.o
 .text          0x0000000000000000        0x0 livedesk/beetles/mod_desktop/framework/built-in.o
 .text.activity_deinit
                0x0000000000000000       0x2c livedesk/beetles/mod_desktop/framework/built-in.o
 .data          0x0000000000000000        0x0 livedesk/beetles/mod_desktop/framework/built-in.o
 .bss           0x0000000000000000        0x0 livedesk/beetles/mod_desktop/framework/built-in.o
 .text          0x0000000000000000        0x0 livedesk/beetles/mod_desktop/functions/built-in.o
 .text.dsk_display_lcd_backlight_enable
                0x0000000000000000       0xe0 livedesk/beetles/mod_desktop/functions/built-in.o
 .text.pull_down_gpio
                0x0000000000000000       0x96 livedesk/beetles/mod_desktop/functions/built-in.o
 .text.pull_up_gpio
                0x0000000000000000       0x96 livedesk/beetles/mod_desktop/functions/built-in.o
 .rodata.dsk_display_lcd_backlight_enable.str1.8
                0x0000000000000000       0x35 livedesk/beetles/mod_desktop/functions/built-in.o
 .data          0x0000000000000000        0x0 livedesk/beetles/mod_desktop/functions/built-in.o
 .bss           0x0000000000000000        0x0 livedesk/beetles/mod_desktop/functions/built-in.o
 .text          0x0000000000000000        0x0 livedesk/beetles/mod_desktop/msg_srv/built-in.o
 .text.tp_msg_cb
                0x0000000000000000      0x254 livedesk/beetles/mod_desktop/msg_srv/built-in.o
 .text.msg_srv_init_tp_channel
                0x0000000000000000       0x76 livedesk/beetles/mod_desktop/msg_srv/built-in.o
 .text.msg_srv_deinit_tp_channel
                0x0000000000000000       0x84 livedesk/beetles/mod_desktop/msg_srv/built-in.o
 .rodata.__func__.19773
                0x0000000000000000       0x18 livedesk/beetles/mod_desktop/msg_srv/built-in.o
 .rodata.__func__.19812
                0x0000000000000000        0xa livedesk/beetles/mod_desktop/msg_srv/built-in.o
 .rodata.msg_srv_init_tp_channel.str1.8
                0x0000000000000000       0x43 livedesk/beetles/mod_desktop/msg_srv/built-in.o
 .data          0x0000000000000000        0x0 livedesk/beetles/mod_desktop/msg_srv/built-in.o
 .bss           0x0000000000000000        0x0 livedesk/beetles/mod_desktop/msg_srv/built-in.o
 .bss.last_touch_action
                0x0000000000000000        0x4 livedesk/beetles/mod_desktop/msg_srv/built-in.o
 .text          0x0000000000000000        0x0 livedesk/beetles/mod_desktop/util/built-in.o
 .text.eLIBs_language_name2enm
                0x0000000000000000       0x60 livedesk/beetles/mod_desktop/util/built-in.o
 .text.eLIBs_language_enm2name
                0x0000000000000000       0x66 livedesk/beetles/mod_desktop/util/built-in.o
 .rodata.language_map_tbl
                0x0000000000000000      0x2ca livedesk/beetles/mod_desktop/util/built-in.o
 .data          0x0000000000000000        0x0 livedesk/beetles/mod_desktop/util/built-in.o
 .bss           0x0000000000000000        0x0 livedesk/beetles/mod_desktop/util/built-in.o
 .text          0x0000000000000000        0x0 ./elibrary/bin//libsyscall.a(syscall.o)
 .data          0x0000000000000000        0x0 ./elibrary/bin//libsyscall.a(syscall.o)
 .bss           0x0000000000000000        0x0 ./elibrary/bin//libsyscall.a(syscall.o)
 .text.esCFG_Exit_Ex
                0x0000000000000000       0x18 ./elibrary/bin//libsyscall.a(syscall.o)
 .text.esCFG_GetGPIOSecData
                0x0000000000000000       0x18 ./elibrary/bin//libsyscall.a(syscall.o)
 .text.esCFG_GetGPIOSecData_Ex
                0x0000000000000000       0x18 ./elibrary/bin//libsyscall.a(syscall.o)
 .text.esCFG_GetGPIOSecKeyCount
                0x0000000000000000       0x18 ./elibrary/bin//libsyscall.a(syscall.o)
 .text.esCFG_GetGPIOSecKeyCount_Ex
                0x0000000000000000       0x18 ./elibrary/bin//libsyscall.a(syscall.o)
 .text.esCFG_GetKeyValue_Ex
                0x0000000000000000       0x18 ./elibrary/bin//libsyscall.a(syscall.o)
 .text.esCFG_GetSecCount
                0x0000000000000000       0x18 ./elibrary/bin//libsyscall.a(syscall.o)
 .text.esCFG_GetSecCount_Ex
                0x0000000000000000       0x18 ./elibrary/bin//libsyscall.a(syscall.o)
 .text.esCFG_GetSecKeyCount
                0x0000000000000000       0x18 ./elibrary/bin//libsyscall.a(syscall.o)
 .text.esCFG_GetSecKeyCount_Ex
                0x0000000000000000       0x18 ./elibrary/bin//libsyscall.a(syscall.o)
 .text.esCFG_Init_Ex
                0x0000000000000000       0x16 ./elibrary/bin//libsyscall.a(syscall.o)
 .text.esCHS_GetChLowerTbl
                0x0000000000000000       0x1c ./elibrary/bin//libsyscall.a(syscall.o)
 .text.esCHS_GetChUpperTbl
                0x0000000000000000       0x1c ./elibrary/bin//libsyscall.a(syscall.o)
 .text.esCLK_CloseMclk
                0x0000000000000000       0x1c ./elibrary/bin//libsyscall.a(syscall.o)
 .text.esCLK_GetMclkDiv
                0x0000000000000000       0x1c ./elibrary/bin//libsyscall.a(syscall.o)
 .text.esCLK_GetMclkSrc
                0x0000000000000000       0x1c ./elibrary/bin//libsyscall.a(syscall.o)
 .text.esCLK_GetRound_Rate
                0x0000000000000000       0x20 ./elibrary/bin//libsyscall.a(syscall.o)
 .text.esCLK_GetSrcFreq
                0x0000000000000000       0x1c ./elibrary/bin//libsyscall.a(syscall.o)
 .text.esCLK_MclkAssert
                0x0000000000000000       0x1c ./elibrary/bin//libsyscall.a(syscall.o)
 .text.esCLK_MclkDeassert
                0x0000000000000000       0x1c ./elibrary/bin//libsyscall.a(syscall.o)
 .text.esCLK_MclkGetRstStatus
                0x0000000000000000       0x1c ./elibrary/bin//libsyscall.a(syscall.o)
 .text.esCLK_MclkOnOff
                0x0000000000000000       0x20 ./elibrary/bin//libsyscall.a(syscall.o)
 .text.esCLK_MclkRegCb
                0x0000000000000000       0x1c ./elibrary/bin//libsyscall.a(syscall.o)
 .text.esCLK_MclkReset
                0x0000000000000000       0x1c ./elibrary/bin//libsyscall.a(syscall.o)
 .text.esCLK_MclkUnregCb
                0x0000000000000000       0x1c ./elibrary/bin//libsyscall.a(syscall.o)
 .text.esCLK_ModInfo
                0x0000000000000000       0x16 ./elibrary/bin//libsyscall.a(syscall.o)
 .text.esCLK_OpenMclk
                0x0000000000000000       0x1c ./elibrary/bin//libsyscall.a(syscall.o)
 .text.esCLK_SetMclkDiv
                0x0000000000000000       0x20 ./elibrary/bin//libsyscall.a(syscall.o)
 .text.esCLK_SetMclkSrc
                0x0000000000000000       0x20 ./elibrary/bin//libsyscall.a(syscall.o)
 .text.esCLK_SetSrcFreq
                0x0000000000000000       0x20 ./elibrary/bin//libsyscall.a(syscall.o)
 .text.esCLK_SysInfo
                0x0000000000000000       0x16 ./elibrary/bin//libsyscall.a(syscall.o)
 .text.esDEV_Close
                0x0000000000000000       0x18 ./elibrary/bin//libsyscall.a(syscall.o)
 .text.esDEV_DevReg
                0x0000000000000000       0x16 ./elibrary/bin//libsyscall.a(syscall.o)
 .text.esDEV_DevUnreg
                0x0000000000000000       0x18 ./elibrary/bin//libsyscall.a(syscall.o)
 .text.esDEV_Insmod
                0x0000000000000000       0x1c ./elibrary/bin//libsyscall.a(syscall.o)
 .text.esDEV_Ioctl
                0x0000000000000000       0x1c ./elibrary/bin//libsyscall.a(syscall.o)
 .text.esDEV_Lock
                0x0000000000000000       0x18 ./elibrary/bin//libsyscall.a(syscall.o)
 .text.esDEV_Open
                0x0000000000000000       0x1a ./elibrary/bin//libsyscall.a(syscall.o)
 .text.esDEV_Read
                0x0000000000000000       0x20 ./elibrary/bin//libsyscall.a(syscall.o)
 .text.esDEV_Unimod
                0x0000000000000000       0x1c ./elibrary/bin//libsyscall.a(syscall.o)
 .text.esDEV_Unlock
                0x0000000000000000       0x18 ./elibrary/bin//libsyscall.a(syscall.o)
 .text.esDEV_Write
                0x0000000000000000       0x20 ./elibrary/bin//libsyscall.a(syscall.o)
 .text.rt_device_register
                0x0000000000000000       0x16 ./elibrary/bin//libsyscall.a(syscall.o)
 .text.rt_device_unregister
                0x0000000000000000       0x16 ./elibrary/bin//libsyscall.a(syscall.o)
 .text.esDMA_ChangeMode
                0x0000000000000000       0x18 ./elibrary/bin//libsyscall.a(syscall.o)
 .text.esDMA_DisableINT
                0x0000000000000000       0x18 ./elibrary/bin//libsyscall.a(syscall.o)
 .text.esDMA_EnableINT
                0x0000000000000000       0x18 ./elibrary/bin//libsyscall.a(syscall.o)
 .text.esDMA_Information
                0x0000000000000000       0x16 ./elibrary/bin//libsyscall.a(syscall.o)
 .text.esDMA_QueryDst
                0x0000000000000000       0x16 ./elibrary/bin//libsyscall.a(syscall.o)
 .text.esDMA_QueryRestCount
                0x0000000000000000       0x16 ./elibrary/bin//libsyscall.a(syscall.o)
 .text.esDMA_QuerySrc
                0x0000000000000000       0x16 ./elibrary/bin//libsyscall.a(syscall.o)
 .text.esDMA_QueryStat
                0x0000000000000000       0x1a ./elibrary/bin//libsyscall.a(syscall.o)
 .text.esDMA_RegDmaHdler
                0x0000000000000000       0x18 ./elibrary/bin//libsyscall.a(syscall.o)
 .text.esDMA_Release
                0x0000000000000000       0x18 ./elibrary/bin//libsyscall.a(syscall.o)
 .text.esDMA_Request
                0x0000000000000000       0x16 ./elibrary/bin//libsyscall.a(syscall.o)
 .text.esDMA_Restart
                0x0000000000000000       0x18 ./elibrary/bin//libsyscall.a(syscall.o)
 .text.esDMA_Setting
                0x0000000000000000       0x18 ./elibrary/bin//libsyscall.a(syscall.o)
 .text.esDMA_Start
                0x0000000000000000       0x18 ./elibrary/bin//libsyscall.a(syscall.o)
 .text.esDMA_Stop
                0x0000000000000000       0x18 ./elibrary/bin//libsyscall.a(syscall.o)
 .text.esDMA_UnregDmaHdler
                0x0000000000000000       0x18 ./elibrary/bin//libsyscall.a(syscall.o)
 .text.esEXEC_PCreate
                0x0000000000000000       0x1e ./elibrary/bin//libsyscall.a(syscall.o)
 .text.esEXEC_PDel
                0x0000000000000000       0x1a ./elibrary/bin//libsyscall.a(syscall.o)
 .text.esEXEC_PDelReq
                0x0000000000000000       0x1a ./elibrary/bin//libsyscall.a(syscall.o)
 .text.esEXEC_Run
                0x0000000000000000       0x1e ./elibrary/bin//libsyscall.a(syscall.o)
 .text.esFSYS_clearpartupdateflag
                0x0000000000000000       0x18 ./elibrary/bin//libsyscall.a(syscall.o)
 .text.esFSYS_fd2file
                0x0000000000000000       0x16 ./elibrary/bin//libsyscall.a(syscall.o)
 .text.esFSYS_ferrclr
                0x0000000000000000       0x16 ./elibrary/bin//libsyscall.a(syscall.o)
 .text.esFSYS_ferror
                0x0000000000000000       0x18 ./elibrary/bin//libsyscall.a(syscall.o)
 .text.esFSYS_file2fd
                0x0000000000000000       0x18 ./elibrary/bin//libsyscall.a(syscall.o)
 .text.esFSYS_fioctrl
                0x0000000000000000       0x18 ./elibrary/bin//libsyscall.a(syscall.o)
 .text.esFSYS_fsdbg
                0x0000000000000000       0x18 ./elibrary/bin//libsyscall.a(syscall.o)
 .text.esFSYS_fsreg
                0x0000000000000000       0x18 ./elibrary/bin//libsyscall.a(syscall.o)
 .text.esFSYS_fsunreg
                0x0000000000000000       0x18 ./elibrary/bin//libsyscall.a(syscall.o)
 .text.esFSYS_ftruncate
                0x0000000000000000       0x1c ./elibrary/bin//libsyscall.a(syscall.o)
 .text.esFSYS_mkdir
                0x0000000000000000       0x18 ./elibrary/bin//libsyscall.a(syscall.o)
 .text.esFSYS_mntfs
                0x0000000000000000       0x18 ./elibrary/bin//libsyscall.a(syscall.o)
 .text.esFSYS_mntparts
                0x0000000000000000       0x18 ./elibrary/bin//libsyscall.a(syscall.o)
 .text.esFSYS_open
                0x0000000000000000       0x18 ./elibrary/bin//libsyscall.a(syscall.o)
 .text.esFSYS_partfslck
                0x0000000000000000       0x18 ./elibrary/bin//libsyscall.a(syscall.o)
 .text.esFSYS_partfsunlck
                0x0000000000000000       0x18 ./elibrary/bin//libsyscall.a(syscall.o)
 .text.esFSYS_pclose
                0x0000000000000000       0x18 ./elibrary/bin//libsyscall.a(syscall.o)
 .text.esFSYS_pdreg
                0x0000000000000000       0x18 ./elibrary/bin//libsyscall.a(syscall.o)
 .text.esFSYS_pdunreg
                0x0000000000000000       0x18 ./elibrary/bin//libsyscall.a(syscall.o)
 .text.esFSYS_perrclr
                0x0000000000000000       0x16 ./elibrary/bin//libsyscall.a(syscall.o)
 .text.esFSYS_perror
                0x0000000000000000       0x18 ./elibrary/bin//libsyscall.a(syscall.o)
 .text.esFSYS_pioctrl
                0x0000000000000000       0x1c ./elibrary/bin//libsyscall.a(syscall.o)
 .text.esFSYS_popen
                0x0000000000000000       0x16 ./elibrary/bin//libsyscall.a(syscall.o)
 .text.esFSYS_pread
                0x0000000000000000       0x20 ./elibrary/bin//libsyscall.a(syscall.o)
 .text.esFSYS_premove
                0x0000000000000000       0x18 ./elibrary/bin//libsyscall.a(syscall.o)
 .text.esFSYS_prename
                0x0000000000000000       0x18 ./elibrary/bin//libsyscall.a(syscall.o)
 .text.esFSYS_pwrite
                0x0000000000000000       0x20 ./elibrary/bin//libsyscall.a(syscall.o)
 .text.esFSYS_querypartupdateflag
                0x0000000000000000       0x18 ./elibrary/bin//libsyscall.a(syscall.o)
 .text.esFSYS_remove
                0x0000000000000000       0x18 ./elibrary/bin//libsyscall.a(syscall.o)
 .text.esFSYS_rename
                0x0000000000000000       0x18 ./elibrary/bin//libsyscall.a(syscall.o)
 .text.esFSYS_rewinddir
                0x0000000000000000       0x16 ./elibrary/bin//libsyscall.a(syscall.o)
 .text.esFSYS_rmdir
                0x0000000000000000       0x18 ./elibrary/bin//libsyscall.a(syscall.o)
 .text.esFSYS_statfs
                0x0000000000000000       0x1c ./elibrary/bin//libsyscall.a(syscall.o)
 .text.esFSYS_umntfs
                0x0000000000000000       0x18 ./elibrary/bin//libsyscall.a(syscall.o)
 .text.esFSYS_umntparts
                0x0000000000000000       0x1c ./elibrary/bin//libsyscall.a(syscall.o)
 .text.esHID_hiddevreg
                0x0000000000000000       0x18 ./elibrary/bin//libsyscall.a(syscall.o)
 .text.esHID_hiddevunreg
                0x0000000000000000       0x1c ./elibrary/bin//libsyscall.a(syscall.o)
 .text.esHID_SendMsg
                0x0000000000000000       0x1c ./elibrary/bin//libsyscall.a(syscall.o)
 .text.esINPUT_LdevFeedback
                0x0000000000000000       0x18 ./elibrary/bin//libsyscall.a(syscall.o)
 .text.esINPUT_RegDev
                0x0000000000000000       0x18 ./elibrary/bin//libsyscall.a(syscall.o)
 .text.esINPUT_SendEvent
                0x0000000000000000       0x20 ./elibrary/bin//libsyscall.a(syscall.o)
 .text.esINPUT_UnregDev
                0x0000000000000000       0x18 ./elibrary/bin//libsyscall.a(syscall.o)
 .text.esINT_DisableINT
                0x0000000000000000       0x1c ./elibrary/bin//libsyscall.a(syscall.o)
 .text.esINT_EnableINT
                0x0000000000000000       0x1c ./elibrary/bin//libsyscall.a(syscall.o)
 .text.esINT_InsFIR
                0x0000000000000000       0x1c ./elibrary/bin//libsyscall.a(syscall.o)
 .text.esINT_InsISR
                0x0000000000000000       0x1c ./elibrary/bin//libsyscall.a(syscall.o)
 .text.esINT_SetIRQPrio
                0x0000000000000000       0x20 ./elibrary/bin//libsyscall.a(syscall.o)
 .text.esINT_UniFIR
                0x0000000000000000       0x1c ./elibrary/bin//libsyscall.a(syscall.o)
 .text.esINT_UniISR
                0x0000000000000000       0x1c ./elibrary/bin//libsyscall.a(syscall.o)
 .text.esKRNL_DumpStack
                0x0000000000000000       0x16 ./elibrary/bin//libsyscall.a(syscall.o)
 .text.esKRNL_FlagAccept
                0x0000000000000000       0x1c ./elibrary/bin//libsyscall.a(syscall.o)
 .text.esKRNL_FlagCreate
                0x0000000000000000       0x1a ./elibrary/bin//libsyscall.a(syscall.o)
 .text.esKRNL_FlagDel
                0x0000000000000000       0x16 ./elibrary/bin//libsyscall.a(syscall.o)
 .text.esKRNL_FlagNameGet
                0x0000000000000000       0x1a ./elibrary/bin//libsyscall.a(syscall.o)
 .text.esKRNL_FlagNameSet
                0x0000000000000000       0x16 ./elibrary/bin//libsyscall.a(syscall.o)
 .text.esKRNL_FlagPend
                0x0000000000000000       0x20 ./elibrary/bin//libsyscall.a(syscall.o)
 .text.esKRNL_FlagPendGetFlagsRdy
                0x0000000000000000       0x18 ./elibrary/bin//libsyscall.a(syscall.o)
 .text.esKRNL_FlagPost
                0x0000000000000000       0x1c ./elibrary/bin//libsyscall.a(syscall.o)
 .text.esKRNL_FlagQuery
                0x0000000000000000       0x18 ./elibrary/bin//libsyscall.a(syscall.o)
 .text.esKRNL_GetCallBack
                0x0000000000000000       0x16 ./elibrary/bin//libsyscall.a(syscall.o)
 .text.esKRNL_GetTIDCur
                0x0000000000000000       0x16 ./elibrary/bin//libsyscall.a(syscall.o)
 .text.esKRNL_InterruptDisable
                0x0000000000000000       0x16 ./elibrary/bin//libsyscall.a(syscall.o)
 .text.esKRNL_InterruptEnable
                0x0000000000000000       0x16 ./elibrary/bin//libsyscall.a(syscall.o)
 .text.esKRNL_MboxAccept
                0x0000000000000000       0x16 ./elibrary/bin//libsyscall.a(syscall.o)
 .text.esKRNL_MboxCreate
                0x0000000000000000       0x1a ./elibrary/bin//libsyscall.a(syscall.o)
 .text.esKRNL_MboxDel
                0x0000000000000000       0x16 ./elibrary/bin//libsyscall.a(syscall.o)
 .text.esKRNL_MboxPend
                0x0000000000000000       0x18 ./elibrary/bin//libsyscall.a(syscall.o)
 .text.esKRNL_MboxPost
                0x0000000000000000       0x1a ./elibrary/bin//libsyscall.a(syscall.o)
 .text.esKRNL_MboxPostOpt
                0x0000000000000000       0x1e ./elibrary/bin//libsyscall.a(syscall.o)
 .text.esKRNL_MboxQuery
                0x0000000000000000       0x1a ./elibrary/bin//libsyscall.a(syscall.o)
 .text.esKRNL_MemLeakChk
                0x0000000000000000       0x1a ./elibrary/bin//libsyscall.a(syscall.o)
 .text.esKRNL_MutexCreate
                0x0000000000000000       0x16 ./elibrary/bin//libsyscall.a(syscall.o)
 .text.esKRNL_MutexDel
                0x0000000000000000       0x16 ./elibrary/bin//libsyscall.a(syscall.o)
 .text.esKRNL_MutexPend
                0x0000000000000000       0x16 ./elibrary/bin//libsyscall.a(syscall.o)
 .text.esKRNL_MutexPost
                0x0000000000000000       0x1a ./elibrary/bin//libsyscall.a(syscall.o)
 .text.esKRNL_QPend
                0x0000000000000000       0x16 ./elibrary/bin//libsyscall.a(syscall.o)
 .text.esKRNL_QPostFront
                0x0000000000000000       0x1a ./elibrary/bin//libsyscall.a(syscall.o)
 .text.esKRNL_QPostOpt
                0x0000000000000000       0x1a ./elibrary/bin//libsyscall.a(syscall.o)
 .text.esKRNL_QQuery
                0x0000000000000000       0x1a ./elibrary/bin//libsyscall.a(syscall.o)
 .text.esKRNL_SchedLock
                0x0000000000000000       0x16 ./elibrary/bin//libsyscall.a(syscall.o)
 .text.esKRNL_SchedUnlock
                0x0000000000000000       0x16 ./elibrary/bin//libsyscall.a(syscall.o)
 .text.esKRNL_SemAccept
                0x0000000000000000       0x1a ./elibrary/bin//libsyscall.a(syscall.o)
 .text.esKRNL_SemSet
                0x0000000000000000       0x16 ./elibrary/bin//libsyscall.a(syscall.o)
 .text.esKRNL_SktAccept
                0x0000000000000000       0x16 ./elibrary/bin//libsyscall.a(syscall.o)
 .text.esKRNL_SktCreate
                0x0000000000000000       0x22 ./elibrary/bin//libsyscall.a(syscall.o)
 .text.esKRNL_SktDel
                0x0000000000000000       0x18 ./elibrary/bin//libsyscall.a(syscall.o)
 .text.esKRNL_SktPend
                0x0000000000000000       0x1a ./elibrary/bin//libsyscall.a(syscall.o)
 .text.esKRNL_SktPost
                0x0000000000000000       0x18 ./elibrary/bin//libsyscall.a(syscall.o)
 .text.esKRNL_TaskPrefEn
                0x0000000000000000       0x1a ./elibrary/bin//libsyscall.a(syscall.o)
 .text.esKRNL_TaskQuery
                0x0000000000000000       0x1e ./elibrary/bin//libsyscall.a(syscall.o)
 .text.esKRNL_TaskResume
                0x0000000000000000       0x1e ./elibrary/bin//libsyscall.a(syscall.o)
 .text.esKRNL_TaskSuspend
                0x0000000000000000       0x1e ./elibrary/bin//libsyscall.a(syscall.o)
 .text.esKRNL_Time
                0x0000000000000000       0x18 ./elibrary/bin//libsyscall.a(syscall.o)
 .text.esKRNL_TimeDlyResume
                0x0000000000000000       0x1e ./elibrary/bin//libsyscall.a(syscall.o)
 .text.esKRNL_TimeGet
                0x0000000000000000       0x18 ./elibrary/bin//libsyscall.a(syscall.o)
 .text.esKRNL_TimeSet
                0x0000000000000000       0x1a ./elibrary/bin//libsyscall.a(syscall.o)
 .text.esKRNL_TmrCreate
                0x0000000000000000       0x1a ./elibrary/bin//libsyscall.a(syscall.o)
 .text.esKRNL_TmrDel
                0x0000000000000000       0x18 ./elibrary/bin//libsyscall.a(syscall.o)
 .text.esKRNL_TmrError
                0x0000000000000000       0x1a ./elibrary/bin//libsyscall.a(syscall.o)
 .text.esKRNL_TmrRemainGet
                0x0000000000000000       0x18 ./elibrary/bin//libsyscall.a(syscall.o)
 .text.esKRNL_TmrStart
                0x0000000000000000       0x18 ./elibrary/bin//libsyscall.a(syscall.o)
 .text.esKRNL_TmrStateGet
                0x0000000000000000       0x1a ./elibrary/bin//libsyscall.a(syscall.o)
 .text.esKRNL_TmrStop
                0x0000000000000000       0x18 ./elibrary/bin//libsyscall.a(syscall.o)
 .text.esKRNL_Version
                0x0000000000000000       0x1a ./elibrary/bin//libsyscall.a(syscall.o)
 .text.esKSRV_ClearWatchDog
                0x0000000000000000       0x18 ./elibrary/bin//libsyscall.a(syscall.o)
 .text.esKSRV_DisableWatchDog
                0x0000000000000000       0x18 ./elibrary/bin//libsyscall.a(syscall.o)
 .text.esKSRV_DisableWatchDogSrv
                0x0000000000000000       0x18 ./elibrary/bin//libsyscall.a(syscall.o)
 .text.esKSRV_EnableWatchDog
                0x0000000000000000       0x18 ./elibrary/bin//libsyscall.a(syscall.o)
 .text.esKSRV_EnableWatchDogSrv
                0x0000000000000000       0x18 ./elibrary/bin//libsyscall.a(syscall.o)
 .text.esKSRV_GetAddPara
                0x0000000000000000       0x18 ./elibrary/bin//libsyscall.a(syscall.o)
 .text.esKSRV_GetDramCfgPara
                0x0000000000000000       0x18 ./elibrary/bin//libsyscall.a(syscall.o)
 .text.esKSRV_GetHighMsg
                0x0000000000000000       0x16 ./elibrary/bin//libsyscall.a(syscall.o)
 .text.esKSRV_GetLowMsg
                0x0000000000000000       0x16 ./elibrary/bin//libsyscall.a(syscall.o)
 .text.esKSRV_GetPara
                0x0000000000000000       0x1c ./elibrary/bin//libsyscall.a(syscall.o)
 .text.esKSRV_GetSocID
                0x0000000000000000       0x1a ./elibrary/bin//libsyscall.a(syscall.o)
 .text.esKSRV_GetTargetPara
                0x0000000000000000       0x18 ./elibrary/bin//libsyscall.a(syscall.o)
 .text.esKSRV_GetVersion
                0x0000000000000000       0x18 ./elibrary/bin//libsyscall.a(syscall.o)
 .text.esKSRV_Save_Mixture_Hld
                0x0000000000000000       0x16 ./elibrary/bin//libsyscall.a(syscall.o)
 .text.esKSRV_Get_Mixture_Hld
                0x0000000000000000       0x16 ./elibrary/bin//libsyscall.a(syscall.o)
 .text.esKSRV_memcpy
                0x0000000000000000       0x18 ./elibrary/bin//libsyscall.a(syscall.o)
 .text.esKSRV_memset
                0x0000000000000000       0x18 ./elibrary/bin//libsyscall.a(syscall.o)
 .text.esKSRV_PowerOff
                0x0000000000000000       0x16 ./elibrary/bin//libsyscall.a(syscall.o)
 .text.esKSRV_Random
                0x0000000000000000       0x1c ./elibrary/bin//libsyscall.a(syscall.o)
 .text.esKSRV_Reset
                0x0000000000000000       0x16 ./elibrary/bin//libsyscall.a(syscall.o)
 .text.esKSRV_Save_Display_Hld
                0x0000000000000000       0x16 ./elibrary/bin//libsyscall.a(syscall.o)
 .text.esKSRV_SendMsg
                0x0000000000000000       0x20 ./elibrary/bin//libsyscall.a(syscall.o)
 .text.esKSRV_SendMsgEx
                0x0000000000000000       0x18 ./elibrary/bin//libsyscall.a(syscall.o)
 .text.esKSRV_SysInfo
                0x0000000000000000       0x18 ./elibrary/bin//libsyscall.a(syscall.o)
 .text.esMEMS_Calloc
                0x0000000000000000       0x1e ./elibrary/bin//libsyscall.a(syscall.o)
 .text.esMEMS_CleanDCache
                0x0000000000000000       0x16 ./elibrary/bin//libsyscall.a(syscall.o)
 .text.esMEMS_CleanDCacheRegion
                0x0000000000000000       0x1a ./elibrary/bin//libsyscall.a(syscall.o)
 .text.esMEMS_CleanFlushCache
                0x0000000000000000       0x16 ./elibrary/bin//libsyscall.a(syscall.o)
 .text.esMEMS_CleanFlushCacheRegion
                0x0000000000000000       0x1a ./elibrary/bin//libsyscall.a(syscall.o)
 .text.esMEMS_CleanFlushDCache
                0x0000000000000000       0x16 ./elibrary/bin//libsyscall.a(syscall.o)
 .text.esMEMS_CleanFlushDCacheRegion
                0x0000000000000000       0x1a ./elibrary/bin//libsyscall.a(syscall.o)
 .text.esMEMS_CleanInvalidateCacheAll
                0x0000000000000000       0x16 ./elibrary/bin//libsyscall.a(syscall.o)
 .text.esMEMS_FlushCache
                0x0000000000000000       0x16 ./elibrary/bin//libsyscall.a(syscall.o)
 .text.esMEMS_FlushCacheRegion
                0x0000000000000000       0x1a ./elibrary/bin//libsyscall.a(syscall.o)
 .text.esMEMS_FlushDCache
                0x0000000000000000       0x16 ./elibrary/bin//libsyscall.a(syscall.o)
 .text.esMEMS_FlushDCacheRegion
                0x0000000000000000       0x1a ./elibrary/bin//libsyscall.a(syscall.o)
 .text.esMEMS_FlushICache
                0x0000000000000000       0x16 ./elibrary/bin//libsyscall.a(syscall.o)
 .text.esMEMS_FlushICacheRegion
                0x0000000000000000       0x1a ./elibrary/bin//libsyscall.a(syscall.o)
 .text.esMEMS_FreeMemSize
                0x0000000000000000       0x18 ./elibrary/bin//libsyscall.a(syscall.o)
 .text.esMEMS_GetIoVAByPA
                0x0000000000000000       0x1c ./elibrary/bin//libsyscall.a(syscall.o)
 .text.esMEMS_HeapCreate
                0x0000000000000000       0x1c ./elibrary/bin//libsyscall.a(syscall.o)
 .text.esMEMS_HeapDel
                0x0000000000000000       0x16 ./elibrary/bin//libsyscall.a(syscall.o)
 .text.esMEMS_Info
                0x0000000000000000       0x18 ./elibrary/bin//libsyscall.a(syscall.o)
 .text.esMEMS_Palloc
                0x0000000000000000       0x1e ./elibrary/bin//libsyscall.a(syscall.o)
 .text.esMEMS_Pfree
                0x0000000000000000       0x1a ./elibrary/bin//libsyscall.a(syscall.o)
 .text.esMEMS_TotalMemSize
                0x0000000000000000       0x18 ./elibrary/bin//libsyscall.a(syscall.o)
 .text.esMEMS_VA2PA
                0x0000000000000000       0x16 ./elibrary/bin//libsyscall.a(syscall.o)
 .text.esMEMS_VMalloc
                0x0000000000000000       0x16 ./elibrary/bin//libsyscall.a(syscall.o)
 .text.esMEMS_VMCreate
                0x0000000000000000       0x1c ./elibrary/bin//libsyscall.a(syscall.o)
 .text.esMEMS_VMDelete
                0x0000000000000000       0x1a ./elibrary/bin//libsyscall.a(syscall.o)
 .text.esMEMS_VMfree
                0x0000000000000000       0x16 ./elibrary/bin//libsyscall.a(syscall.o)
 .text.esMEM_BWDisable
                0x0000000000000000       0x18 ./elibrary/bin//libsyscall.a(syscall.o)
 .text.esMEM_BWEnable
                0x0000000000000000       0x18 ./elibrary/bin//libsyscall.a(syscall.o)
 .text.esMEM_BWGet
                0x0000000000000000       0x18 ./elibrary/bin//libsyscall.a(syscall.o)
 .text.esMEM_DramSuspend
                0x0000000000000000       0x18 ./elibrary/bin//libsyscall.a(syscall.o)
 .text.esMEM_DramWakeup
                0x0000000000000000       0x18 ./elibrary/bin//libsyscall.a(syscall.o)
 .text.esMEM_MasterGet
                0x0000000000000000       0x18 ./elibrary/bin//libsyscall.a(syscall.o)
 .text.esMEM_MasterSet
                0x0000000000000000       0x18 ./elibrary/bin//libsyscall.a(syscall.o)
 .text.esMEM_RegDramAccess
                0x0000000000000000       0x16 ./elibrary/bin//libsyscall.a(syscall.o)
 .text.esMEM_ReleaseDramUsrMode
                0x0000000000000000       0x18 ./elibrary/bin//libsyscall.a(syscall.o)
 .text.esMEM_RequestDramUsrMode
                0x0000000000000000       0x18 ./elibrary/bin//libsyscall.a(syscall.o)
 .text.esMEM_SramRelBlk
                0x0000000000000000       0x18 ./elibrary/bin//libsyscall.a(syscall.o)
 .text.esMEM_SramReqBlk
                0x0000000000000000       0x16 ./elibrary/bin//libsyscall.a(syscall.o)
 .text.esMEM_SramSwitchBlk
                0x0000000000000000       0x18 ./elibrary/bin//libsyscall.a(syscall.o)
 .text.esMEM_UnRegDramAccess
                0x0000000000000000       0x18 ./elibrary/bin//libsyscall.a(syscall.o)
 .text.esMODS_MRead
                0x0000000000000000       0x20 ./elibrary/bin//libsyscall.a(syscall.o)
 .text.esMODS_MWrite
                0x0000000000000000       0x20 ./elibrary/bin//libsyscall.a(syscall.o)
 .text.esMSTUB_GetFuncEntry
                0x0000000000000000       0x1e ./elibrary/bin//libsyscall.a(syscall.o)
 .text.esMSTUB_RegFuncTbl
                0x0000000000000000       0x18 ./elibrary/bin//libsyscall.a(syscall.o)
 .text.esMSTUB_UnRegFuncTbl
                0x0000000000000000       0x18 ./elibrary/bin//libsyscall.a(syscall.o)
 .text.esPINS_ClearPending
                0x0000000000000000       0x16 ./elibrary/bin//libsyscall.a(syscall.o)
 .text.esPINS_DisbaleInt
                0x0000000000000000       0x16 ./elibrary/bin//libsyscall.a(syscall.o)
 .text.esPINS_EnbaleInt
                0x0000000000000000       0x16 ./elibrary/bin//libsyscall.a(syscall.o)
 .text.esPINS_GetPinGrpStat
                0x0000000000000000       0x1a ./elibrary/bin//libsyscall.a(syscall.o)
 .text.esPINS_GetPinStat
                0x0000000000000000       0x16 ./elibrary/bin//libsyscall.a(syscall.o)
 .text.esPINS_PinGrpRel
                0x0000000000000000       0x16 ./elibrary/bin//libsyscall.a(syscall.o)
 .text.esPINS_QueryInt
                0x0000000000000000       0x16 ./elibrary/bin//libsyscall.a(syscall.o)
 .text.esPINS_RegIntHdler
                0x0000000000000000       0x16 ./elibrary/bin//libsyscall.a(syscall.o)
 .text.esPINS_SetIntMode
                0x0000000000000000       0x1a ./elibrary/bin//libsyscall.a(syscall.o)
 .text.esPINS_SetPinDrive
                0x0000000000000000       0x1a ./elibrary/bin//libsyscall.a(syscall.o)
 .text.esPINS_SetPinIO
                0x0000000000000000       0x16 ./elibrary/bin//libsyscall.a(syscall.o)
 .text.esPINS_SetPinPull
                0x0000000000000000       0x1a ./elibrary/bin//libsyscall.a(syscall.o)
 .text.esPINS_SetPinStat
                0x0000000000000000       0x16 ./elibrary/bin//libsyscall.a(syscall.o)
 .text.esPINS_UnregIntHdler
                0x0000000000000000       0x16 ./elibrary/bin//libsyscall.a(syscall.o)
 .text.esPWRMAN_EnterStandby
                0x0000000000000000       0x1a ./elibrary/bin//libsyscall.a(syscall.o)
 .text.esPWRMAN_GetStandbyPara
                0x0000000000000000       0x18 ./elibrary/bin//libsyscall.a(syscall.o)
 .text.esPWRMAN_LockCpuFreq
                0x0000000000000000       0x18 ./elibrary/bin//libsyscall.a(syscall.o)
 .text.esPWRMAN_RegDevice
                0x0000000000000000       0x18 ./elibrary/bin//libsyscall.a(syscall.o)
 .text.esPWRMAN_RelPwrmanMode
                0x0000000000000000       0x18 ./elibrary/bin//libsyscall.a(syscall.o)
 .text.esPWRMAN_ReqPwrmanMode
                0x0000000000000000       0x18 ./elibrary/bin//libsyscall.a(syscall.o)
 .text.esPWRMAN_SetStandbyMode
                0x0000000000000000       0x1c ./elibrary/bin//libsyscall.a(syscall.o)
 .text.esPWRMAN_UnlockCpuFreq
                0x0000000000000000       0x18 ./elibrary/bin//libsyscall.a(syscall.o)
 .text.esPWRMAN_UnregDevice
                0x0000000000000000       0x18 ./elibrary/bin//libsyscall.a(syscall.o)
 .text.esPWRMAN_UsrEventNotify
                0x0000000000000000       0x16 ./elibrary/bin//libsyscall.a(syscall.o)
 .text.esRESM_RClose
                0x0000000000000000       0x18 ./elibrary/bin//libsyscall.a(syscall.o)
 .text.esRESM_ROpen
                0x0000000000000000       0x16 ./elibrary/bin//libsyscall.a(syscall.o)
 .text.esRESM_RRead
                0x0000000000000000       0x20 ./elibrary/bin//libsyscall.a(syscall.o)
 .text.esRESM_RSeek
                0x0000000000000000       0x18 ./elibrary/bin//libsyscall.a(syscall.o)
 .text.esSIOS_getchar
                0x0000000000000000       0x16 ./elibrary/bin//libsyscall.a(syscall.o)
 .text.esSIOS_gets
                0x0000000000000000       0x14 ./elibrary/bin//libsyscall.a(syscall.o)
 .text.esSIOS_putarg
                0x0000000000000000       0x18 ./elibrary/bin//libsyscall.a(syscall.o)
 .text.esSIOS_setbaud
                0x0000000000000000       0x18 ./elibrary/bin//libsyscall.a(syscall.o)
 .text.esSVC_RegCloseNode
                0x0000000000000000       0x18 ./elibrary/bin//libsyscall.a(syscall.o)
 .text.esSVC_RegClrError
                0x0000000000000000       0x18 ./elibrary/bin//libsyscall.a(syscall.o)
 .text.esSVC_RegCreateKey
                0x0000000000000000       0x18 ./elibrary/bin//libsyscall.a(syscall.o)
 .text.esSVC_RegCreatePath
                0x0000000000000000       0x18 ./elibrary/bin//libsyscall.a(syscall.o)
 .text.esSVC_RegCreateSet
                0x0000000000000000       0x18 ./elibrary/bin//libsyscall.a(syscall.o)
 .text.esSVC_RegDeleteKey
                0x0000000000000000       0x18 ./elibrary/bin//libsyscall.a(syscall.o)
 .text.esSVC_RegDeleteNode
                0x0000000000000000       0x18 ./elibrary/bin//libsyscall.a(syscall.o)
 .text.esSVC_RegDeletePath
                0x0000000000000000       0x18 ./elibrary/bin//libsyscall.a(syscall.o)
 .text.esSVC_RegDeleteSet
                0x0000000000000000       0x18 ./elibrary/bin//libsyscall.a(syscall.o)
 .text.esSVC_RegGetError
                0x0000000000000000       0x18 ./elibrary/bin//libsyscall.a(syscall.o)
 .text.esSVC_RegGetFirstKey
                0x0000000000000000       0x18 ./elibrary/bin//libsyscall.a(syscall.o)
 .text.esSVC_RegGetFirstSet
                0x0000000000000000       0x18 ./elibrary/bin//libsyscall.a(syscall.o)
 .text.esSVC_RegGetKeyCount
                0x0000000000000000       0x18 ./elibrary/bin//libsyscall.a(syscall.o)
 .text.esSVC_RegGetKeyValue
                0x0000000000000000       0x18 ./elibrary/bin//libsyscall.a(syscall.o)
 .text.esSVC_RegGetNextKey
                0x0000000000000000       0x18 ./elibrary/bin//libsyscall.a(syscall.o)
 .text.esSVC_RegGetNextSet
                0x0000000000000000       0x18 ./elibrary/bin//libsyscall.a(syscall.o)
 .text.esSVC_RegGetRootPath
                0x0000000000000000       0x16 ./elibrary/bin//libsyscall.a(syscall.o)
 .text.esSVC_RegGetSetCount
                0x0000000000000000       0x18 ./elibrary/bin//libsyscall.a(syscall.o)
 .text.esSVC_RegIni2Reg
                0x0000000000000000       0x18 ./elibrary/bin//libsyscall.a(syscall.o)
 .text.esSVC_RegOpenNode
                0x0000000000000000       0x16 ./elibrary/bin//libsyscall.a(syscall.o)
 .text.esSVC_RegReg2Ini
                0x0000000000000000       0x18 ./elibrary/bin//libsyscall.a(syscall.o)
 .text.esSVC_RegSetKeyValue
                0x0000000000000000       0x18 ./elibrary/bin//libsyscall.a(syscall.o)
 .text.esSVC_RegSetRootPath
                0x0000000000000000       0x16 ./elibrary/bin//libsyscall.a(syscall.o)
 .text.esSVC_ResourceRel
                0x0000000000000000       0x18 ./elibrary/bin//libsyscall.a(syscall.o)
 .text.esSVC_ResourceReq
                0x0000000000000000       0x22 ./elibrary/bin//libsyscall.a(syscall.o)
 .text.esTIME_ContiCntr
                0x0000000000000000       0x18 ./elibrary/bin//libsyscall.a(syscall.o)
 .text.esTIME_GetDate
                0x0000000000000000       0x18 ./elibrary/bin//libsyscall.a(syscall.o)
 .text.esTIME_GetTime
                0x0000000000000000       0x18 ./elibrary/bin//libsyscall.a(syscall.o)
 .text.esTIME_PauseCntr
                0x0000000000000000       0x18 ./elibrary/bin//libsyscall.a(syscall.o)
 .text.esTIME_QuerryAlarm
                0x0000000000000000       0x18 ./elibrary/bin//libsyscall.a(syscall.o)
 .text.esTIME_QuerryCntr
                0x0000000000000000       0x18 ./elibrary/bin//libsyscall.a(syscall.o)
 .text.esTIME_QuerryCntrStat
                0x0000000000000000       0x18 ./elibrary/bin//libsyscall.a(syscall.o)
 .text.esTIME_QuerryTimer
                0x0000000000000000       0x18 ./elibrary/bin//libsyscall.a(syscall.o)
 .text.esTIME_ReleaseAlarm
                0x0000000000000000       0x18 ./elibrary/bin//libsyscall.a(syscall.o)
 .text.esTIME_ReleaseCntr
                0x0000000000000000       0x18 ./elibrary/bin//libsyscall.a(syscall.o)
 .text.esTIME_ReleaseTimer
                0x0000000000000000       0x18 ./elibrary/bin//libsyscall.a(syscall.o)
 .text.esTIME_RequestAlarm
                0x0000000000000000       0x1a ./elibrary/bin//libsyscall.a(syscall.o)
 .text.esTIME_RequestCntr
                0x0000000000000000       0x16 ./elibrary/bin//libsyscall.a(syscall.o)
 .text.esTIME_RequestTimer
                0x0000000000000000       0x18 ./elibrary/bin//libsyscall.a(syscall.o)
 .text.esTIME_SetCntrPrescale
                0x0000000000000000       0x18 ./elibrary/bin//libsyscall.a(syscall.o)
 .text.esTIME_SetCntrValue
                0x0000000000000000       0x1c ./elibrary/bin//libsyscall.a(syscall.o)
 .text.esTIME_SetDate
                0x0000000000000000       0x18 ./elibrary/bin//libsyscall.a(syscall.o)
 .text.esTIME_SetTime
                0x0000000000000000       0x18 ./elibrary/bin//libsyscall.a(syscall.o)
 .text.esTIME_StartAlarm
                0x0000000000000000       0x1c ./elibrary/bin//libsyscall.a(syscall.o)
 .text.esTIME_StartCntr
                0x0000000000000000       0x18 ./elibrary/bin//libsyscall.a(syscall.o)
 .text.esTIME_StartTimer
                0x0000000000000000       0x18 ./elibrary/bin//libsyscall.a(syscall.o)
 .text.esTIME_StopAlarm
                0x0000000000000000       0x18 ./elibrary/bin//libsyscall.a(syscall.o)
 .text.esTIME_StopCntr
                0x0000000000000000       0x18 ./elibrary/bin//libsyscall.a(syscall.o)
 .text.esTIME_StopTimer
                0x0000000000000000       0x18 ./elibrary/bin//libsyscall.a(syscall.o)
 .text.backtrace
                0x0000000000000000       0x18 ./elibrary/bin//libsyscall.a(syscall.o)
 .text          0x0000000000000000        0x0 ./elibrary/bin//libsyscall.a(syscall_fops.o)
 .data          0x0000000000000000        0x0 ./elibrary/bin//libsyscall.a(syscall_fops.o)
 .bss           0x0000000000000000        0x0 ./elibrary/bin//libsyscall.a(syscall_fops.o)
 .text.closedir
                0x0000000000000000       0x18 ./elibrary/bin//libsyscall.a(syscall_fops.o)
 .text.fioctrl  0x0000000000000000       0x18 ./elibrary/bin//libsyscall.a(syscall_fops.o)
 .text._rename_r
                0x0000000000000000       0x18 ./elibrary/bin//libsyscall.a(syscall_fops.o)
 .text._stat_r  0x0000000000000000       0x18 ./elibrary/bin//libsyscall.a(syscall_fops.o)
 .text._mkdir_r
                0x0000000000000000       0x18 ./elibrary/bin//libsyscall.a(syscall_fops.o)
 .text.fsync    0x0000000000000000       0x18 ./elibrary/bin//libsyscall.a(syscall_fops.o)
 .text._unlink_r
                0x0000000000000000       0x18 ./elibrary/bin//libsyscall.a(syscall_fops.o)
 .text._gettimeofday_r
                0x0000000000000000       0x18 ./elibrary/bin//libsyscall.a(syscall_fops.o)
 .text.settimeofday
                0x0000000000000000       0x18 ./elibrary/bin//libsyscall.a(syscall_fops.o)
 .text._calloc_r
                0x0000000000000000       0x16 ./elibrary/bin//libsyscall.a(syscall_fops.o)
 .text._isatty  0x0000000000000000       0x16 ./elibrary/bin//libsyscall.a(syscall_fops.o)
 .text.__libc_init_array
                0x0000000000000000       0x16 ./elibrary/bin//libsyscall.a(syscall_fops.o)
 .text._system  0x0000000000000000       0x16 ./elibrary/bin//libsyscall.a(syscall_fops.o)
 .text.__malloc_lock
                0x0000000000000000        0x2 ./elibrary/bin//libsyscall.a(syscall_fops.o)
 .text.__malloc_unlock
                0x0000000000000000        0x2 ./elibrary/bin//libsyscall.a(syscall_fops.o)
 .text.ftruncate
                0x0000000000000000       0x18 ./elibrary/bin//libsyscall.a(syscall_fops.o)
 .text.mkdir    0x0000000000000000       0x1c ./elibrary/bin//libsyscall.a(syscall_fops.o)
 .text.opendir  0x0000000000000000       0x16 ./elibrary/bin//libsyscall.a(syscall_fops.o)
 .text.readdir  0x0000000000000000       0x16 ./elibrary/bin//libsyscall.a(syscall_fops.o)
 .text.remove   0x0000000000000000       0x18 ./elibrary/bin//libsyscall.a(syscall_fops.o)
 .text.rewinddir
                0x0000000000000000       0x16 ./elibrary/bin//libsyscall.a(syscall_fops.o)
 .text.rmdir    0x0000000000000000       0x18 ./elibrary/bin//libsyscall.a(syscall_fops.o)
 .text.statfs   0x0000000000000000       0x18 ./elibrary/bin//libsyscall.a(syscall_fops.o)
 .text          0x0000000000000000        0x0 ./elibrary/bin//libminic.a(elibs_stdio.o)
 .data          0x0000000000000000        0x0 ./elibrary/bin//libminic.a(elibs_stdio.o)
 .bss           0x0000000000000000        0x0 ./elibrary/bin//libminic.a(elibs_stdio.o)
 .text.eLIBs_remove
                0x0000000000000000        0x8 ./elibrary/bin//libminic.a(elibs_stdio.o)
 .text.eLIBs_rename
                0x0000000000000000        0x8 ./elibrary/bin//libminic.a(elibs_stdio.o)
 .text.eLIBs_ftruncate
                0x0000000000000000        0x8 ./elibrary/bin//libminic.a(elibs_stdio.o)
 .text.eLIBs_fioctrl
                0x0000000000000000        0x8 ./elibrary/bin//libminic.a(elibs_stdio.o)
 .text.eLIBs_ferror
                0x0000000000000000        0x8 ./elibrary/bin//libminic.a(elibs_stdio.o)
 .text.eLIBs_ferrclr
                0x0000000000000000        0x8 ./elibrary/bin//libminic.a(elibs_stdio.o)
 .text.eLIBs_opendir
                0x0000000000000000        0x8 ./elibrary/bin//libminic.a(elibs_stdio.o)
 .text.eLIBs_readdir
                0x0000000000000000        0x8 ./elibrary/bin//libminic.a(elibs_stdio.o)
 .text.eLIBs_rewinddir
                0x0000000000000000        0x8 ./elibrary/bin//libminic.a(elibs_stdio.o)
 .text.eLIBs_mkdir
                0x0000000000000000        0x8 ./elibrary/bin//libminic.a(elibs_stdio.o)
 .text.eLIBs_rmdir
                0x0000000000000000        0x8 ./elibrary/bin//libminic.a(elibs_stdio.o)
 .text.eLIBs_DirEnt2Attr
                0x0000000000000000        0x8 ./elibrary/bin//libminic.a(elibs_stdio.o)
 .text.eLIBs_DirEnt2Name
                0x0000000000000000       0x2e ./elibrary/bin//libminic.a(elibs_stdio.o)
 .text.eLIBs_DirEnt2Size
                0x0000000000000000        0x6 ./elibrary/bin//libminic.a(elibs_stdio.o)
 .text.eLIBs_DirEnt2Time
                0x0000000000000000        0x4 ./elibrary/bin//libminic.a(elibs_stdio.o)
 .text.eLIBs_GetNumFiles
                0x0000000000000000       0x3e ./elibrary/bin//libminic.a(elibs_stdio.o)
 .text.eLIBs_GetNumSubItems
                0x0000000000000000       0x4e ./elibrary/bin//libminic.a(elibs_stdio.o)
 .text.eLIBs_GetFileAttributes
                0x0000000000000000       0x4c ./elibrary/bin//libminic.a(elibs_stdio.o)
 .text.eLIBs_SetFileAttributes
                0x0000000000000000        0x4 ./elibrary/bin//libminic.a(elibs_stdio.o)
 .text.eLIBs_GetDirSize
                0x0000000000000000      0x108 ./elibrary/bin//libminic.a(elibs_stdio.o)
 .text.eLIBs_GetVolName
                0x0000000000000000       0x4a ./elibrary/bin//libminic.a(elibs_stdio.o)
 .text.eLIBs_GetVolNameCharset
                0x0000000000000000       0x52 ./elibrary/bin//libminic.a(elibs_stdio.o)
 .text.eLIBs_GetVolTSpace
                0x0000000000000000       0x30 ./elibrary/bin//libminic.a(elibs_stdio.o)
 .text.eLIBs_GetVolFSpace
                0x0000000000000000       0x30 ./elibrary/bin//libminic.a(elibs_stdio.o)
 .text.eLIBs_GetVolClustSize
                0x0000000000000000       0x26 ./elibrary/bin//libminic.a(elibs_stdio.o)
 .text.eLIBs_GetFSName
                0x0000000000000000       0x48 ./elibrary/bin//libminic.a(elibs_stdio.o)
 .text.eLIBs_GetFSAttribute
                0x0000000000000000       0x36 ./elibrary/bin//libminic.a(elibs_stdio.o)
 .text.eLIBs_disklock
                0x0000000000000000        0x8 ./elibrary/bin//libminic.a(elibs_stdio.o)
 .text.eLIBs_diskunlock
                0x0000000000000000        0x8 ./elibrary/bin//libminic.a(elibs_stdio.o)
 .text.eLIBs_GetDiskArray
                0x0000000000000000       0x62 ./elibrary/bin//libminic.a(elibs_stdio.o)
 .text.eLIBs_feof
                0x0000000000000000       0x1e ./elibrary/bin//libminic.a(elibs_stdio.o)
 .text.eLIBs_fgetc
                0x0000000000000000       0x2c ./elibrary/bin//libminic.a(elibs_stdio.o)
 .text.eLIBs_fgets
                0x0000000000000000       0x6c ./elibrary/bin//libminic.a(elibs_stdio.o)
 .text.eLIBs_fputc
                0x0000000000000000       0x32 ./elibrary/bin//libminic.a(elibs_stdio.o)
 .text.eLIBs_fputs
                0x0000000000000000       0x42 ./elibrary/bin//libminic.a(elibs_stdio.o)
 .text.eLIBs_GetFileATime
                0x0000000000000000       0x50 ./elibrary/bin//libminic.a(elibs_stdio.o)
 .text.eLIBs_GetFileMTime
                0x0000000000000000       0x50 ./elibrary/bin//libminic.a(elibs_stdio.o)
 .text.eLIBs_GetFileCTime
                0x0000000000000000       0x50 ./elibrary/bin//libminic.a(elibs_stdio.o)
 .text.eLIBs_GetDirATime
                0x0000000000000000       0x48 ./elibrary/bin//libminic.a(elibs_stdio.o)
 .text.eLIBs_GetDirMTime
                0x0000000000000000       0x48 ./elibrary/bin//libminic.a(elibs_stdio.o)
 .text.eLIBs_GetDirCTime
                0x0000000000000000       0x48 ./elibrary/bin//libminic.a(elibs_stdio.o)
 .text.eLIBs_file2fd
                0x0000000000000000        0x8 ./elibrary/bin//libminic.a(elibs_stdio.o)
 .text.eLIBs_fd2file
                0x0000000000000000        0x8 ./elibrary/bin//libminic.a(elibs_stdio.o)
 .text.eLIBs_open
                0x0000000000000000        0x8 ./elibrary/bin//libminic.a(elibs_stdio.o)
 .text.eLIBs_fstat
                0x0000000000000000        0x8 ./elibrary/bin//libminic.a(elibs_stdio.o)
 .text.eLIBs_statfs
                0x0000000000000000        0xc ./elibrary/bin//libminic.a(elibs_stdio.o)
 .text.eLIBs_GetPTName
                0x0000000000000000       0xa2 ./elibrary/bin//libminic.a(elibs_stdio.o)
 .text.eLIBs_GetDevName.part.0
                0x0000000000000000       0x4c ./elibrary/bin//libminic.a(elibs_stdio.o)
 .text.eLIBs_GetDevName
                0x0000000000000000       0x76 ./elibrary/bin//libminic.a(elibs_stdio.o)
 .text.eLIBs_GetDevParts
                0x0000000000000000       0x88 ./elibrary/bin//libminic.a(elibs_stdio.o)
 .text.eLIBs_GetTime
                0x0000000000000000        0x8 ./elibrary/bin//libminic.a(elibs_stdio.o)
 .text.eLIBs_GetDate
                0x0000000000000000        0x8 ./elibrary/bin//libminic.a(elibs_stdio.o)
 .bss.dir_level.6341
                0x0000000000000000        0x4 ./elibrary/bin//libminic.a(elibs_stdio.o)
 .rodata.__func__.6395
                0x0000000000000000       0x10 ./elibrary/bin//libminic.a(elibs_stdio.o)
 .rodata.__func__.6530
                0x0000000000000000       0x11 ./elibrary/bin//libminic.a(elibs_stdio.o)
 .rodata.eLIBs_GetDirSize.str1.8
                0x0000000000000000        0x2 ./elibrary/bin//libminic.a(elibs_stdio.o)
 .rodata.eLIBs_GetVolNameCharset.str1.8
                0x0000000000000000        0x5 ./elibrary/bin//libminic.a(elibs_stdio.o)
 .text          0x0000000000000000        0x0 ./elibrary/bin//libminic.a(elibs_stdlib.o)
 .data          0x0000000000000000        0x0 ./elibrary/bin//libminic.a(elibs_stdlib.o)
 .bss           0x0000000000000000        0x0 ./elibrary/bin//libminic.a(elibs_stdlib.o)
 .text.eLIBs_int2str_dec
                0x0000000000000000        0xc ./elibrary/bin//libminic.a(elibs_stdlib.o)
 .text.eLIBs_int2str_hex
                0x0000000000000000        0xc ./elibrary/bin//libminic.a(elibs_stdlib.o)
 .text.eLIBs_atoi
                0x0000000000000000        0xc ./elibrary/bin//libminic.a(elibs_stdlib.o)
 .text.eLIBs_toupper
                0x0000000000000000        0xc ./elibrary/bin//libminic.a(elibs_stdlib.o)
 .text.eLIBs_isspace
                0x0000000000000000        0xc ./elibrary/bin//libminic.a(elibs_stdlib.o)
 .text.eLIBs_strtol
                0x0000000000000000        0xc ./elibrary/bin//libminic.a(elibs_stdlib.o)
 .text.eLIBs_ramdom
                0x0000000000000000        0x8 ./elibrary/bin//libminic.a(elibs_stdlib.o)
 .text.eLIBs_realloc
                0x0000000000000000       0x10 ./elibrary/bin//libminic.a(elibs_stdlib.o)
 .text.eLIBs_atof
                0x0000000000000000       0x18 ./elibrary/bin//libminic.a(elibs_stdlib.o)
 .text.eLIBs_sscanf
                0x0000000000000000       0x24 ./elibrary/bin//libminic.a(elibs_stdlib.o)
 .text._exit    0x0000000000000000       0x48 ./elibrary/bin//libminic.a(elibs_stdlib.o)
 .text._write   0x0000000000000000       0x46 ./elibrary/bin//libminic.a(elibs_stdlib.o)
 .text._kill    0x0000000000000000       0x46 ./elibrary/bin//libminic.a(elibs_stdlib.o)
 .text._getpid  0x0000000000000000       0x46 ./elibrary/bin//libminic.a(elibs_stdlib.o)
 .text._sbrk    0x0000000000000000       0x46 ./elibrary/bin//libminic.a(elibs_stdlib.o)
 .rodata.__func__.5398
                0x0000000000000000        0x6 ./elibrary/bin//libminic.a(elibs_stdlib.o)
 .rodata.__func__.5403
                0x0000000000000000        0x7 ./elibrary/bin//libminic.a(elibs_stdlib.o)
 .rodata.__func__.5408
                0x0000000000000000        0x6 ./elibrary/bin//libminic.a(elibs_stdlib.o)
 .rodata.__func__.5413
                0x0000000000000000        0x8 ./elibrary/bin//libminic.a(elibs_stdlib.o)
 .rodata.__func__.5418
                0x0000000000000000        0x6 ./elibrary/bin//libminic.a(elibs_stdlib.o)
 .rodata._exit.str1.8
                0x0000000000000000       0x5f ./elibrary/bin//libminic.a(elibs_stdlib.o)
 .rodata._write.str1.8
                0x0000000000000000       0x29 ./elibrary/bin//libminic.a(elibs_stdlib.o)
 .text          0x0000000000000000        0x0 ./elibrary/bin//libminic.a(elibs_string.o)
 .data          0x0000000000000000        0x0 ./elibrary/bin//libminic.a(elibs_string.o)
 .bss           0x0000000000000000        0x0 ./elibrary/bin//libminic.a(elibs_string.o)
 .text.eLIBs_strncat
                0x0000000000000000        0xc ./elibrary/bin//libminic.a(elibs_string.o)
 .text.eLIBs_strnicmp
                0x0000000000000000        0xc ./elibrary/bin//libminic.a(elibs_string.o)
 .text.eLIBs_strchr
                0x0000000000000000        0xc ./elibrary/bin//libminic.a(elibs_string.o)
 .text.eLIBs_strnchr
                0x0000000000000000        0xc ./elibrary/bin//libminic.a(elibs_string.o)
 .text.eLIBs_strstr
                0x0000000000000000        0xc ./elibrary/bin//libminic.a(elibs_string.o)
 .text.eLIBs_memclr
                0x0000000000000000       0x10 ./elibrary/bin//libminic.a(elibs_string.o)
 .text.eLIBs_memmove
                0x0000000000000000       0x3c ./elibrary/bin//libminic.a(elibs_string.o)
 .text          0x0000000000000000        0x0 ./elibrary/bin//libminic.a(elibs_sprintf.o)
 .data          0x0000000000000000        0x0 ./elibrary/bin//libminic.a(elibs_sprintf.o)
 .bss           0x0000000000000000        0x0 ./elibrary/bin//libminic.a(elibs_sprintf.o)
 .text.eLIBs_snprintf
                0x0000000000000000       0x20 ./elibrary/bin//libminic.a(elibs_sprintf.o)
 .text.eLIBs_scnprintf
                0x0000000000000000       0x2e ./elibrary/bin//libminic.a(elibs_sprintf.o)
 .text.eLIBs_vsprintf
                0x0000000000000000        0xe ./elibrary/bin//libminic.a(elibs_sprintf.o)
 .text          0x0000000000000000        0x0 ./elibrary/bin//liblzma.a(az100.o)
 .data          0x0000000000000000        0x0 ./elibrary/bin//liblzma.a(az100.o)
 .bss           0x0000000000000000        0x0 ./elibrary/bin//liblzma.a(az100.o)
 .text          0x0000000000000000        0x0 ./elibrary/bin//liblzma.a(compress.o)
 .data          0x0000000000000000        0x0 ./elibrary/bin//liblzma.a(compress.o)
 .bss           0x0000000000000000        0x0 ./elibrary/bin//liblzma.a(compress.o)
 .text          0x0000000000000000        0x0 ./elibrary/bin//liblzma.a(LzmaLib.o)
 .data          0x0000000000000000        0x0 ./elibrary/bin//liblzma.a(LzmaLib.o)
 .bss           0x0000000000000000        0x0 ./elibrary/bin//liblzma.a(LzmaLib.o)
 .text          0x0000000000000000        0x0 ./elibrary/bin//liblzma.a(LzmaDec.o)
 .data          0x0000000000000000        0x0 ./elibrary/bin//liblzma.a(LzmaDec.o)
 .bss           0x0000000000000000        0x0 ./elibrary/bin//liblzma.a(LzmaDec.o)
 .text.LzmaDec_InitDicAndState
                0x0000000000000000       0x1e ./elibrary/bin//liblzma.a(LzmaDec.o)
 .text.LzmaDec_DecodeToBuf
                0x0000000000000000       0xd6 ./elibrary/bin//liblzma.a(LzmaDec.o)
 .text.LzmaDec_Free
                0x0000000000000000       0x2a ./elibrary/bin//liblzma.a(LzmaDec.o)
 .text.LzmaDec_Allocate
                0x0000000000000000       0x80 ./elibrary/bin//liblzma.a(LzmaDec.o)
 .text          0x0000000000000000        0x0 ./elibrary/bin//libcharset.a(elibs_charset.o)
 .data          0x0000000000000000        0x0 ./elibrary/bin//libcharset.a(elibs_charset.o)
 .bss           0x0000000000000000        0x0 ./elibrary/bin//libcharset.a(elibs_charset.o)
 .text.eLIBs_charset_name2enm
                0x0000000000000000       0x5c ./elibrary/bin//libcharset.a(elibs_charset.o)
 .text.eLIBs_charset_enm2name
                0x0000000000000000       0x4c ./elibrary/bin//libcharset.a(elibs_charset.o)
 .text.eLIBs_charset_convert_size
                0x0000000000000000       0x72 ./elibrary/bin//libcharset.a(elibs_charset.o)
 .rodata.charset_map_tbl
                0x0000000000000000      0x4a4 ./elibrary/bin//libcharset.a(elibs_charset.o)
 .text          0x0000000000000000        0x0 ./elibrary/bin//libmediainfo.a(elibs_mediainf.o)
 .data          0x0000000000000000        0x0 ./elibrary/bin//libmediainfo.a(elibs_mediainf.o)
 .bss           0x0000000000000000        0x0 ./elibrary/bin//libmediainfo.a(elibs_mediainf.o)
 .text.ParseMediaFormat
                0x0000000000000000       0x8a ./elibrary/bin//libmediainfo.a(elibs_mediainf.o)
 .text.eLIBs_GetAudioDataInfo
                0x0000000000000000        0x8 ./elibrary/bin//libmediainfo.a(elibs_mediainf.o)
 .text.eLIBs_GetVideoFormat
                0x0000000000000000       0x14 ./elibrary/bin//libmediainfo.a(elibs_mediainf.o)
 .text.eLIBs_GetPicFormat
                0x0000000000000000       0x14 ./elibrary/bin//libmediainfo.a(elibs_mediainf.o)
 .text.eLIBs_GetEbookFormat
                0x0000000000000000       0x14 ./elibrary/bin//libmediainfo.a(elibs_mediainf.o)
 .text.eLIBs_GetGameFormat
                0x0000000000000000       0x14 ./elibrary/bin//libmediainfo.a(elibs_mediainf.o)
 .text.eLIBs_GetFlashFormat
                0x0000000000000000       0x14 ./elibrary/bin//libmediainfo.a(elibs_mediainf.o)
 .text.eLIBs_setAudioEncrytpMode
                0x0000000000000000        0x8 ./elibrary/bin//libmediainfo.a(elibs_mediainf.o)
 .data.ebook_fmt_tbl
                0x0000000000000000      0x144 ./elibrary/bin//libmediainfo.a(elibs_mediainf.o)
 .data.flash_fmt_tbl
                0x0000000000000000       0x18 ./elibrary/bin//libmediainfo.a(elibs_mediainf.o)
 .data.game_fmt_tbl
                0x0000000000000000       0x24 ./elibrary/bin//libmediainfo.a(elibs_mediainf.o)
 .data.pic_fmt_tbl
                0x0000000000000000       0x54 ./elibrary/bin//libmediainfo.a(elibs_mediainf.o)
 .data.video_fmt_tbl
                0x0000000000000000      0x138 ./elibrary/bin//libmediainfo.a(elibs_mediainf.o)
 .rodata.ParseMediaFormat.str1.8
                0x0000000000000000        0x5 ./elibrary/bin//libmediainfo.a(elibs_mediainf.o)
 .text          0x0000000000000000        0x0 ./elibrary/bin//libmediainfo.a(GetAudio_format.o)
 .data          0x0000000000000000        0x0 ./elibrary/bin//libmediainfo.a(GetAudio_format.o)
 .bss           0x0000000000000000        0x0 ./elibrary/bin//libmediainfo.a(GetAudio_format.o)
 .text.GetAudioFormatData
                0x0000000000000000      0x5f2 ./elibrary/bin//libmediainfo.a(GetAudio_format.o)
 .text.GetAudioDataInfo
                0x0000000000000000      0x1f8 ./elibrary/bin//libmediainfo.a(GetAudio_format.o)
 .rodata.GetAudioDataInfo
                0x0000000000000000       0x44 ./elibrary/bin//libmediainfo.a(GetAudio_format.o)
 .text.GetAudioFileInfo
                0x0000000000000000      0x408 ./elibrary/bin//libmediainfo.a(GetAudio_format.o)
 .rodata.GetAudioFileInfo
                0x0000000000000000       0x88 ./elibrary/bin//libmediainfo.a(GetAudio_format.o)
 .text.setAudioEncrytpMode
                0x0000000000000000        0x8 ./elibrary/bin//libmediainfo.a(GetAudio_format.o)
 .rodata.GetAudioFormatData.str1.8
                0x0000000000000000       0x25 ./elibrary/bin//libmediainfo.a(GetAudio_format.o)
 .text          0x0000000000000000        0x0 ./elibrary/bin//libmediainfo.a(AudioInfo_WMA.o)
 .data          0x0000000000000000        0x0 ./elibrary/bin//libmediainfo.a(AudioInfo_WMA.o)
 .bss           0x0000000000000000        0x0 ./elibrary/bin//libmediainfo.a(AudioInfo_WMA.o)
 .text          0x0000000000000000        0x0 ./elibrary/bin//libmediainfo.a(AudioInfo_WAV.o)
 .data          0x0000000000000000        0x0 ./elibrary/bin//libmediainfo.a(AudioInfo_WAV.o)
 .bss           0x0000000000000000        0x0 ./elibrary/bin//libmediainfo.a(AudioInfo_WAV.o)
 .text          0x0000000000000000        0x0 ./elibrary/bin//libmediainfo.a(AudioInfo_RA.o)
 .data          0x0000000000000000        0x0 ./elibrary/bin//libmediainfo.a(AudioInfo_RA.o)
 .bss           0x0000000000000000        0x0 ./elibrary/bin//libmediainfo.a(AudioInfo_RA.o)
 .text          0x0000000000000000        0x0 ./elibrary/bin//libmediainfo.a(AudioInfo_OGG.o)
 .data          0x0000000000000000        0x0 ./elibrary/bin//libmediainfo.a(AudioInfo_OGG.o)
 .bss           0x0000000000000000        0x0 ./elibrary/bin//libmediainfo.a(AudioInfo_OGG.o)
 .text          0x0000000000000000        0x0 ./elibrary/bin//libmediainfo.a(AudioInfo_MP3.o)
 .data          0x0000000000000000        0x0 ./elibrary/bin//libmediainfo.a(AudioInfo_MP3.o)
 .bss           0x0000000000000000        0x0 ./elibrary/bin//libmediainfo.a(AudioInfo_MP3.o)
 .text          0x0000000000000000        0x0 ./elibrary/bin//libmediainfo.a(AudioInfo_MID_timidity.o)
 .data          0x0000000000000000        0x0 ./elibrary/bin//libmediainfo.a(AudioInfo_MID_timidity.o)
 .bss           0x0000000000000000        0x0 ./elibrary/bin//libmediainfo.a(AudioInfo_MID_timidity.o)
 .text          0x0000000000000000        0x0 ./elibrary/bin//libmediainfo.a(AudioInfo_FLAC.o)
 .data          0x0000000000000000        0x0 ./elibrary/bin//libmediainfo.a(AudioInfo_FLAC.o)
 .bss           0x0000000000000000        0x0 ./elibrary/bin//libmediainfo.a(AudioInfo_FLAC.o)
 .text          0x0000000000000000        0x0 ./elibrary/bin//libmediainfo.a(AudioInfo_DTS.o)
 .data          0x0000000000000000        0x0 ./elibrary/bin//libmediainfo.a(AudioInfo_DTS.o)
 .bss           0x0000000000000000        0x0 ./elibrary/bin//libmediainfo.a(AudioInfo_DTS.o)
 .text          0x0000000000000000        0x0 ./elibrary/bin//libmediainfo.a(AudioInfo_DRA.o)
 .data          0x0000000000000000        0x0 ./elibrary/bin//libmediainfo.a(AudioInfo_DRA.o)
 .bss           0x0000000000000000        0x0 ./elibrary/bin//libmediainfo.a(AudioInfo_DRA.o)
 .text          0x0000000000000000        0x0 ./elibrary/bin//libmediainfo.a(AudioInfo_CAF.o)
 .data          0x0000000000000000        0x0 ./elibrary/bin//libmediainfo.a(AudioInfo_CAF.o)
 .bss           0x0000000000000000        0x0 ./elibrary/bin//libmediainfo.a(AudioInfo_CAF.o)
 .text          0x0000000000000000        0x0 ./elibrary/bin//libmediainfo.a(AudioInfo_ATRAC.o)
 .data          0x0000000000000000        0x0 ./elibrary/bin//libmediainfo.a(AudioInfo_ATRAC.o)
 .bss           0x0000000000000000        0x0 ./elibrary/bin//libmediainfo.a(AudioInfo_ATRAC.o)
 .text          0x0000000000000000        0x0 ./elibrary/bin//libmediainfo.a(AudioInfo_APE.o)
 .data          0x0000000000000000        0x0 ./elibrary/bin//libmediainfo.a(AudioInfo_APE.o)
 .bss           0x0000000000000000        0x0 ./elibrary/bin//libmediainfo.a(AudioInfo_APE.o)
 .text          0x0000000000000000        0x0 ./elibrary/bin//libmediainfo.a(AudioInfo_AMR.o)
 .data          0x0000000000000000        0x0 ./elibrary/bin//libmediainfo.a(AudioInfo_AMR.o)
 .bss           0x0000000000000000        0x0 ./elibrary/bin//libmediainfo.a(AudioInfo_AMR.o)
 .text          0x0000000000000000        0x0 ./elibrary/bin//libmediainfo.a(AudioInfo_AC3.o)
 .data          0x0000000000000000        0x0 ./elibrary/bin//libmediainfo.a(AudioInfo_AC3.o)
 .bss           0x0000000000000000        0x0 ./elibrary/bin//libmediainfo.a(AudioInfo_AC3.o)
 .text          0x0000000000000000        0x0 ./elibrary/bin//libmediainfo.a(AudioInfo_AAC.o)
 .data          0x0000000000000000        0x0 ./elibrary/bin//libmediainfo.a(AudioInfo_AAC.o)
 .bss           0x0000000000000000        0x0 ./elibrary/bin//libmediainfo.a(AudioInfo_AAC.o)
 .text          0x0000000000000000        0x0 ./elibrary/bin//libmediainfo.a(bitstream.o)
 .data          0x0000000000000000        0x0 ./elibrary/bin//libmediainfo.a(bitstream.o)
 .bss           0x0000000000000000        0x0 ./elibrary/bin//libmediainfo.a(bitstream.o)
 .text          0x0000000000000000        0x0 ./elibrary/bin//libmediainfo.a(audio_fs_direct.o)
 .data          0x0000000000000000        0x0 ./elibrary/bin//libmediainfo.a(audio_fs_direct.o)
 .bss           0x0000000000000000        0x0 ./elibrary/bin//libmediainfo.a(audio_fs_direct.o)
 .text.set_encrytp_mod
                0x0000000000000000        0xa ./elibrary/bin//libmediainfo.a(audio_fs_direct.o)
 .text.audio_fwrite
                0x0000000000000000       0x12 ./elibrary/bin//libmediainfo.a(audio_fs_direct.o)
 .text          0x0000000000000000        0x0 ./elibrary/bin//libmediainfo.a(Tag_XING.o)
 .data          0x0000000000000000        0x0 ./elibrary/bin//libmediainfo.a(Tag_XING.o)
 .bss           0x0000000000000000        0x0 ./elibrary/bin//libmediainfo.a(Tag_XING.o)
 .text          0x0000000000000000        0x0 ./elibrary/bin//libmediainfo.a(Tag_VBRI.o)
 .data          0x0000000000000000        0x0 ./elibrary/bin//libmediainfo.a(Tag_VBRI.o)
 .bss           0x0000000000000000        0x0 ./elibrary/bin//libmediainfo.a(Tag_VBRI.o)
 .text          0x0000000000000000        0x0 ./elibrary/bin//libmediainfo.a(Tag_OGG.o)
 .data          0x0000000000000000        0x0 ./elibrary/bin//libmediainfo.a(Tag_OGG.o)
 .bss           0x0000000000000000        0x0 ./elibrary/bin//libmediainfo.a(Tag_OGG.o)
 .text          0x0000000000000000        0x0 ./elibrary/bin//libmediainfo.a(Tag_ID3.o)
 .data          0x0000000000000000        0x0 ./elibrary/bin//libmediainfo.a(Tag_ID3.o)
 .bss           0x0000000000000000        0x0 ./elibrary/bin//libmediainfo.a(Tag_ID3.o)
 .text          0x0000000000000000        0x0 ./elibrary/bin//libmediainfo.a(Tag_Enoding.o)
 .data          0x0000000000000000        0x0 ./elibrary/bin//libmediainfo.a(Tag_Enoding.o)
 .bss           0x0000000000000000        0x0 ./elibrary/bin//libmediainfo.a(Tag_Enoding.o)
 .text          0x0000000000000000        0x0 ./elibrary/bin//libmediainfo.a(Tag_APE.o)
 .data          0x0000000000000000        0x0 ./elibrary/bin//libmediainfo.a(Tag_APE.o)
 .bss           0x0000000000000000        0x0 ./elibrary/bin//libmediainfo.a(Tag_APE.o)
 .data          0x0000000000000000        0x0 /home/yuzuki/WorkSpace/melis-v3.0/melis-4.x-release/toolchain/riscv64-elf-x86_64-20201104/bin/../lib/gcc/riscv64-unknown-elf/8.4.0/../../../../riscv64-unknown-elf/lib/rv64imafdcxtheadc/lp64d/libc.a(lib_a-fclose.o)
 .bss           0x0000000000000000        0x0 /home/yuzuki/WorkSpace/melis-v3.0/melis-4.x-release/toolchain/riscv64-elf-x86_64-20201104/bin/../lib/gcc/riscv64-unknown-elf/8.4.0/../../../../riscv64-unknown-elf/lib/rv64imafdcxtheadc/lp64d/libc.a(lib_a-fclose.o)
 .data          0x0000000000000000        0x0 /home/yuzuki/WorkSpace/melis-v3.0/melis-4.x-release/toolchain/riscv64-elf-x86_64-20201104/bin/../lib/gcc/riscv64-unknown-elf/8.4.0/../../../../riscv64-unknown-elf/lib/rv64imafdcxtheadc/lp64d/libc.a(lib_a-fflush.o)
 .bss           0x0000000000000000        0x0 /home/yuzuki/WorkSpace/melis-v3.0/melis-4.x-release/toolchain/riscv64-elf-x86_64-20201104/bin/../lib/gcc/riscv64-unknown-elf/8.4.0/../../../../riscv64-unknown-elf/lib/rv64imafdcxtheadc/lp64d/libc.a(lib_a-fflush.o)
 .data          0x0000000000000000        0x0 /home/yuzuki/WorkSpace/melis-v3.0/melis-4.x-release/toolchain/riscv64-elf-x86_64-20201104/bin/../lib/gcc/riscv64-unknown-elf/8.4.0/../../../../riscv64-unknown-elf/lib/rv64imafdcxtheadc/lp64d/libc.a(lib_a-findfp.o)
 .bss           0x0000000000000000        0x0 /home/yuzuki/WorkSpace/melis-v3.0/melis-4.x-release/toolchain/riscv64-elf-x86_64-20201104/bin/../lib/gcc/riscv64-unknown-elf/8.4.0/../../../../riscv64-unknown-elf/lib/rv64imafdcxtheadc/lp64d/libc.a(lib_a-findfp.o)
 .data          0x0000000000000000        0x0 /home/yuzuki/WorkSpace/melis-v3.0/melis-4.x-release/toolchain/riscv64-elf-x86_64-20201104/bin/../lib/gcc/riscv64-unknown-elf/8.4.0/../../../../riscv64-unknown-elf/lib/rv64imafdcxtheadc/lp64d/libc.a(lib_a-fopen.o)
 .bss           0x0000000000000000        0x0 /home/yuzuki/WorkSpace/melis-v3.0/melis-4.x-release/toolchain/riscv64-elf-x86_64-20201104/bin/../lib/gcc/riscv64-unknown-elf/8.4.0/../../../../riscv64-unknown-elf/lib/rv64imafdcxtheadc/lp64d/libc.a(lib_a-fopen.o)
 .data          0x0000000000000000        0x0 /home/yuzuki/WorkSpace/melis-v3.0/melis-4.x-release/toolchain/riscv64-elf-x86_64-20201104/bin/../lib/gcc/riscv64-unknown-elf/8.4.0/../../../../riscv64-unknown-elf/lib/rv64imafdcxtheadc/lp64d/libc.a(lib_a-fseek.o)
 .bss           0x0000000000000000        0x0 /home/yuzuki/WorkSpace/melis-v3.0/melis-4.x-release/toolchain/riscv64-elf-x86_64-20201104/bin/../lib/gcc/riscv64-unknown-elf/8.4.0/../../../../riscv64-unknown-elf/lib/rv64imafdcxtheadc/lp64d/libc.a(lib_a-fseek.o)
 .data          0x0000000000000000        0x0 /home/yuzuki/WorkSpace/melis-v3.0/melis-4.x-release/toolchain/riscv64-elf-x86_64-20201104/bin/../lib/gcc/riscv64-unknown-elf/8.4.0/../../../../riscv64-unknown-elf/lib/rv64imafdcxtheadc/lp64d/libc.a(lib_a-fseeko.o)
 .bss           0x0000000000000000        0x0 /home/yuzuki/WorkSpace/melis-v3.0/melis-4.x-release/toolchain/riscv64-elf-x86_64-20201104/bin/../lib/gcc/riscv64-unknown-elf/8.4.0/../../../../riscv64-unknown-elf/lib/rv64imafdcxtheadc/lp64d/libc.a(lib_a-fseeko.o)
 .data          0x0000000000000000        0x0 /home/yuzuki/WorkSpace/melis-v3.0/melis-4.x-release/toolchain/riscv64-elf-x86_64-20201104/bin/../lib/gcc/riscv64-unknown-elf/8.4.0/../../../../riscv64-unknown-elf/lib/rv64imafdcxtheadc/lp64d/libc.a(lib_a-fwalk.o)
 .bss           0x0000000000000000        0x0 /home/yuzuki/WorkSpace/melis-v3.0/melis-4.x-release/toolchain/riscv64-elf-x86_64-20201104/bin/../lib/gcc/riscv64-unknown-elf/8.4.0/../../../../riscv64-unknown-elf/lib/rv64imafdcxtheadc/lp64d/libc.a(lib_a-fwalk.o)
 .data          0x0000000000000000        0x0 /home/yuzuki/WorkSpace/melis-v3.0/melis-4.x-release/toolchain/riscv64-elf-x86_64-20201104/bin/../lib/gcc/riscv64-unknown-elf/8.4.0/../../../../riscv64-unknown-elf/lib/rv64imafdcxtheadc/lp64d/libc.a(lib_a-fwrite.o)
 .bss           0x0000000000000000        0x0 /home/yuzuki/WorkSpace/melis-v3.0/melis-4.x-release/toolchain/riscv64-elf-x86_64-20201104/bin/../lib/gcc/riscv64-unknown-elf/8.4.0/../../../../riscv64-unknown-elf/lib/rv64imafdcxtheadc/lp64d/libc.a(lib_a-fwrite.o)
 .text          0x0000000000000000        0x0 /home/yuzuki/WorkSpace/melis-v3.0/melis-4.x-release/toolchain/riscv64-elf-x86_64-20201104/bin/../lib/gcc/riscv64-unknown-elf/8.4.0/../../../../riscv64-unknown-elf/lib/rv64imafdcxtheadc/lp64d/libc.a(lib_a-impure.o)
 .bss           0x0000000000000000        0x0 /home/yuzuki/WorkSpace/melis-v3.0/melis-4.x-release/toolchain/riscv64-elf-x86_64-20201104/bin/../lib/gcc/riscv64-unknown-elf/8.4.0/../../../../riscv64-unknown-elf/lib/rv64imafdcxtheadc/lp64d/libc.a(lib_a-impure.o)
 .data          0x0000000000000000        0x0 /home/yuzuki/WorkSpace/melis-v3.0/melis-4.x-release/toolchain/riscv64-elf-x86_64-20201104/bin/../lib/gcc/riscv64-unknown-elf/8.4.0/../../../../riscv64-unknown-elf/lib/rv64imafdcxtheadc/lp64d/libc.a(lib_a-makebuf.o)
 .bss           0x0000000000000000        0x0 /home/yuzuki/WorkSpace/melis-v3.0/melis-4.x-release/toolchain/riscv64-elf-x86_64-20201104/bin/../lib/gcc/riscv64-unknown-elf/8.4.0/../../../../riscv64-unknown-elf/lib/rv64imafdcxtheadc/lp64d/libc.a(lib_a-makebuf.o)
 .data          0x0000000000000000        0x0 /home/yuzuki/WorkSpace/melis-v3.0/melis-4.x-release/toolchain/riscv64-elf-x86_64-20201104/bin/../lib/gcc/riscv64-unknown-elf/8.4.0/../../../../riscv64-unknown-elf/lib/rv64imafdcxtheadc/lp64d/libc.a(lib_a-memcpy.o)
 .bss           0x0000000000000000        0x0 /home/yuzuki/WorkSpace/melis-v3.0/melis-4.x-release/toolchain/riscv64-elf-x86_64-20201104/bin/../lib/gcc/riscv64-unknown-elf/8.4.0/../../../../riscv64-unknown-elf/lib/rv64imafdcxtheadc/lp64d/libc.a(lib_a-memcpy.o)
 .data          0x0000000000000000        0x0 /home/yuzuki/WorkSpace/melis-v3.0/melis-4.x-release/toolchain/riscv64-elf-x86_64-20201104/bin/../lib/gcc/riscv64-unknown-elf/8.4.0/../../../../riscv64-unknown-elf/lib/rv64imafdcxtheadc/lp64d/libc.a(lib_a-memset.o)
 .bss           0x0000000000000000        0x0 /home/yuzuki/WorkSpace/melis-v3.0/melis-4.x-release/toolchain/riscv64-elf-x86_64-20201104/bin/../lib/gcc/riscv64-unknown-elf/8.4.0/../../../../riscv64-unknown-elf/lib/rv64imafdcxtheadc/lp64d/libc.a(lib_a-memset.o)
 .data          0x0000000000000000        0x0 /home/yuzuki/WorkSpace/melis-v3.0/melis-4.x-release/toolchain/riscv64-elf-x86_64-20201104/bin/../lib/gcc/riscv64-unknown-elf/8.4.0/../../../../riscv64-unknown-elf/lib/rv64imafdcxtheadc/lp64d/libc.a(lib_a-refill.o)
 .bss           0x0000000000000000        0x0 /home/yuzuki/WorkSpace/melis-v3.0/melis-4.x-release/toolchain/riscv64-elf-x86_64-20201104/bin/../lib/gcc/riscv64-unknown-elf/8.4.0/../../../../riscv64-unknown-elf/lib/rv64imafdcxtheadc/lp64d/libc.a(lib_a-refill.o)
 .data          0x0000000000000000        0x0 /home/yuzuki/WorkSpace/melis-v3.0/melis-4.x-release/toolchain/riscv64-elf-x86_64-20201104/bin/../lib/gcc/riscv64-unknown-elf/8.4.0/../../../../riscv64-unknown-elf/lib/rv64imafdcxtheadc/lp64d/libc.a(lib_a-stdio.o)
 .bss           0x0000000000000000        0x0 /home/yuzuki/WorkSpace/melis-v3.0/melis-4.x-release/toolchain/riscv64-elf-x86_64-20201104/bin/../lib/gcc/riscv64-unknown-elf/8.4.0/../../../../riscv64-unknown-elf/lib/rv64imafdcxtheadc/lp64d/libc.a(lib_a-stdio.o)
 .data          0x0000000000000000        0x0 /home/yuzuki/WorkSpace/melis-v3.0/melis-4.x-release/toolchain/riscv64-elf-x86_64-20201104/bin/../lib/gcc/riscv64-unknown-elf/8.4.0/../../../../riscv64-unknown-elf/lib/rv64imafdcxtheadc/lp64d/libc.a(lib_a-strcat.o)
 .bss           0x0000000000000000        0x0 /home/yuzuki/WorkSpace/melis-v3.0/melis-4.x-release/toolchain/riscv64-elf-x86_64-20201104/bin/../lib/gcc/riscv64-unknown-elf/8.4.0/../../../../riscv64-unknown-elf/lib/rv64imafdcxtheadc/lp64d/libc.a(lib_a-strcat.o)
 .data          0x0000000000000000        0x0 /home/yuzuki/WorkSpace/melis-v3.0/melis-4.x-release/toolchain/riscv64-elf-x86_64-20201104/bin/../lib/gcc/riscv64-unknown-elf/8.4.0/../../../../riscv64-unknown-elf/lib/rv64imafdcxtheadc/lp64d/libc.a(lib_a-strcmp.o)
 .bss           0x0000000000000000        0x0 /home/yuzuki/WorkSpace/melis-v3.0/melis-4.x-release/toolchain/riscv64-elf-x86_64-20201104/bin/../lib/gcc/riscv64-unknown-elf/8.4.0/../../../../riscv64-unknown-elf/lib/rv64imafdcxtheadc/lp64d/libc.a(lib_a-strcmp.o)
 .data          0x0000000000000000        0x0 /home/yuzuki/WorkSpace/melis-v3.0/melis-4.x-release/toolchain/riscv64-elf-x86_64-20201104/bin/../lib/gcc/riscv64-unknown-elf/8.4.0/../../../../riscv64-unknown-elf/lib/rv64imafdcxtheadc/lp64d/libc.a(lib_a-strcpy.o)
 .bss           0x0000000000000000        0x0 /home/yuzuki/WorkSpace/melis-v3.0/melis-4.x-release/toolchain/riscv64-elf-x86_64-20201104/bin/../lib/gcc/riscv64-unknown-elf/8.4.0/../../../../riscv64-unknown-elf/lib/rv64imafdcxtheadc/lp64d/libc.a(lib_a-strcpy.o)
 .data          0x0000000000000000        0x0 /home/yuzuki/WorkSpace/melis-v3.0/melis-4.x-release/toolchain/riscv64-elf-x86_64-20201104/bin/../lib/gcc/riscv64-unknown-elf/8.4.0/../../../../riscv64-unknown-elf/lib/rv64imafdcxtheadc/lp64d/libc.a(lib_a-strlen.o)
 .bss           0x0000000000000000        0x0 /home/yuzuki/WorkSpace/melis-v3.0/melis-4.x-release/toolchain/riscv64-elf-x86_64-20201104/bin/../lib/gcc/riscv64-unknown-elf/8.4.0/../../../../riscv64-unknown-elf/lib/rv64imafdcxtheadc/lp64d/libc.a(lib_a-strlen.o)
 .data          0x0000000000000000        0x0 /home/yuzuki/WorkSpace/melis-v3.0/melis-4.x-release/toolchain/riscv64-elf-x86_64-20201104/bin/../lib/gcc/riscv64-unknown-elf/8.4.0/../../../../riscv64-unknown-elf/lib/rv64imafdcxtheadc/lp64d/libc.a(lib_a-strncmp.o)
 .bss           0x0000000000000000        0x0 /home/yuzuki/WorkSpace/melis-v3.0/melis-4.x-release/toolchain/riscv64-elf-x86_64-20201104/bin/../lib/gcc/riscv64-unknown-elf/8.4.0/../../../../riscv64-unknown-elf/lib/rv64imafdcxtheadc/lp64d/libc.a(lib_a-strncmp.o)
 .data          0x0000000000000000        0x0 /home/yuzuki/WorkSpace/melis-v3.0/melis-4.x-release/toolchain/riscv64-elf-x86_64-20201104/bin/../lib/gcc/riscv64-unknown-elf/8.4.0/../../../../riscv64-unknown-elf/lib/rv64imafdcxtheadc/lp64d/libc.a(lib_a-strncpy.o)
 .bss           0x0000000000000000        0x0 /home/yuzuki/WorkSpace/melis-v3.0/melis-4.x-release/toolchain/riscv64-elf-x86_64-20201104/bin/../lib/gcc/riscv64-unknown-elf/8.4.0/../../../../riscv64-unknown-elf/lib/rv64imafdcxtheadc/lp64d/libc.a(lib_a-strncpy.o)
 .data          0x0000000000000000        0x0 /home/yuzuki/WorkSpace/melis-v3.0/melis-4.x-release/toolchain/riscv64-elf-x86_64-20201104/bin/../lib/gcc/riscv64-unknown-elf/8.4.0/../../../../riscv64-unknown-elf/lib/rv64imafdcxtheadc/lp64d/libc.a(lib_a-strstr.o)
 .bss           0x0000000000000000        0x0 /home/yuzuki/WorkSpace/melis-v3.0/melis-4.x-release/toolchain/riscv64-elf-x86_64-20201104/bin/../lib/gcc/riscv64-unknown-elf/8.4.0/../../../../riscv64-unknown-elf/lib/rv64imafdcxtheadc/lp64d/libc.a(lib_a-strstr.o)
 .data          0x0000000000000000        0x0 /home/yuzuki/WorkSpace/melis-v3.0/melis-4.x-release/toolchain/riscv64-elf-x86_64-20201104/bin/../lib/gcc/riscv64-unknown-elf/8.4.0/../../../../riscv64-unknown-elf/lib/rv64imafdcxtheadc/lp64d/libc.a(lib_a-sysclose.o)
 .bss           0x0000000000000000        0x0 /home/yuzuki/WorkSpace/melis-v3.0/melis-4.x-release/toolchain/riscv64-elf-x86_64-20201104/bin/../lib/gcc/riscv64-unknown-elf/8.4.0/../../../../riscv64-unknown-elf/lib/rv64imafdcxtheadc/lp64d/libc.a(lib_a-sysclose.o)
 .data          0x0000000000000000        0x0 /home/yuzuki/WorkSpace/melis-v3.0/melis-4.x-release/toolchain/riscv64-elf-x86_64-20201104/bin/../lib/gcc/riscv64-unknown-elf/8.4.0/../../../../riscv64-unknown-elf/lib/rv64imafdcxtheadc/lp64d/libc.a(lib_a-sysopen.o)
 .bss           0x0000000000000000        0x0 /home/yuzuki/WorkSpace/melis-v3.0/melis-4.x-release/toolchain/riscv64-elf-x86_64-20201104/bin/../lib/gcc/riscv64-unknown-elf/8.4.0/../../../../riscv64-unknown-elf/lib/rv64imafdcxtheadc/lp64d/libc.a(lib_a-sysopen.o)
 .data          0x0000000000000000        0x0 /home/yuzuki/WorkSpace/melis-v3.0/melis-4.x-release/toolchain/riscv64-elf-x86_64-20201104/bin/../lib/gcc/riscv64-unknown-elf/8.4.0/../../../../riscv64-unknown-elf/lib/rv64imafdcxtheadc/lp64d/libc.a(lib_a-flags.o)
 .bss           0x0000000000000000        0x0 /home/yuzuki/WorkSpace/melis-v3.0/melis-4.x-release/toolchain/riscv64-elf-x86_64-20201104/bin/../lib/gcc/riscv64-unknown-elf/8.4.0/../../../../riscv64-unknown-elf/lib/rv64imafdcxtheadc/lp64d/libc.a(lib_a-flags.o)
 .data          0x0000000000000000        0x0 /home/yuzuki/WorkSpace/melis-v3.0/melis-4.x-release/toolchain/riscv64-elf-x86_64-20201104/bin/../lib/gcc/riscv64-unknown-elf/8.4.0/../../../../riscv64-unknown-elf/lib/rv64imafdcxtheadc/lp64d/libc.a(lib_a-fvwrite.o)
 .bss           0x0000000000000000        0x0 /home/yuzuki/WorkSpace/melis-v3.0/melis-4.x-release/toolchain/riscv64-elf-x86_64-20201104/bin/../lib/gcc/riscv64-unknown-elf/8.4.0/../../../../riscv64-unknown-elf/lib/rv64imafdcxtheadc/lp64d/libc.a(lib_a-fvwrite.o)
 .data          0x0000000000000000        0x0 /home/yuzuki/WorkSpace/melis-v3.0/melis-4.x-release/toolchain/riscv64-elf-x86_64-20201104/bin/../lib/gcc/riscv64-unknown-elf/8.4.0/../../../../riscv64-unknown-elf/lib/rv64imafdcxtheadc/lp64d/libc.a(lib_a-memchr.o)
 .bss           0x0000000000000000        0x0 /home/yuzuki/WorkSpace/melis-v3.0/melis-4.x-release/toolchain/riscv64-elf-x86_64-20201104/bin/../lib/gcc/riscv64-unknown-elf/8.4.0/../../../../riscv64-unknown-elf/lib/rv64imafdcxtheadc/lp64d/libc.a(lib_a-memchr.o)
 .data          0x0000000000000000        0x0 /home/yuzuki/WorkSpace/melis-v3.0/melis-4.x-release/toolchain/riscv64-elf-x86_64-20201104/bin/../lib/gcc/riscv64-unknown-elf/8.4.0/../../../../riscv64-unknown-elf/lib/rv64imafdcxtheadc/lp64d/libc.a(lib_a-memcmp.o)
 .bss           0x0000000000000000        0x0 /home/yuzuki/WorkSpace/melis-v3.0/melis-4.x-release/toolchain/riscv64-elf-x86_64-20201104/bin/../lib/gcc/riscv64-unknown-elf/8.4.0/../../../../riscv64-unknown-elf/lib/rv64imafdcxtheadc/lp64d/libc.a(lib_a-memcmp.o)
 .data          0x0000000000000000        0x0 /home/yuzuki/WorkSpace/melis-v3.0/melis-4.x-release/toolchain/riscv64-elf-x86_64-20201104/bin/../lib/gcc/riscv64-unknown-elf/8.4.0/../../../../riscv64-unknown-elf/lib/rv64imafdcxtheadc/lp64d/libc.a(lib_a-memmove-stub.o)
 .bss           0x0000000000000000        0x0 /home/yuzuki/WorkSpace/melis-v3.0/melis-4.x-release/toolchain/riscv64-elf-x86_64-20201104/bin/../lib/gcc/riscv64-unknown-elf/8.4.0/../../../../riscv64-unknown-elf/lib/rv64imafdcxtheadc/lp64d/libc.a(lib_a-memmove-stub.o)
 .data          0x0000000000000000        0x0 /home/yuzuki/WorkSpace/melis-v3.0/melis-4.x-release/toolchain/riscv64-elf-x86_64-20201104/bin/../lib/gcc/riscv64-unknown-elf/8.4.0/../../../../riscv64-unknown-elf/lib/rv64imafdcxtheadc/lp64d/libc.a(lib_a-strchr.o)
 .bss           0x0000000000000000        0x0 /home/yuzuki/WorkSpace/melis-v3.0/melis-4.x-release/toolchain/riscv64-elf-x86_64-20201104/bin/../lib/gcc/riscv64-unknown-elf/8.4.0/../../../../riscv64-unknown-elf/lib/rv64imafdcxtheadc/lp64d/libc.a(lib_a-strchr.o)
 .data          0x0000000000000000        0x0 /home/yuzuki/WorkSpace/melis-v3.0/melis-4.x-release/toolchain/riscv64-elf-x86_64-20201104/bin/../lib/gcc/riscv64-unknown-elf/8.4.0/../../../../riscv64-unknown-elf/lib/rv64imafdcxtheadc/lp64d/libc.a(lib_a-wsetup.o)
 .bss           0x0000000000000000        0x0 /home/yuzuki/WorkSpace/melis-v3.0/melis-4.x-release/toolchain/riscv64-elf-x86_64-20201104/bin/../lib/gcc/riscv64-unknown-elf/8.4.0/../../../../riscv64-unknown-elf/lib/rv64imafdcxtheadc/lp64d/libc.a(lib_a-wsetup.o)

Memory Configuration

Name             Origin             Length             Attributes
dram0_0_seg      0x0000000040000000 0x0000000004000000 xrw
dram0_1_seg      0x00000000e0000000 0x0000000010000000 xrw
dram0_2_seg      0x00000000e1f00000 0x0000000000100000 xrw
magic_info_seg   0x00000000ffff0000 0x0000000000000100 r
*default*        0x0000000000000000 0xffffffffffffffff

Linker script and memory map

LOAD livedesk/beetles/mod_desktop/desktop_api.o
LOAD livedesk/beetles/mod_desktop/mod_desktop.o
LOAD livedesk/beetles/mod_desktop/magic.o
LOAD livedesk/beetles/mod_desktop/built-in.o
LOAD livedesk/beetles/mod_desktop/engine/built-in.o
LOAD livedesk/beetles/mod_desktop/framework/built-in.o
LOAD livedesk/beetles/mod_desktop/functions/built-in.o
LOAD livedesk/beetles/mod_desktop/msg_srv/built-in.o
LOAD livedesk/beetles/mod_desktop/util/built-in.o
START GROUP
START GROUP
LOAD ./elibrary/bin//libsyscall.a
LOAD ./elibrary/bin//libminic.a
LOAD ./elibrary/bin//liblzma.a
LOAD ./elibrary/bin//libcharset.a
LOAD ./elibrary/bin//libmediainfo.a
END GROUP
LOAD /home/yuzuki/WorkSpace/melis-v3.0/melis-4.x-release/toolchain/riscv64-elf-x86_64-20201104/bin/../lib/gcc/riscv64-unknown-elf/8.4.0/../../../../riscv64-unknown-elf/lib/rv64imafdcxtheadc/lp64d/libstdc++.a
LOAD /home/yuzuki/WorkSpace/melis-v3.0/melis-4.x-release/toolchain/riscv64-elf-x86_64-20201104/bin/../lib/gcc/riscv64-unknown-elf/8.4.0/../../../../riscv64-unknown-elf/lib/rv64imafdcxtheadc/lp64d/libc.a
LOAD /home/yuzuki/WorkSpace/melis-v3.0/melis-4.x-release/toolchain/riscv64-elf-x86_64-20201104/bin/../lib/gcc/riscv64-unknown-elf/8.4.0/rv64imafdcxtheadc/lp64d/libgcc.a
LOAD /home/yuzuki/WorkSpace/melis-v3.0/melis-4.x-release/toolchain/riscv64-elf-x86_64-20201104/bin/../lib/gcc/riscv64-unknown-elf/8.4.0/../../../../riscv64-unknown-elf/lib/rv64imafdcxtheadc/lp64d/libm.a
END GROUP
                0x00000000e1f00000                __DRAM0_MOD_BASE = ORIGIN (dram0_2_seg)
                0x00000000ffff0000                __DRAM0_INF_BASE = ORIGIN (magic_info_seg)
                0x00000000e1f00000                __DRAM0_MOD_BASE = ORIGIN (dram0_2_seg)
                0x00000000ffff0000                __DRAM0_INF_BASE = ORIGIN (magic_info_seg)
                0x00000000e1f00000                . = __DRAM0_MOD_BASE

DESKTOP_API_TBL
                0x00000000e1f00000      0xc28
 *desktop_api.o(DESKTOP_API_TBL)
 DESKTOP_API_TBL
                0x00000000e1f00000      0xc28 livedesk/beetles/mod_desktop/desktop_api.o
                0x00000000e1f00000                desktop_api

.mod.text       0x00000000e1f00c28    0x1596c
 *(.text)
 *fill*         0x00000000e1f00c28        0x8 
 .text          0x00000000e1f00c30       0xc0 /home/yuzuki/WorkSpace/melis-v3.0/melis-4.x-release/toolchain/riscv64-elf-x86_64-20201104/bin/../lib/gcc/riscv64-unknown-elf/8.4.0/../../../../riscv64-unknown-elf/lib/rv64imafdcxtheadc/lp64d/libc.a(lib_a-fclose.o)
                0x00000000e1f00c30                _fclose_r
                0x00000000e1f00ce0                fclose
 .text          0x00000000e1f00cf0      0x218 /home/yuzuki/WorkSpace/melis-v3.0/melis-4.x-release/toolchain/riscv64-elf-x86_64-20201104/bin/../lib/gcc/riscv64-unknown-elf/8.4.0/../../../../riscv64-unknown-elf/lib/rv64imafdcxtheadc/lp64d/libc.a(lib_a-fflush.o)
                0x00000000e1f00cf0                __sflush_r
                0x00000000e1f00e90                _fflush_r
                0x00000000e1f00ed0                fflush
 *fill*         0x00000000e1f00f08        0x8 
 .text          0x00000000e1f00f10      0x334 /home/yuzuki/WorkSpace/melis-v3.0/melis-4.x-release/toolchain/riscv64-elf-x86_64-20201104/bin/../lib/gcc/riscv64-unknown-elf/8.4.0/../../../../riscv64-unknown-elf/lib/rv64imafdcxtheadc/lp64d/libc.a(lib_a-findfp.o)
                0x00000000e1f00f20                _cleanup_r
                0x00000000e1f01070                __sfmoreglue
                0x00000000e1f010c0                __sfp
                0x00000000e1f01190                _cleanup
                0x00000000e1f011b0                __sinit
                0x00000000e1f011c0                __sfp_lock_acquire
                0x00000000e1f011d0                __sfp_lock_release
                0x00000000e1f011e0                __sinit_lock_acquire
                0x00000000e1f011f0                __sinit_lock_release
                0x00000000e1f01200                __fp_lock_all
                0x00000000e1f01220                __fp_unlock_all
 *fill*         0x00000000e1f01244        0xc 
 .text          0x00000000e1f01250       0xd8 /home/yuzuki/WorkSpace/melis-v3.0/melis-4.x-release/toolchain/riscv64-elf-x86_64-20201104/bin/../lib/gcc/riscv64-unknown-elf/8.4.0/../../../../riscv64-unknown-elf/lib/rv64imafdcxtheadc/lp64d/libc.a(lib_a-fopen.o)
                0x00000000e1f01250                _fopen_r
                0x00000000e1f01310                fopen
 *fill*         0x00000000e1f01328        0x8 
 .text          0x00000000e1f01330       0x28 /home/yuzuki/WorkSpace/melis-v3.0/melis-4.x-release/toolchain/riscv64-elf-x86_64-20201104/bin/../lib/gcc/riscv64-unknown-elf/8.4.0/../../../../riscv64-unknown-elf/lib/rv64imafdcxtheadc/lp64d/libc.a(lib_a-fseek.o)
                0x00000000e1f01330                _fseek_r
                0x00000000e1f01340                fseek
 *fill*         0x00000000e1f01358        0x8 
 .text          0x00000000e1f01360      0x358 /home/yuzuki/WorkSpace/melis-v3.0/melis-4.x-release/toolchain/riscv64-elf-x86_64-20201104/bin/../lib/gcc/riscv64-unknown-elf/8.4.0/../../../../riscv64-unknown-elf/lib/rv64imafdcxtheadc/lp64d/libc.a(lib_a-fseeko.o)
                0x00000000e1f01360                _fseeko_r
                0x00000000e1f016a0                fseeko
 *fill*         0x00000000e1f016b8        0x8 
 .text          0x00000000e1f016c0      0x130 /home/yuzuki/WorkSpace/melis-v3.0/melis-4.x-release/toolchain/riscv64-elf-x86_64-20201104/bin/../lib/gcc/riscv64-unknown-elf/8.4.0/../../../../riscv64-unknown-elf/lib/rv64imafdcxtheadc/lp64d/libc.a(lib_a-fwalk.o)
                0x00000000e1f016c0                _fwalk
                0x00000000e1f01750                _fwalk_reent
 .text          0x00000000e1f017f0       0x9a /home/yuzuki/WorkSpace/melis-v3.0/melis-4.x-release/toolchain/riscv64-elf-x86_64-20201104/bin/../lib/gcc/riscv64-unknown-elf/8.4.0/../../../../riscv64-unknown-elf/lib/rv64imafdcxtheadc/lp64d/libc.a(lib_a-fwrite.o)
                0x00000000e1f017f0                _fwrite_r
                0x00000000e1f01870                fwrite
 *fill*         0x00000000e1f0188a        0x6 
 .text          0x00000000e1f01890      0x15a /home/yuzuki/WorkSpace/melis-v3.0/melis-4.x-release/toolchain/riscv64-elf-x86_64-20201104/bin/../lib/gcc/riscv64-unknown-elf/8.4.0/../../../../riscv64-unknown-elf/lib/rv64imafdcxtheadc/lp64d/libc.a(lib_a-makebuf.o)
                0x00000000e1f01890                __swhatbuf_r
                0x00000000e1f01920                __smakebuf_r
 *fill*         0x00000000e1f019ea        0x6 
 .text          0x00000000e1f019f0       0xd0 /home/yuzuki/WorkSpace/melis-v3.0/melis-4.x-release/toolchain/riscv64-elf-x86_64-20201104/bin/../lib/gcc/riscv64-unknown-elf/8.4.0/../../../../riscv64-unknown-elf/lib/rv64imafdcxtheadc/lp64d/libc.a(lib_a-memcpy.o)
                0x00000000e1f019f0                memcpy
 .text          0x00000000e1f01ac0       0xaa /home/yuzuki/WorkSpace/melis-v3.0/melis-4.x-release/toolchain/riscv64-elf-x86_64-20201104/bin/../lib/gcc/riscv64-unknown-elf/8.4.0/../../../../riscv64-unknown-elf/lib/rv64imafdcxtheadc/lp64d/libc.a(lib_a-memset.o)
                0x00000000e1f01ac0                memset
 *fill*         0x00000000e1f01b6a        0x6 
 .text          0x00000000e1f01b70      0x18c /home/yuzuki/WorkSpace/melis-v3.0/melis-4.x-release/toolchain/riscv64-elf-x86_64-20201104/bin/../lib/gcc/riscv64-unknown-elf/8.4.0/../../../../riscv64-unknown-elf/lib/rv64imafdcxtheadc/lp64d/libc.a(lib_a-refill.o)
                0x00000000e1f01b90                __srefill_r
 *fill*         0x00000000e1f01cfc        0x4 
 .text          0x00000000e1f01d00      0x10e /home/yuzuki/WorkSpace/melis-v3.0/melis-4.x-release/toolchain/riscv64-elf-x86_64-20201104/bin/../lib/gcc/riscv64-unknown-elf/8.4.0/../../../../riscv64-unknown-elf/lib/rv64imafdcxtheadc/lp64d/libc.a(lib_a-stdio.o)
                0x00000000e1f01d00                __sread
                0x00000000e1f01d40                __seofread
                0x00000000e1f01d50                __swrite
                0x00000000e1f01db0                __sseek
                0x00000000e1f01e00                __sclose
 *fill*         0x00000000e1f01e0e        0x2 
 .text          0x00000000e1f01e10       0x58 /home/yuzuki/WorkSpace/melis-v3.0/melis-4.x-release/toolchain/riscv64-elf-x86_64-20201104/bin/../lib/gcc/riscv64-unknown-elf/8.4.0/../../../../riscv64-unknown-elf/lib/rv64imafdcxtheadc/lp64d/libc.a(lib_a-strcat.o)
                0x00000000e1f01e10                strcat
 .text          0x00000000e1f01e68       0x86 /home/yuzuki/WorkSpace/melis-v3.0/melis-4.x-release/toolchain/riscv64-elf-x86_64-20201104/bin/../lib/gcc/riscv64-unknown-elf/8.4.0/../../../../riscv64-unknown-elf/lib/rv64imafdcxtheadc/lp64d/libc.a(lib_a-strcmp.o)
                0x00000000e1f01e68                strcmp
 *fill*         0x00000000e1f01eee        0x2 
 .text          0x00000000e1f01ef0       0xb0 /home/yuzuki/WorkSpace/melis-v3.0/melis-4.x-release/toolchain/riscv64-elf-x86_64-20201104/bin/../lib/gcc/riscv64-unknown-elf/8.4.0/../../../../riscv64-unknown-elf/lib/rv64imafdcxtheadc/lp64d/libc.a(lib_a-strcpy.o)
                0x00000000e1f01ef0                strcpy
 .text          0x00000000e1f01fa0       0xa0 /home/yuzuki/WorkSpace/melis-v3.0/melis-4.x-release/toolchain/riscv64-elf-x86_64-20201104/bin/../lib/gcc/riscv64-unknown-elf/8.4.0/../../../../riscv64-unknown-elf/lib/rv64imafdcxtheadc/lp64d/libc.a(lib_a-strlen.o)
                0x00000000e1f01fa0                strlen
 *fill*         0x00000000e1f02040        0x0 
 .text          0x00000000e1f02040       0xbc /home/yuzuki/WorkSpace/melis-v3.0/melis-4.x-release/toolchain/riscv64-elf-x86_64-20201104/bin/../lib/gcc/riscv64-unknown-elf/8.4.0/../../../../riscv64-unknown-elf/lib/rv64imafdcxtheadc/lp64d/libc.a(lib_a-strncmp.o)
                0x00000000e1f02040                strncmp
 *fill*         0x00000000e1f020fc        0x4 
 .text          0x00000000e1f02100       0xa8 /home/yuzuki/WorkSpace/melis-v3.0/melis-4.x-release/toolchain/riscv64-elf-x86_64-20201104/bin/../lib/gcc/riscv64-unknown-elf/8.4.0/../../../../riscv64-unknown-elf/lib/rv64imafdcxtheadc/lp64d/libc.a(lib_a-strncpy.o)
                0x00000000e1f02100                strncpy
 *fill*         0x00000000e1f021a8        0x8 
 .text          0x00000000e1f021b0      0x564 /home/yuzuki/WorkSpace/melis-v3.0/melis-4.x-release/toolchain/riscv64-elf-x86_64-20201104/bin/../lib/gcc/riscv64-unknown-elf/8.4.0/../../../../riscv64-unknown-elf/lib/rv64imafdcxtheadc/lp64d/libc.a(lib_a-strstr.o)
                0x00000000e1f024e0                strstr
 *fill*         0x00000000e1f02714        0xc 
 .text          0x00000000e1f02720       0x1e /home/yuzuki/WorkSpace/melis-v3.0/melis-4.x-release/toolchain/riscv64-elf-x86_64-20201104/bin/../lib/gcc/riscv64-unknown-elf/8.4.0/../../../../riscv64-unknown-elf/lib/rv64imafdcxtheadc/lp64d/libc.a(lib_a-sysclose.o)
                0x00000000e1f02720                close
 *fill*         0x00000000e1f0273e        0x2 
 .text          0x00000000e1f02740       0x3e /home/yuzuki/WorkSpace/melis-v3.0/melis-4.x-release/toolchain/riscv64-elf-x86_64-20201104/bin/../lib/gcc/riscv64-unknown-elf/8.4.0/../../../../riscv64-unknown-elf/lib/rv64imafdcxtheadc/lp64d/libc.a(lib_a-sysopen.o)
                0x00000000e1f02740                open
 *fill*         0x00000000e1f0277e        0x2 
 .text          0x00000000e1f02780       0x9c /home/yuzuki/WorkSpace/melis-v3.0/melis-4.x-release/toolchain/riscv64-elf-x86_64-20201104/bin/../lib/gcc/riscv64-unknown-elf/8.4.0/../../../../riscv64-unknown-elf/lib/rv64imafdcxtheadc/lp64d/libc.a(lib_a-flags.o)
                0x00000000e1f02780                __sflags
 *fill*         0x00000000e1f0281c        0x4 
 .text          0x00000000e1f02820      0x360 /home/yuzuki/WorkSpace/melis-v3.0/melis-4.x-release/toolchain/riscv64-elf-x86_64-20201104/bin/../lib/gcc/riscv64-unknown-elf/8.4.0/../../../../riscv64-unknown-elf/lib/rv64imafdcxtheadc/lp64d/libc.a(lib_a-fvwrite.o)
                0x00000000e1f02820                __sfvwrite_r
 *fill*         0x00000000e1f02b80        0x0 
 .text          0x00000000e1f02b80       0xba /home/yuzuki/WorkSpace/melis-v3.0/melis-4.x-release/toolchain/riscv64-elf-x86_64-20201104/bin/../lib/gcc/riscv64-unknown-elf/8.4.0/../../../../riscv64-unknown-elf/lib/rv64imafdcxtheadc/lp64d/libc.a(lib_a-memchr.o)
                0x00000000e1f02b80                memchr
 *fill*         0x00000000e1f02c3a        0x6 
 .text          0x00000000e1f02c40       0x66 /home/yuzuki/WorkSpace/melis-v3.0/melis-4.x-release/toolchain/riscv64-elf-x86_64-20201104/bin/../lib/gcc/riscv64-unknown-elf/8.4.0/../../../../riscv64-unknown-elf/lib/rv64imafdcxtheadc/lp64d/libc.a(lib_a-memcmp.o)
                0x00000000e1f02c40                memcmp
 .text          0x00000000e1f02ca6       0xd2 /home/yuzuki/WorkSpace/melis-v3.0/melis-4.x-release/toolchain/riscv64-elf-x86_64-20201104/bin/../lib/gcc/riscv64-unknown-elf/8.4.0/../../../../riscv64-unknown-elf/lib/rv64imafdcxtheadc/lp64d/libc.a(lib_a-memmove-stub.o)
                0x00000000e1f02ca6                memmove
 *fill*         0x00000000e1f02d78        0x8 
 .text          0x00000000e1f02d80      0x112 /home/yuzuki/WorkSpace/melis-v3.0/melis-4.x-release/toolchain/riscv64-elf-x86_64-20201104/bin/../lib/gcc/riscv64-unknown-elf/8.4.0/../../../../riscv64-unknown-elf/lib/rv64imafdcxtheadc/lp64d/libc.a(lib_a-strchr.o)
                0x00000000e1f02d80                strchr
 *fill*         0x00000000e1f02e92        0xe 
 .text          0x00000000e1f02ea0      0x104 /home/yuzuki/WorkSpace/melis-v3.0/melis-4.x-release/toolchain/riscv64-elf-x86_64-20201104/bin/../lib/gcc/riscv64-unknown-elf/8.4.0/../../../../riscv64-unknown-elf/lib/rv64imafdcxtheadc/lp64d/libc.a(lib_a-wsetup.o)
                0x00000000e1f02ea0                __swsetup_r
 *(.text.*)
 .text.DESKTOP_MInit
                0x00000000e1f02fa4        0x4 livedesk/beetles/mod_desktop/mod_desktop.o
                0x00000000e1f02fa4                DESKTOP_MInit
 .text.DESKTOP_MExit
                0x00000000e1f02fa8        0x4 livedesk/beetles/mod_desktop/mod_desktop.o
                0x00000000e1f02fa8                DESKTOP_MExit
 .text.DESKTOP_MOpen
                0x00000000e1f02fac       0xaa livedesk/beetles/mod_desktop/mod_desktop.o
                0x00000000e1f02fac                DESKTOP_MOpen
 .text.DESKTOP_MClose
                0x00000000e1f03056       0x2e livedesk/beetles/mod_desktop/mod_desktop.o
                0x00000000e1f03056                DESKTOP_MClose
 .text.DESKTOP_MRead
                0x00000000e1f03084        0x6 livedesk/beetles/mod_desktop/mod_desktop.o
                0x00000000e1f03084                DESKTOP_MRead
 .text.DESKTOP_MWrite
                0x00000000e1f0308a        0x6 livedesk/beetles/mod_desktop/mod_desktop.o
                0x00000000e1f0308a                DESKTOP_MWrite
 .text.DESKTOP_MIoctrl
                0x00000000e1f03090        0x4 livedesk/beetles/mod_desktop/mod_desktop.o
                0x00000000e1f03090                DESKTOP_MIoctrl
 .text.dsk_radio_open
                0x00000000e1f03094       0x78 livedesk/beetles/mod_desktop/engine/built-in.o
                0x00000000e1f03094                dsk_radio_open
 .text.dsk_radio_is_open
                0x00000000e1f0310c       0x10 livedesk/beetles/mod_desktop/engine/built-in.o
                0x00000000e1f0310c                dsk_radio_is_open
 .text.dsk_radio_set_cb
                0x00000000e1f0311c       0x54 livedesk/beetles/mod_desktop/engine/built-in.o
                0x00000000e1f0311c                dsk_radio_set_cb
 .text.dsk_radio_get_cb
                0x00000000e1f03170       0x12 livedesk/beetles/mod_desktop/engine/built-in.o
                0x00000000e1f03170                dsk_radio_get_cb
 .text.dsk_radio_get_vol
                0x00000000e1f03182       0x6e livedesk/beetles/mod_desktop/engine/built-in.o
                0x00000000e1f03182                dsk_radio_get_vol
 .text.dsk_radio_set_vol
                0x00000000e1f031f0       0x6a livedesk/beetles/mod_desktop/engine/built-in.o
                0x00000000e1f031f0                dsk_radio_set_vol
 .text.dsk_radio_mute
                0x00000000e1f0325a       0x70 livedesk/beetles/mod_desktop/engine/built-in.o
                0x00000000e1f0325a                dsk_radio_mute
 .text.dsk_radio_unmute
                0x00000000e1f032ca       0x70 livedesk/beetles/mod_desktop/engine/built-in.o
                0x00000000e1f032ca                dsk_radio_unmute
 .text.dsk_radio_set_band
                0x00000000e1f0333a       0xc8 livedesk/beetles/mod_desktop/engine/built-in.o
                0x00000000e1f0333a                dsk_radio_set_band
 .text.dsk_radio_set_threshold
                0x00000000e1f03402       0x80 livedesk/beetles/mod_desktop/engine/built-in.o
                0x00000000e1f03402                dsk_radio_set_threshold
 .text.dsk_radio_set_audio_mode
                0x00000000e1f03482       0x9c livedesk/beetles/mod_desktop/engine/built-in.o
                0x00000000e1f03482                dsk_radio_set_audio_mode
 .text.dsk_radio_get_band
                0x00000000e1f0351e       0x5c livedesk/beetles/mod_desktop/engine/built-in.o
                0x00000000e1f0351e                dsk_radio_get_band
 .text.dsk_radio_get_audio_mode
                0x00000000e1f0357a       0x5e livedesk/beetles/mod_desktop/engine/built-in.o
                0x00000000e1f0357a                dsk_radio_get_audio_mode
 .text.dsk_radio_get_min_freq
                0x00000000e1f035d8       0x5c livedesk/beetles/mod_desktop/engine/built-in.o
                0x00000000e1f035d8                dsk_radio_get_min_freq
 .text.dsk_radio_get_max_freq
                0x00000000e1f03634       0x5c livedesk/beetles/mod_desktop/engine/built-in.o
                0x00000000e1f03634                dsk_radio_get_max_freq
 .text.dsk_radio_close
                0x00000000e1f03690       0x66 livedesk/beetles/mod_desktop/engine/built-in.o
                0x00000000e1f03690                dsk_radio_close
 .text.__autosearch_thread
                0x00000000e1f036f6      0x25a livedesk/beetles/mod_desktop/engine/built-in.o
                0x00000000e1f036f6                __autosearch_thread
 .text.dsk_radio_rcv_open
                0x00000000e1f03950       0x8e livedesk/beetles/mod_desktop/engine/built-in.o
                0x00000000e1f03950                dsk_radio_rcv_open
 .text.dsk_radio_rcv_is_open
                0x00000000e1f039de       0x10 livedesk/beetles/mod_desktop/engine/built-in.o
                0x00000000e1f039de                dsk_radio_rcv_is_open
 .text.dsk_radio_rcv_set_freq_play
                0x00000000e1f039ee       0xa4 livedesk/beetles/mod_desktop/engine/built-in.o
                0x00000000e1f039ee                dsk_radio_rcv_set_freq_play
 .text.dsk_radio_rcv_set_search_cb
                0x00000000e1f03a92       0x76 livedesk/beetles/mod_desktop/engine/built-in.o
                0x00000000e1f03a92                dsk_radio_rcv_set_search_cb
 .text.dsk_radio_rcv_auto_search
                0x00000000e1f03b08       0xb2 livedesk/beetles/mod_desktop/engine/built-in.o
                0x00000000e1f03b08                dsk_radio_rcv_auto_search
 .text.dsk_radio_rcv_get_cur_freq
                0x00000000e1f03bba       0x6e livedesk/beetles/mod_desktop/engine/built-in.o
                0x00000000e1f03bba                dsk_radio_rcv_get_cur_freq
 .text.dsk_radio_rcv_set_search_mode
                0x00000000e1f03c28       0x6a livedesk/beetles/mod_desktop/engine/built-in.o
                0x00000000e1f03c28                dsk_radio_rcv_set_search_mode
 .text.dsk_radio_get_search_flag
                0x00000000e1f03c92       0x5c livedesk/beetles/mod_desktop/engine/built-in.o
                0x00000000e1f03c92                dsk_radio_get_search_flag
 .text.dsk_radio_set_search_flag
                0x00000000e1f03cee       0x5a livedesk/beetles/mod_desktop/engine/built-in.o
                0x00000000e1f03cee                dsk_radio_set_search_flag
 .text.dsk_radio_set_manual_way
                0x00000000e1f03d48       0x5a livedesk/beetles/mod_desktop/engine/built-in.o
                0x00000000e1f03d48                dsk_radio_set_manual_way
 .text.dsk_radio_set_automanual_mode
                0x00000000e1f03da2       0x5a livedesk/beetles/mod_desktop/engine/built-in.o
                0x00000000e1f03da2                dsk_radio_set_automanual_mode
 .text.dsk_radio_rcv_search_all
                0x00000000e1f03dfc       0xa8 livedesk/beetles/mod_desktop/engine/built-in.o
                0x00000000e1f03dfc                dsk_radio_rcv_search_all
 .text.dsk_radio_rcv_next_freq_play
                0x00000000e1f03ea4       0xa0 livedesk/beetles/mod_desktop/engine/built-in.o
                0x00000000e1f03ea4                dsk_radio_rcv_next_freq_play
 .text.dsk_radio_rcv_pre_freq_play
                0x00000000e1f03f44       0xa0 livedesk/beetles/mod_desktop/engine/built-in.o
                0x00000000e1f03f44                dsk_radio_rcv_pre_freq_play
 .text.dsk_radio_rcv_set_play_list_type
                0x00000000e1f03fe4       0x5c livedesk/beetles/mod_desktop/engine/built-in.o
                0x00000000e1f03fe4                dsk_radio_rcv_set_play_list_type
 .text.dsk_radio_rcv_get_play_list_type
                0x00000000e1f04040       0x5e livedesk/beetles/mod_desktop/engine/built-in.o
                0x00000000e1f04040                dsk_radio_rcv_get_play_list_type
 .text.dsk_radio_rcv_get_search_result_vn
                0x00000000e1f0409e       0x58 livedesk/beetles/mod_desktop/engine/built-in.o
                0x00000000e1f0409e                dsk_radio_rcv_get_search_result_vn
 .text.dsk_radio_rcv_get_favorite_vn
                0x00000000e1f040f6       0x62 livedesk/beetles/mod_desktop/engine/built-in.o
                0x00000000e1f040f6                dsk_radio_rcv_get_favorite_vn
 .text.dsk_radio_rcv_get_search_result_chaninfo
                0x00000000e1f04158       0x76 livedesk/beetles/mod_desktop/engine/built-in.o
                0x00000000e1f04158                dsk_radio_rcv_get_search_result_chaninfo
 .text.dsk_radio_rcv_get_favorite_chaninfo
                0x00000000e1f041ce       0x7e livedesk/beetles/mod_desktop/engine/built-in.o
                0x00000000e1f041ce                dsk_radio_rcv_get_favorite_chaninfo
 .text.dsk_radio_rcv_get_favorite
                0x00000000e1f0424c       0xdc livedesk/beetles/mod_desktop/engine/built-in.o
                0x00000000e1f0424c                dsk_radio_rcv_get_favorite
 .text.dsk_radio_rcv_save_favorite
                0x00000000e1f04328       0x60 livedesk/beetles/mod_desktop/engine/built-in.o
                0x00000000e1f04328                dsk_radio_rcv_save_favorite
 .text.dsk_radio_rcv_get_search_result
                0x00000000e1f04388      0x136 livedesk/beetles/mod_desktop/engine/built-in.o
                0x00000000e1f04388                dsk_radio_rcv_get_search_result
 .text.dsk_radio_rcv_save_search_result
                0x00000000e1f044be       0xd6 livedesk/beetles/mod_desktop/engine/built-in.o
                0x00000000e1f044be                dsk_radio_rcv_save_search_result
 .text.dsk_radio_rcv_save_cur_freq
                0x00000000e1f04594      0x194 livedesk/beetles/mod_desktop/engine/built-in.o
                0x00000000e1f04594                dsk_radio_rcv_save_cur_freq
 .text.dsk_radio_rcv_add_chan_to_favorite
                0x00000000e1f04728       0xa0 livedesk/beetles/mod_desktop/engine/built-in.o
                0x00000000e1f04728                dsk_radio_rcv_add_chan_to_favorite
 .text.dsk_radio_rcv_del_chan_from_favorite
                0x00000000e1f047c8      0x102 livedesk/beetles/mod_desktop/engine/built-in.o
                0x00000000e1f047c8                dsk_radio_rcv_del_chan_from_favorite
 .text.dsk_radio_rcv_close
                0x00000000e1f048ca       0x62 livedesk/beetles/mod_desktop/engine/built-in.o
                0x00000000e1f048ca                dsk_radio_rcv_close
 .text.myitoa   0x00000000e1f0492c       0x22 livedesk/beetles/mod_desktop/engine/built-in.o
                0x00000000e1f0492c                myitoa
 .text.my_output_format
                0x00000000e1f0494e      0x1b0 livedesk/beetles/mod_desktop/engine/built-in.o
                0x00000000e1f0494e                my_output_format
 .text.myatoi   0x00000000e1f04afe       0x24 livedesk/beetles/mod_desktop/engine/built-in.o
                0x00000000e1f04afe                myatoi
 .text.check_list_file
                0x00000000e1f04b22       0xa0 livedesk/beetles/mod_desktop/engine/built-in.o
                0x00000000e1f04b22                check_list_file
 .text.get_channel_list_from_file
                0x00000000e1f04bc2      0x1ae livedesk/beetles/mod_desktop/engine/built-in.o
                0x00000000e1f04bc2                get_channel_list_from_file
 .text.write_channel_list_to_file
                0x00000000e1f04d70      0x11c livedesk/beetles/mod_desktop/engine/built-in.o
                0x00000000e1f04d70                write_channel_list_to_file
 .text.dsk_radio_send_open
                0x00000000e1f04e8c       0x58 livedesk/beetles/mod_desktop/engine/built-in.o
                0x00000000e1f04e8c                dsk_radio_send_open
 .text.dsk_radio_send_close
                0x00000000e1f04ee4       0x48 livedesk/beetles/mod_desktop/engine/built-in.o
                0x00000000e1f04ee4                dsk_radio_send_close
 .text.dsk_radio_send_is_open
                0x00000000e1f04f2c       0x10 livedesk/beetles/mod_desktop/engine/built-in.o
                0x00000000e1f04f2c                dsk_radio_send_is_open
 .text.dsk_radio_send_set_freq_play
                0x00000000e1f04f3c       0x96 livedesk/beetles/mod_desktop/engine/built-in.o
                0x00000000e1f04f3c                dsk_radio_send_set_freq_play
 .text.dsk_radio_send_get_cur_freq
                0x00000000e1f04fd2       0x5c livedesk/beetles/mod_desktop/engine/built-in.o
                0x00000000e1f04fd2                dsk_radio_send_get_cur_freq
 .text.dsk_radio_send_set_gain
                0x00000000e1f0502e       0x84 livedesk/beetles/mod_desktop/engine/built-in.o
                0x00000000e1f0502e                dsk_radio_send_set_gain
 .text.dsk_radio_send_get_gain
                0x00000000e1f050b2       0x5c livedesk/beetles/mod_desktop/engine/built-in.o
                0x00000000e1f050b2                dsk_radio_send_get_gain
 .text.dsk_wkm_init
                0x00000000e1f0510e       0x4c livedesk/beetles/mod_desktop/engine/built-in.o
                0x00000000e1f0510e                dsk_wkm_init
 .text.dsk_wkm_open
                0x00000000e1f0515a       0x3a livedesk/beetles/mod_desktop/engine/built-in.o
                0x00000000e1f0515a                dsk_wkm_open
 .text.dsk_wkm_close
                0x00000000e1f05194       0x1a livedesk/beetles/mod_desktop/engine/built-in.o
                0x00000000e1f05194                dsk_wkm_close
 .text.dsk_wkm_exit
                0x00000000e1f051ae       0x22 livedesk/beetles/mod_desktop/engine/built-in.o
                0x00000000e1f051ae                dsk_wkm_exit
 .text.dsk_wkm_is_open
                0x00000000e1f051d0       0x16 livedesk/beetles/mod_desktop/engine/built-in.o
                0x00000000e1f051d0                dsk_wkm_is_open
 .text.dsk_wkm_set_cb
                0x00000000e1f051e6       0x76 livedesk/beetles/mod_desktop/engine/built-in.o
                0x00000000e1f051e6                dsk_wkm_set_cb
 .text.dsk_wkm_get_cb
                0x00000000e1f0525c       0x50 livedesk/beetles/mod_desktop/engine/built-in.o
                0x00000000e1f0525c                dsk_wkm_get_cb
 .text.dsk_wkm_set_attr
                0x00000000e1f052ac        0x4 livedesk/beetles/mod_desktop/engine/built-in.o
                0x00000000e1f052ac                dsk_wkm_set_attr
 .text.dsk_wkm_get_attr
                0x00000000e1f052b0        0x4 livedesk/beetles/mod_desktop/engine/built-in.o
                0x00000000e1f052b0                dsk_wkm_get_attr
 .text.__dsk_wkm_orchid_close
                0x00000000e1f052b4       0x16 livedesk/beetles/mod_desktop/engine/built-in.o
                0x00000000e1f052b4                __dsk_wkm_orchid_close
 .text.__dsk_wkm_npl_delete
                0x00000000e1f052ca       0x36 livedesk/beetles/mod_desktop/engine/built-in.o
                0x00000000e1f052ca                __dsk_wkm_npl_delete
 .text.__dsk_wkm_cedar_open
                0x00000000e1f05300       0xe6 livedesk/beetles/mod_desktop/engine/built-in.o
                0x00000000e1f05300                __dsk_wkm_cedar_open
 .text.__dsk_wkm_cedar_close
                0x00000000e1f053e6       0x46 livedesk/beetles/mod_desktop/engine/built-in.o
                0x00000000e1f053e6                __dsk_wkm_cedar_close
 .text.__dsk_wkm_get_feedback_msgQ
                0x00000000e1f0542c       0x78 livedesk/beetles/mod_desktop/engine/built-in.o
                0x00000000e1f0542c                __dsk_wkm_get_feedback_msgQ
 .text.__dsk_wkm_res_mutex_create
                0x00000000e1f054a4       0x68 livedesk/beetles/mod_desktop/engine/built-in.o
                0x00000000e1f054a4                __dsk_wkm_res_mutex_create
 .text.__dsk_wkm_res_mutex_delete
                0x00000000e1f0550c       0x2c livedesk/beetles/mod_desktop/engine/built-in.o
                0x00000000e1f0550c                __dsk_wkm_res_mutex_delete
 .text.__dsk_wkm_set_open_state
                0x00000000e1f05538        0xa livedesk/beetles/mod_desktop/engine/built-in.o
                0x00000000e1f05538                __dsk_wkm_set_open_state
 .text.__dsk_wkm_get_open_state
                0x00000000e1f05542       0x12 livedesk/beetles/mod_desktop/engine/built-in.o
                0x00000000e1f05542                __dsk_wkm_get_open_state
 .text.__dsk_wkm_set_pause_state
                0x00000000e1f05554        0xa livedesk/beetles/mod_desktop/engine/built-in.o
                0x00000000e1f05554                __dsk_wkm_set_pause_state
 .text.__dsk_wkm_get_pause_state
                0x00000000e1f0555e       0x12 livedesk/beetles/mod_desktop/engine/built-in.o
                0x00000000e1f0555e                __dsk_wkm_get_pause_state
 .text.__dsk_wkm_set_playing_state
                0x00000000e1f05570        0xa livedesk/beetles/mod_desktop/engine/built-in.o
                0x00000000e1f05570                __dsk_wkm_set_playing_state
 .text.__dsk_wkm_get_playing_state
                0x00000000e1f0557a       0x12 livedesk/beetles/mod_desktop/engine/built-in.o
                0x00000000e1f0557a                __dsk_wkm_get_playing_state
 .text.__dsk_wkm_set_attr
                0x00000000e1f0558c        0xc livedesk/beetles/mod_desktop/engine/built-in.o
                0x00000000e1f0558c                __dsk_wkm_set_attr
 .text.__dsk_wkm_get_attr
                0x00000000e1f05598        0xc livedesk/beetles/mod_desktop/engine/built-in.o
                0x00000000e1f05598                __dsk_wkm_get_attr
 .text.__dsk_wkm_set_npl_dirty_flag
                0x00000000e1f055a4        0xa livedesk/beetles/mod_desktop/engine/built-in.o
                0x00000000e1f055a4                __dsk_wkm_set_npl_dirty_flag
 .text.__dsk_wkm_get_npl_dirty_flag
                0x00000000e1f055ae       0x12 livedesk/beetles/mod_desktop/engine/built-in.o
                0x00000000e1f055ae                __dsk_wkm_get_npl_dirty_flag
 .text.monitor  0x00000000e1f055c0      0x1ba livedesk/beetles/mod_desktop/engine/built-in.o
 .text.dsk_wkm_monitor_create
                0x00000000e1f0577a       0xae livedesk/beetles/mod_desktop/engine/built-in.o
                0x00000000e1f0577a                dsk_wkm_monitor_create
 .text.dsk_wkm_monitor_delete
                0x00000000e1f05828       0x3e livedesk/beetles/mod_desktop/engine/built-in.o
                0x00000000e1f05828                dsk_wkm_monitor_delete
 .text.__dsk_wkm_monitor_enable
                0x00000000e1f05866        0xc livedesk/beetles/mod_desktop/engine/built-in.o
                0x00000000e1f05866                __dsk_wkm_monitor_enable
 .text.__dsk_wkm_monitor_disable
                0x00000000e1f05872        0xe livedesk/beetles/mod_desktop/engine/built-in.o
                0x00000000e1f05872                __dsk_wkm_monitor_disable
 .text.dsk_wkm_set_ab_a
                0x00000000e1f05880       0x3c livedesk/beetles/mod_desktop/engine/built-in.o
                0x00000000e1f05880                dsk_wkm_set_ab_a
 .text.dsk_wkm_set_ab_b
                0x00000000e1f058bc       0x3c livedesk/beetles/mod_desktop/engine/built-in.o
                0x00000000e1f058bc                dsk_wkm_set_ab_b
 .text.dsk_wkm_set_ab_loop_count
                0x00000000e1f058f8       0x42 livedesk/beetles/mod_desktop/engine/built-in.o
                0x00000000e1f058f8                dsk_wkm_set_ab_loop_count
 .text.dsk_wkm_cancle_ab
                0x00000000e1f0593a       0x3c livedesk/beetles/mod_desktop/engine/built-in.o
                0x00000000e1f0593a                dsk_wkm_cancle_ab
 .text.dsk_wkm_set_eq_mode
                0x00000000e1f05976       0x42 livedesk/beetles/mod_desktop/engine/built-in.o
                0x00000000e1f05976                dsk_wkm_set_eq_mode
 .text.dsk_wkm_get_eq_mode
                0x00000000e1f059b8       0x3e livedesk/beetles/mod_desktop/engine/built-in.o
                0x00000000e1f059b8                dsk_wkm_get_eq_mode
 .text.dsk_wkm_set_eq_value
                0x00000000e1f059f6       0x42 livedesk/beetles/mod_desktop/engine/built-in.o
                0x00000000e1f059f6                dsk_wkm_set_eq_value
 .text.dsk_wkm_get_eq_value
                0x00000000e1f05a38       0x42 livedesk/beetles/mod_desktop/engine/built-in.o
                0x00000000e1f05a38                dsk_wkm_get_eq_value
 .text.dsk_wkm_eq_mode2value
                0x00000000e1f05a7a       0x4a livedesk/beetles/mod_desktop/engine/built-in.o
                0x00000000e1f05a7a                dsk_wkm_eq_mode2value
 .text.dsk_wkm_set_ff_rr_speed
                0x00000000e1f05ac4       0x48 livedesk/beetles/mod_desktop/engine/built-in.o
                0x00000000e1f05ac4                dsk_wkm_set_ff_rr_speed
 .text.dsk_wkm_get_ff_rr_speed
                0x00000000e1f05b0c       0x44 livedesk/beetles/mod_desktop/engine/built-in.o
                0x00000000e1f05b0c                dsk_wkm_get_ff_rr_speed
 .text.__dsk_wkm_set_ab_a
                0x00000000e1f05b50       0x28 livedesk/beetles/mod_desktop/engine/built-in.o
                0x00000000e1f05b50                __dsk_wkm_set_ab_a
 .text.__dsk_wkm_set_ab_b
                0x00000000e1f05b78       0x28 livedesk/beetles/mod_desktop/engine/built-in.o
                0x00000000e1f05b78                __dsk_wkm_set_ab_b
 .text.__dsk_wkm_set_ab_loop_count
                0x00000000e1f05ba0       0x2a livedesk/beetles/mod_desktop/engine/built-in.o
                0x00000000e1f05ba0                __dsk_wkm_set_ab_loop_count
 .text.__dsk_wkm_cancle_ab
                0x00000000e1f05bca       0x28 livedesk/beetles/mod_desktop/engine/built-in.o
                0x00000000e1f05bca                __dsk_wkm_cancle_ab
 .text.__dsk_wkm_set_eq_mode
                0x00000000e1f05bf2       0x2a livedesk/beetles/mod_desktop/engine/built-in.o
                0x00000000e1f05bf2                __dsk_wkm_set_eq_mode
 .text.__dsk_wkm_get_eq_mode
                0x00000000e1f05c1c       0x24 livedesk/beetles/mod_desktop/engine/built-in.o
                0x00000000e1f05c1c                __dsk_wkm_get_eq_mode
 .text.__dsk_wkm_set_eq_value
                0x00000000e1f05c40       0x30 livedesk/beetles/mod_desktop/engine/built-in.o
                0x00000000e1f05c40                __dsk_wkm_set_eq_value
 .text.__dsk_wkm_get_eq_value
                0x00000000e1f05c70        0xa livedesk/beetles/mod_desktop/engine/built-in.o
                0x00000000e1f05c70                __dsk_wkm_get_eq_value
 .text.__dsk_wkm_eq_mode2value
                0x00000000e1f05c7a        0xa livedesk/beetles/mod_desktop/engine/built-in.o
                0x00000000e1f05c7a                __dsk_wkm_eq_mode2value
 .text.__dsk_wkm_feedbackQ_create
                0x00000000e1f05c84       0x68 livedesk/beetles/mod_desktop/engine/built-in.o
                0x00000000e1f05c84                __dsk_wkm_feedbackQ_create
 .text.__dsk_wkm_feedbackQ_delete
                0x00000000e1f05cec       0x2c livedesk/beetles/mod_desktop/engine/built-in.o
                0x00000000e1f05cec                __dsk_wkm_feedbackQ_delete
 .text.__dsk_wkm_set_ff_rr_speed
                0x00000000e1f05d18       0x2c livedesk/beetles/mod_desktop/engine/built-in.o
                0x00000000e1f05d18                __dsk_wkm_set_ff_rr_speed
 .text.__dsk_wkm_get_ff_rr_speed
                0x00000000e1f05d44       0x22 livedesk/beetles/mod_desktop/engine/built-in.o
                0x00000000e1f05d44                __dsk_wkm_get_ff_rr_speed
 .text.__dsk_wkm_get_fsm_state
                0x00000000e1f05d66       0x24 livedesk/beetles/mod_desktop/engine/built-in.o
                0x00000000e1f05d66                __dsk_wkm_get_fsm_state
 .text.__dsk_wkm_play_file
                0x00000000e1f05d8a       0x3c livedesk/beetles/mod_desktop/engine/built-in.o
                0x00000000e1f05d8a                __dsk_wkm_play_file
 .text.__dsk_wkm_stop
                0x00000000e1f05dc6       0x1c livedesk/beetles/mod_desktop/engine/built-in.o
                0x00000000e1f05dc6                __dsk_wkm_stop
 .text.__dsk_wkm_pause
                0x00000000e1f05de2       0x1c livedesk/beetles/mod_desktop/engine/built-in.o
                0x00000000e1f05de2                __dsk_wkm_pause
 .text.__dsk_wkm_resume_play
                0x00000000e1f05dfe       0x1c livedesk/beetles/mod_desktop/engine/built-in.o
                0x00000000e1f05dfe                __dsk_wkm_resume_play
 .text.__dsk_wkm_ff
                0x00000000e1f05e1a       0x1c livedesk/beetles/mod_desktop/engine/built-in.o
                0x00000000e1f05e1a                __dsk_wkm_ff
 .text.__dsk_wkm_rr
                0x00000000e1f05e36       0x1c livedesk/beetles/mod_desktop/engine/built-in.o
                0x00000000e1f05e36                __dsk_wkm_rr
 .text.__dsk_wkm_jump
                0x00000000e1f05e52       0x1e livedesk/beetles/mod_desktop/engine/built-in.o
                0x00000000e1f05e52                __dsk_wkm_jump
 .text.__dsk_wkm_clear_feedback_msgQ
                0x00000000e1f05e70       0x14 livedesk/beetles/mod_desktop/engine/built-in.o
                0x00000000e1f05e70                __dsk_wkm_clear_feedback_msgQ
 .text.__dsk_wkm_get_feedback_msg
                0x00000000e1f05e84       0x1c livedesk/beetles/mod_desktop/engine/built-in.o
                0x00000000e1f05e84                __dsk_wkm_get_feedback_msg
 .text.__dsk_wkm_lyric_exist
                0x00000000e1f05ea0       0x28 livedesk/beetles/mod_desktop/engine/built-in.o
                0x00000000e1f05ea0                __dsk_wkm_lyric_exist
 .text.__dsk_wkm_get_lyric_format
                0x00000000e1f05ec8       0x24 livedesk/beetles/mod_desktop/engine/built-in.o
                0x00000000e1f05ec8                __dsk_wkm_get_lyric_format
 .text.__dsk_wkm_get_lyric_item_count
                0x00000000e1f05eec       0x2c livedesk/beetles/mod_desktop/engine/built-in.o
                0x00000000e1f05eec                __dsk_wkm_get_lyric_item_count
 .text.__dsk_wkm_get_lyric_item_list
                0x00000000e1f05f18       0x5e livedesk/beetles/mod_desktop/engine/built-in.o
                0x00000000e1f05f18                __dsk_wkm_get_lyric_item_list
 .text.is_all_blank
                0x00000000e1f05f76       0x22 livedesk/beetles/mod_desktop/engine/built-in.o
 .text.__dsk_wkm_get_audio_info_from_orchid
                0x00000000e1f05f98      0x12c livedesk/beetles/mod_desktop/engine/built-in.o
 .text.charset_convert
                0x00000000e1f060c4       0x9e livedesk/beetles/mod_desktop/engine/built-in.o
 .text.__dsk_wkm_get_audio_info_from_file
                0x00000000e1f06162      0x160 livedesk/beetles/mod_desktop/engine/built-in.o
 .text.__dsk_wkm_get_tag
                0x00000000e1f062c2       0x2e livedesk/beetles/mod_desktop/engine/built-in.o
                0x00000000e1f062c2                __dsk_wkm_get_tag
 .text.__dsk_wkm_get_cur_time
                0x00000000e1f062f0       0x22 livedesk/beetles/mod_desktop/engine/built-in.o
                0x00000000e1f062f0                __dsk_wkm_get_cur_time
 .text.__dsk_wkm_get_total_time
                0x00000000e1f06312       0x22 livedesk/beetles/mod_desktop/engine/built-in.o
                0x00000000e1f06312                __dsk_wkm_get_total_time
 .text.__dsk_wkm_get_audio_encoding
                0x00000000e1f06334       0x24 livedesk/beetles/mod_desktop/engine/built-in.o
                0x00000000e1f06334                __dsk_wkm_get_audio_encoding
 .text.__dsk_wkm_get_audio_bps
                0x00000000e1f06358       0x22 livedesk/beetles/mod_desktop/engine/built-in.o
                0x00000000e1f06358                __dsk_wkm_get_audio_bps
 .text.__dsk_wkm_get_audio_sample_rate
                0x00000000e1f0637a       0x22 livedesk/beetles/mod_desktop/engine/built-in.o
                0x00000000e1f0637a                __dsk_wkm_get_audio_sample_rate
 .text.__dsk_wkm_get_audio_info
                0x00000000e1f0639c       0x3c livedesk/beetles/mod_desktop/engine/built-in.o
                0x00000000e1f0639c                __dsk_wkm_get_audio_info
 .text.__dsk_wkm_get_album_cover
                0x00000000e1f063d8      0x1f2 livedesk/beetles/mod_desktop/engine/built-in.o
                0x00000000e1f063d8                __dsk_wkm_get_album_cover
 .text.__dsk_wkm_npl_add_item
                0x00000000e1f065ca       0x36 livedesk/beetles/mod_desktop/engine/built-in.o
                0x00000000e1f065ca                __dsk_wkm_npl_add_item
 .text.__dsk_wkm_npl_delete_item
                0x00000000e1f06600       0x36 livedesk/beetles/mod_desktop/engine/built-in.o
                0x00000000e1f06600                __dsk_wkm_npl_delete_item
 .text.__dsk_wkm_npl_clear
                0x00000000e1f06636       0x32 livedesk/beetles/mod_desktop/engine/built-in.o
                0x00000000e1f06636                __dsk_wkm_npl_clear
 .text.__dsk_wkm_npl_playing_seek
                0x00000000e1f06668       0x3a livedesk/beetles/mod_desktop/engine/built-in.o
                0x00000000e1f06668                __dsk_wkm_npl_playing_seek
 .text.__dsk_wkm_npl_get_next
                0x00000000e1f066a2       0x34 livedesk/beetles/mod_desktop/engine/built-in.o
                0x00000000e1f066a2                __dsk_wkm_npl_get_next
 .text.__dsk_wkm_npl_get_cur
                0x00000000e1f066d6       0x34 livedesk/beetles/mod_desktop/engine/built-in.o
                0x00000000e1f066d6                __dsk_wkm_npl_get_cur
 .text.__dsk_wkm_npl_file2index
                0x00000000e1f0670a       0x3a livedesk/beetles/mod_desktop/engine/built-in.o
                0x00000000e1f0670a                __dsk_wkm_npl_file2index
 .text.__dsk_wkm_npl_index2file
                0x00000000e1f06744       0x3a livedesk/beetles/mod_desktop/engine/built-in.o
                0x00000000e1f06744                __dsk_wkm_npl_index2file
 .text.__dsk_wkm_npl_get_total_count
                0x00000000e1f0677e       0x2a livedesk/beetles/mod_desktop/engine/built-in.o
                0x00000000e1f0677e                __dsk_wkm_npl_get_total_count
 .text.__dsk_wkm_npl_save_list
                0x00000000e1f067a8       0x32 livedesk/beetles/mod_desktop/engine/built-in.o
                0x00000000e1f067a8                __dsk_wkm_npl_save_list
 .text.__dsk_wkm_npl_load_last_list
                0x00000000e1f067da       0x32 livedesk/beetles/mod_desktop/engine/built-in.o
                0x00000000e1f067da                __dsk_wkm_npl_load_last_list
 .text.__dsk_wkm_npl_is_dirty
                0x00000000e1f0680c       0x2c livedesk/beetles/mod_desktop/engine/built-in.o
                0x00000000e1f0680c                __dsk_wkm_npl_is_dirty
 .text.__dsk_wkm_npl_clear_dirty_flag
                0x00000000e1f06838       0x32 livedesk/beetles/mod_desktop/engine/built-in.o
                0x00000000e1f06838                __dsk_wkm_npl_clear_dirty_flag
 .text.__dsk_wkm_set_play_mode
                0x00000000e1f0686a       0x36 livedesk/beetles/mod_desktop/engine/built-in.o
                0x00000000e1f0686a                __dsk_wkm_set_play_mode
 .text.__dsk_wkm_get_play_mode
                0x00000000e1f068a0       0x2e livedesk/beetles/mod_desktop/engine/built-in.o
                0x00000000e1f068a0                __dsk_wkm_get_play_mode
 .text.__dsk_wkm_set_play_speed
                0x00000000e1f068ce       0x2a livedesk/beetles/mod_desktop/engine/built-in.o
                0x00000000e1f068ce                __dsk_wkm_set_play_speed
 .text.__dsk_wkm_get_play_speed
                0x00000000e1f068f8       0x22 livedesk/beetles/mod_desktop/engine/built-in.o
                0x00000000e1f068f8                __dsk_wkm_get_play_speed
 .text.__dsk_wkm_enable_spectrum
                0x00000000e1f0691a       0x28 livedesk/beetles/mod_desktop/engine/built-in.o
                0x00000000e1f0691a                __dsk_wkm_enable_spectrum
 .text.__dsk_wkm_disable_spectrum
                0x00000000e1f06942       0x28 livedesk/beetles/mod_desktop/engine/built-in.o
                0x00000000e1f06942                __dsk_wkm_disable_spectrum
 .text.__dsk_wkm_get_spectrum_info
                0x00000000e1f0696a       0x30 livedesk/beetles/mod_desktop/engine/built-in.o
                0x00000000e1f0696a                __dsk_wkm_get_spectrum_info
 .text.__dsk_wkm_set_star
                0x00000000e1f0699a       0x4c livedesk/beetles/mod_desktop/engine/built-in.o
                0x00000000e1f0699a                __dsk_wkm_set_star
 .text.__dsk_wkm_get_star
                0x00000000e1f069e6       0x50 livedesk/beetles/mod_desktop/engine/built-in.o
                0x00000000e1f069e6                __dsk_wkm_get_star
 .text.__dsk_wkm_syn_op_play_file
                0x00000000e1f06a36       0xc4 livedesk/beetles/mod_desktop/engine/built-in.o
                0x00000000e1f06a36                __dsk_wkm_syn_op_play_file
 .text.__dsk_wkm_syn_op_stop
                0x00000000e1f06afa       0xd4 livedesk/beetles/mod_desktop/engine/built-in.o
                0x00000000e1f06afa                __dsk_wkm_syn_op_stop
 .text.__dsk_wkm_syn_op_resume_play
                0x00000000e1f06bce       0xc6 livedesk/beetles/mod_desktop/engine/built-in.o
                0x00000000e1f06bce                __dsk_wkm_syn_op_resume_play
 .text.__dsk_wkm_syn_op_ff
                0x00000000e1f06c94       0xd4 livedesk/beetles/mod_desktop/engine/built-in.o
                0x00000000e1f06c94                __dsk_wkm_syn_op_ff
 .text.__dsk_wkm_syn_op_rr
                0x00000000e1f06d68       0xd4 livedesk/beetles/mod_desktop/engine/built-in.o
                0x00000000e1f06d68                __dsk_wkm_syn_op_rr
 .text.__dsk_wkm_syn_op_pause
                0x00000000e1f06e3c       0xd2 livedesk/beetles/mod_desktop/engine/built-in.o
                0x00000000e1f06e3c                __dsk_wkm_syn_op_pause
 .text.__dsk_wkm_syn_op_jump
                0x00000000e1f06f0e       0xba livedesk/beetles/mod_desktop/engine/built-in.o
                0x00000000e1f06f0e                __dsk_wkm_syn_op_jump
 .text.dsk_wkm_get_fsm_state
                0x00000000e1f06fc8       0x44 livedesk/beetles/mod_desktop/engine/built-in.o
                0x00000000e1f06fc8                dsk_wkm_get_fsm_state
 .text.dsk_wkm_play_file
                0x00000000e1f0700c       0x6c livedesk/beetles/mod_desktop/engine/built-in.o
                0x00000000e1f0700c                dsk_wkm_play_file
 .text.dsk_wkm_play_next
                0x00000000e1f07078       0x50 livedesk/beetles/mod_desktop/engine/built-in.o
                0x00000000e1f07078                dsk_wkm_play_next
 .text.dsk_wkm_play_prev
                0x00000000e1f070c8       0x40 livedesk/beetles/mod_desktop/engine/built-in.o
                0x00000000e1f070c8                dsk_wkm_play_prev
 .text.dsk_wkm_stop
                0x00000000e1f07108       0x4c livedesk/beetles/mod_desktop/engine/built-in.o
                0x00000000e1f07108                dsk_wkm_stop
 .text.dsk_wkm_pause
                0x00000000e1f07154       0x4a livedesk/beetles/mod_desktop/engine/built-in.o
                0x00000000e1f07154                dsk_wkm_pause
 .text.dsk_wkm_resume_play
                0x00000000e1f0719e       0x4a livedesk/beetles/mod_desktop/engine/built-in.o
                0x00000000e1f0719e                dsk_wkm_resume_play
 .text.dsk_wkm_ff
                0x00000000e1f071e8       0x44 livedesk/beetles/mod_desktop/engine/built-in.o
                0x00000000e1f071e8                dsk_wkm_ff
 .text.dsk_wkm_rr
                0x00000000e1f0722c       0x44 livedesk/beetles/mod_desktop/engine/built-in.o
                0x00000000e1f0722c                dsk_wkm_rr
 .text.dsk_wkm_jump
                0x00000000e1f07270       0x48 livedesk/beetles/mod_desktop/engine/built-in.o
                0x00000000e1f07270                dsk_wkm_jump
 .text.dsk_wkm_is_playing
                0x00000000e1f072b8       0x16 livedesk/beetles/mod_desktop/engine/built-in.o
                0x00000000e1f072b8                dsk_wkm_is_playing
 .text.dsk_wkm_get_pause_state
                0x00000000e1f072ce       0x34 livedesk/beetles/mod_desktop/engine/built-in.o
                0x00000000e1f072ce                dsk_wkm_get_pause_state
 .text.dsk_wkm_clear_feedback_msgQ
                0x00000000e1f07302       0x32 livedesk/beetles/mod_desktop/engine/built-in.o
                0x00000000e1f07302                dsk_wkm_clear_feedback_msgQ
 .text.dsk_wkm_get_feedback_msg
                0x00000000e1f07334       0x3c livedesk/beetles/mod_desktop/engine/built-in.o
                0x00000000e1f07334                dsk_wkm_get_feedback_msg
 .text.dsk_wkm_lyric_exist
                0x00000000e1f07370       0x3c livedesk/beetles/mod_desktop/engine/built-in.o
                0x00000000e1f07370                dsk_wkm_lyric_exist
 .text.dsk_wkm_get_lyric_format
                0x00000000e1f073ac       0x3e livedesk/beetles/mod_desktop/engine/built-in.o
                0x00000000e1f073ac                dsk_wkm_get_lyric_format
 .text.dsk_wkm_get_lyric_item_count
                0x00000000e1f073ea       0x3c livedesk/beetles/mod_desktop/engine/built-in.o
                0x00000000e1f073ea                dsk_wkm_get_lyric_item_count
 .text.dsk_wkm_get_lyric_item_list
                0x00000000e1f07426       0x4a livedesk/beetles/mod_desktop/engine/built-in.o
                0x00000000e1f07426                dsk_wkm_get_lyric_item_list
 .text.dsk_wkm_get_now_playing_file
                0x00000000e1f07470       0x1e livedesk/beetles/mod_desktop/engine/built-in.o
                0x00000000e1f07470                dsk_wkm_get_now_playing_file
 .text.dsk_wkm_get_tag
                0x00000000e1f0748e       0x42 livedesk/beetles/mod_desktop/engine/built-in.o
                0x00000000e1f0748e                dsk_wkm_get_tag
 .text.dsk_wkm_get_cur_time
                0x00000000e1f074d0       0x3c livedesk/beetles/mod_desktop/engine/built-in.o
                0x00000000e1f074d0                dsk_wkm_get_cur_time
 .text.dsk_wkm_get_total_time
                0x00000000e1f0750c       0x3c livedesk/beetles/mod_desktop/engine/built-in.o
                0x00000000e1f0750c                dsk_wkm_get_total_time
 .text.dsk_wkm_get_audio_encoding
                0x00000000e1f07548       0x3c livedesk/beetles/mod_desktop/engine/built-in.o
                0x00000000e1f07548                dsk_wkm_get_audio_encoding
 .text.dsk_wkm_get_audio_bps
                0x00000000e1f07584       0x3e livedesk/beetles/mod_desktop/engine/built-in.o
                0x00000000e1f07584                dsk_wkm_get_audio_bps
 .text.dsk_wkm_get_audio_sample_rate
                0x00000000e1f075c2       0x3e livedesk/beetles/mod_desktop/engine/built-in.o
                0x00000000e1f075c2                dsk_wkm_get_audio_sample_rate
 .text.dsk_wkm_get_audio_info
                0x00000000e1f07600       0x4a livedesk/beetles/mod_desktop/engine/built-in.o
                0x00000000e1f07600                dsk_wkm_get_audio_info
 .text.dsk_wkm_get_album_cover
                0x00000000e1f0764a       0x56 livedesk/beetles/mod_desktop/engine/built-in.o
                0x00000000e1f0764a                dsk_wkm_get_album_cover
 .text.dsk_wkm_monitor_enable
                0x00000000e1f076a0       0x2e livedesk/beetles/mod_desktop/engine/built-in.o
                0x00000000e1f076a0                dsk_wkm_monitor_enable
 .text.dsk_wkm_monitor_disable
                0x00000000e1f076ce       0x2e livedesk/beetles/mod_desktop/engine/built-in.o
                0x00000000e1f076ce                dsk_wkm_monitor_disable
 .text.dsk_wkm_npl_add_item
                0x00000000e1f076fc       0x38 livedesk/beetles/mod_desktop/engine/built-in.o
                0x00000000e1f076fc                dsk_wkm_npl_add_item
 .text.dsk_wkm_npl_delete_item
                0x00000000e1f07734       0x38 livedesk/beetles/mod_desktop/engine/built-in.o
                0x00000000e1f07734                dsk_wkm_npl_delete_item
 .text.dsk_wkm_npl_clear
                0x00000000e1f0776c       0x34 livedesk/beetles/mod_desktop/engine/built-in.o
                0x00000000e1f0776c                dsk_wkm_npl_clear
 .text.dsk_wkm_npl_set_cur
                0x00000000e1f077a0       0x52 livedesk/beetles/mod_desktop/engine/built-in.o
                0x00000000e1f077a0                dsk_wkm_npl_set_cur
 .text.dsk_wkm_npl_get_cur
                0x00000000e1f077f2       0x3e livedesk/beetles/mod_desktop/engine/built-in.o
                0x00000000e1f077f2                dsk_wkm_npl_get_cur
 .text.dsk_wkm_npl_get_next
                0x00000000e1f07830       0x3e livedesk/beetles/mod_desktop/engine/built-in.o
                0x00000000e1f07830                dsk_wkm_npl_get_next
 .text.dsk_wkm_npl_file2index
                0x00000000e1f0786e       0x42 livedesk/beetles/mod_desktop/engine/built-in.o
                0x00000000e1f0786e                dsk_wkm_npl_file2index
 .text.dsk_wkm_npl_index2file
                0x00000000e1f078b0       0x4a livedesk/beetles/mod_desktop/engine/built-in.o
                0x00000000e1f078b0                dsk_wkm_npl_index2file
 .text.dsk_wkm_npl_get_total_count
                0x00000000e1f078fa       0x3e livedesk/beetles/mod_desktop/engine/built-in.o
                0x00000000e1f078fa                dsk_wkm_npl_get_total_count
 .text.dsk_wkm_npl_save_list
                0x00000000e1f07938       0x3e livedesk/beetles/mod_desktop/engine/built-in.o
                0x00000000e1f07938                dsk_wkm_npl_save_list
 .text.dsk_wkm_npl_load_last_list
                0x00000000e1f07976       0x3e livedesk/beetles/mod_desktop/engine/built-in.o
                0x00000000e1f07976                dsk_wkm_npl_load_last_list
 .text.dsk_wkm_set_play_mode
                0x00000000e1f079b4       0x34 livedesk/beetles/mod_desktop/engine/built-in.o
                0x00000000e1f079b4                dsk_wkm_set_play_mode
 .text.dsk_wkm_get_play_mode
                0x00000000e1f079e8       0x24 livedesk/beetles/mod_desktop/engine/built-in.o
                0x00000000e1f079e8                dsk_wkm_get_play_mode
 .text.dsk_wkm_set_play_speed
                0x00000000e1f07a0c       0x42 livedesk/beetles/mod_desktop/engine/built-in.o
                0x00000000e1f07a0c                dsk_wkm_set_play_speed
 .text.dsk_wkm_get_play_speed
                0x00000000e1f07a4e       0x3c livedesk/beetles/mod_desktop/engine/built-in.o
                0x00000000e1f07a4e                dsk_wkm_get_play_speed
 .text.dsk_wkm_enable_spectrum
                0x00000000e1f07a8a       0x3c livedesk/beetles/mod_desktop/engine/built-in.o
                0x00000000e1f07a8a                dsk_wkm_enable_spectrum
 .text.dsk_wkm_disable_spectrum
                0x00000000e1f07ac6       0x3c livedesk/beetles/mod_desktop/engine/built-in.o
                0x00000000e1f07ac6                dsk_wkm_disable_spectrum
 .text.dsk_wkm_get_spectrum_info
                0x00000000e1f07b02       0x42 livedesk/beetles/mod_desktop/engine/built-in.o
                0x00000000e1f07b02                dsk_wkm_get_spectrum_info
 .text.dsk_wkm_set_star
                0x00000000e1f07b44       0x42 livedesk/beetles/mod_desktop/engine/built-in.o
                0x00000000e1f07b44                dsk_wkm_set_star
 .text.dsk_wkm_get_star
                0x00000000e1f07b86       0x38 livedesk/beetles/mod_desktop/engine/built-in.o
                0x00000000e1f07b86                dsk_wkm_get_star
 .text.__applet_permission_mutex
                0x00000000e1f07bbe       0x1e livedesk/beetles/mod_desktop/framework/built-in.o
 .text.__applet_not_able_standby
                0x00000000e1f07bdc       0x1c livedesk/beetles/mod_desktop/framework/built-in.o
 .text.__get_applet_info_from_suffix
                0x00000000e1f07bf8       0x4e livedesk/beetles/mod_desktop/framework/built-in.o
 .text.__get_activity_from_name
                0x00000000e1f07c46       0x26 livedesk/beetles/mod_desktop/framework/built-in.o
 .text.__get_applet_info_from_name
                0x00000000e1f07c6c       0x26 livedesk/beetles/mod_desktop/framework/built-in.o
 .text.__activity_delete
                0x00000000e1f07c92       0x40 livedesk/beetles/mod_desktop/framework/built-in.o
 .text.__activity_main_win_cb
                0x00000000e1f07cd2       0x6e livedesk/beetles/mod_desktop/framework/built-in.o
 .text.__applet_kill_backgrd
                0x00000000e1f07d40       0x2c livedesk/beetles/mod_desktop/framework/built-in.o
 .text.__activity_load_common
                0x00000000e1f07d6c      0x314 livedesk/beetles/mod_desktop/framework/built-in.o
 .text.activity_init
                0x00000000e1f08080       0x5c livedesk/beetles/mod_desktop/framework/built-in.o
                0x00000000e1f08080                activity_init
 .text.activity_load_file
                0x00000000e1f080dc       0x3e livedesk/beetles/mod_desktop/framework/built-in.o
                0x00000000e1f080dc                activity_load_file
 .text.activity_load_app
                0x00000000e1f0811a       0x72 livedesk/beetles/mod_desktop/framework/built-in.o
                0x00000000e1f0811a                activity_load_app
 .text.activity_background_top
                0x00000000e1f0818c       0x44 livedesk/beetles/mod_desktop/framework/built-in.o
                0x00000000e1f0818c                activity_background_top
 .text.activity_return_home
                0x00000000e1f081d0       0x74 livedesk/beetles/mod_desktop/framework/built-in.o
                0x00000000e1f081d0                activity_return_home
 .text.activity_finish
                0x00000000e1f08244       0x2c livedesk/beetles/mod_desktop/framework/built-in.o
                0x00000000e1f08244                activity_finish
 .text.activity_finish_all
                0x00000000e1f08270       0x6c livedesk/beetles/mod_desktop/framework/built-in.o
                0x00000000e1f08270                activity_finish_all
 .text.activity_set_attr
                0x00000000e1f082dc       0x50 livedesk/beetles/mod_desktop/framework/built-in.o
                0x00000000e1f082dc                activity_set_attr
 .text.activity_get_attr
                0x00000000e1f0832c        0x6 livedesk/beetles/mod_desktop/framework/built-in.o
                0x00000000e1f0832c                activity_get_attr
 .text.activity_set_load_para
                0x00000000e1f08332       0xa4 livedesk/beetles/mod_desktop/framework/built-in.o
                0x00000000e1f08332                activity_set_load_para
 .text.activity_get_load_para
                0x00000000e1f083d6       0xc0 livedesk/beetles/mod_desktop/framework/built-in.o
                0x00000000e1f083d6                activity_get_load_para
 .text.activity_get_root_win
                0x00000000e1f08496        0x4 livedesk/beetles/mod_desktop/framework/built-in.o
                0x00000000e1f08496                activity_get_root_win
 .text.activity_get_plugin
                0x00000000e1f0849a        0x4 livedesk/beetles/mod_desktop/framework/built-in.o
                0x00000000e1f0849a                activity_get_plugin
 .text.activity_suspend_top
                0x00000000e1f0849e       0x22 livedesk/beetles/mod_desktop/framework/built-in.o
                0x00000000e1f0849e                activity_suspend_top
 .text.activity_resume_top
                0x00000000e1f084c0       0x22 livedesk/beetles/mod_desktop/framework/built-in.o
                0x00000000e1f084c0                activity_resume_top
 .text.activity_notify_top
                0x00000000e1f084e2       0x48 livedesk/beetles/mod_desktop/framework/built-in.o
                0x00000000e1f084e2                activity_notify_top
 .text.activity_all_able_standby
                0x00000000e1f0852a       0x26 livedesk/beetles/mod_desktop/framework/built-in.o
                0x00000000e1f0852a                activity_all_able_standby
 .text.activity_manager_find_free_node
                0x00000000e1f08550       0x66 livedesk/beetles/mod_desktop/framework/built-in.o
 .text.activity_manager_create
                0x00000000e1f085b6       0xac livedesk/beetles/mod_desktop/framework/built-in.o
                0x00000000e1f085b6                activity_manager_create
 .text.activity_manager_top
                0x00000000e1f08662       0x62 livedesk/beetles/mod_desktop/framework/built-in.o
                0x00000000e1f08662                activity_manager_top
 .text.activity_manager_push
                0x00000000e1f086c4       0x82 livedesk/beetles/mod_desktop/framework/built-in.o
                0x00000000e1f086c4                activity_manager_push
 .text.activity_manager_pop
                0x00000000e1f08746       0xb2 livedesk/beetles/mod_desktop/framework/built-in.o
                0x00000000e1f08746                activity_manager_pop
 .text.activity_manager_add_backgrd
                0x00000000e1f087f8       0x3c livedesk/beetles/mod_desktop/framework/built-in.o
                0x00000000e1f087f8                activity_manager_add_backgrd
 .text.activity_manager_top_to_backgrd
                0x00000000e1f08834       0x24 livedesk/beetles/mod_desktop/framework/built-in.o
                0x00000000e1f08834                activity_manager_top_to_backgrd
 .text.activity_manager_delete_backgrd
                0x00000000e1f08858       0x7e livedesk/beetles/mod_desktop/framework/built-in.o
                0x00000000e1f08858                activity_manager_delete_backgrd
 .text.activity_manager_backgrd_to_top
                0x00000000e1f088d6       0x24 livedesk/beetles/mod_desktop/framework/built-in.o
                0x00000000e1f088d6                activity_manager_backgrd_to_top
 .text.activity_manager_foreach_suspend
                0x00000000e1f088fa       0x44 livedesk/beetles/mod_desktop/framework/built-in.o
                0x00000000e1f088fa                activity_manager_foreach_suspend
 .text.activity_manager_foreach_backgrd
                0x00000000e1f0893e       0x3a livedesk/beetles/mod_desktop/framework/built-in.o
                0x00000000e1f0893e                activity_manager_foreach_backgrd
 .text.activity_manager_foreach
                0x00000000e1f08978       0x34 livedesk/beetles/mod_desktop/framework/built-in.o
                0x00000000e1f08978                activity_manager_foreach
 .text.activity_manager_destroy
                0x00000000e1f089ac       0x22 livedesk/beetles/mod_desktop/framework/built-in.o
                0x00000000e1f089ac                activity_manager_destroy
 .text.applet_info_builder_on_end
                0x00000000e1f089ce        0x2 livedesk/beetles/mod_desktop/framework/built-in.o
 .text.applet_info_builder_on_text
                0x00000000e1f089d0        0x2 livedesk/beetles/mod_desktop/framework/built-in.o
 .text.applet_info_builder_on_pi
                0x00000000e1f089d2        0x2 livedesk/beetles/mod_desktop/framework/built-in.o
 .text.applet_info_builder_on_err
                0x00000000e1f089d4        0x2 livedesk/beetles/mod_desktop/framework/built-in.o
 .text.applet_info_manager_iter_printf
                0x00000000e1f089d6        0x4 livedesk/beetles/mod_desktop/framework/built-in.o
 .text.mini_allocator_free
                0x00000000e1f089da       0x18 livedesk/beetles/mod_desktop/framework/built-in.o
 .text.mini_allocator_realloc.part.1
                0x00000000e1f089f2       0x48 livedesk/beetles/mod_desktop/framework/built-in.o
 .text.mini_allocator_zalloc
                0x00000000e1f08a3a       0xa0 livedesk/beetles/mod_desktop/framework/built-in.o
 .text.applet_info_builder_on_comment
                0x00000000e1f08ada        0x2 livedesk/beetles/mod_desktop/framework/built-in.o
 .text.applet_info_builder_on_destroy
                0x00000000e1f08adc       0x3c livedesk/beetles/mod_desktop/framework/built-in.o
 .text.applet_info_builder_on_start
                0x00000000e1f08b18      0x1ce livedesk/beetles/mod_desktop/framework/built-in.o
 .text.applet_info_manager_create
                0x00000000e1f08ce6       0xb6 livedesk/beetles/mod_desktop/framework/built-in.o
                0x00000000e1f08ce6                applet_info_manager_create
 .text.applet_info_manager_parse
                0x00000000e1f08d9c      0x174 livedesk/beetles/mod_desktop/framework/built-in.o
                0x00000000e1f08d9c                applet_info_manager_parse
 .text.applet_info_manager_load_file
                0x00000000e1f08f10      0x13c livedesk/beetles/mod_desktop/framework/built-in.o
                0x00000000e1f08f10                applet_info_manager_load_file
 .text.applet_info_manager_load_dir
                0x00000000e1f0904c      0x192 livedesk/beetles/mod_desktop/framework/built-in.o
                0x00000000e1f0904c                applet_info_manager_load_dir
 .text.applet_info_manager_get_count
                0x00000000e1f091de       0x4e livedesk/beetles/mod_desktop/framework/built-in.o
                0x00000000e1f091de                applet_info_manager_get_count
 .text.applet_info_manager_get
                0x00000000e1f0922c       0x62 livedesk/beetles/mod_desktop/framework/built-in.o
                0x00000000e1f0922c                applet_info_manager_get
 .text.applet_info_manager_foreach
                0x00000000e1f0928e       0x56 livedesk/beetles/mod_desktop/framework/built-in.o
                0x00000000e1f0928e                applet_info_manager_foreach
 .text.applet_info_manager_destroy
                0x00000000e1f092e4       0x2a livedesk/beetles/mod_desktop/framework/built-in.o
                0x00000000e1f092e4                applet_info_manager_destroy
 .text.applet_info_manager_printf
                0x00000000e1f0930e       0x10 livedesk/beetles/mod_desktop/framework/built-in.o
                0x00000000e1f0930e                applet_info_manager_printf
 .text.applet_plugin_module_background
                0x00000000e1f0931e       0x1e livedesk/beetles/mod_desktop/framework/built-in.o
 .text.applet_plugin_module_resume
                0x00000000e1f0933c       0x1e livedesk/beetles/mod_desktop/framework/built-in.o
 .text.applet_plugin_module_suspend
                0x00000000e1f0935a       0x1e livedesk/beetles/mod_desktop/framework/built-in.o
 .text.applet_plugin_module_start
                0x00000000e1f09378       0x1e livedesk/beetles/mod_desktop/framework/built-in.o
 .text.applet_plugin_module_stop
                0x00000000e1f09396       0x3a livedesk/beetles/mod_desktop/framework/built-in.o
 .text.applet_plugin_module_create
                0x00000000e1f093d0      0x140 livedesk/beetles/mod_desktop/framework/built-in.o
                0x00000000e1f093d0                applet_plugin_module_create
 .text.activity_manager_set_default
                0x00000000e1f09510        0xa livedesk/beetles/mod_desktop/framework/built-in.o
                0x00000000e1f09510                activity_manager_set_default
 .text.applet_info_manager_set_defualt
                0x00000000e1f0951a        0xa livedesk/beetles/mod_desktop/framework/built-in.o
                0x00000000e1f0951a                applet_info_manager_set_defualt
 .text.message_loop_win_set_default
                0x00000000e1f09524        0xa livedesk/beetles/mod_desktop/framework/built-in.o
                0x00000000e1f09524                message_loop_win_set_default
 .text.activity_manager_get_default
                0x00000000e1f0952e        0xc livedesk/beetles/mod_desktop/framework/built-in.o
                0x00000000e1f0952e                activity_manager_get_default
 .text.applet_info_manager_get_default
                0x00000000e1f0953a        0xc livedesk/beetles/mod_desktop/framework/built-in.o
                0x00000000e1f0953a                applet_info_manager_get_default
 .text.message_loop_win_get_default
                0x00000000e1f09546        0xc livedesk/beetles/mod_desktop/framework/built-in.o
                0x00000000e1f09546                message_loop_win_get_default
 .text.mini_xml_builder_on_end_element
                0x00000000e1f09552        0xe livedesk/beetles/mod_desktop/framework/built-in.o
 .text.mini_xml_parser_strdup
                0x00000000e1f09560      0x140 livedesk/beetles/mod_desktop/framework/built-in.o
 .text.mini_xml_parser_parse_attrs
                0x00000000e1f096a0      0x11e livedesk/beetles/mod_desktop/framework/built-in.o
 .text.mini_xml_builder_on_error.constprop.2
                0x00000000e1f097be       0x14 livedesk/beetles/mod_desktop/framework/built-in.o
 .text.mini_xml_parser_create
                0x00000000e1f097d2       0xa8 livedesk/beetles/mod_desktop/framework/built-in.o
                0x00000000e1f097d2                mini_xml_parser_create
 .text.mini_xml_parser_set_builder
                0x00000000e1f0987a        0x6 livedesk/beetles/mod_desktop/framework/built-in.o
                0x00000000e1f0987a                mini_xml_parser_set_builder
 .text.mini_xml_parser_parse
                0x00000000e1f09880      0x318 livedesk/beetles/mod_desktop/framework/built-in.o
                0x00000000e1f09880                mini_xml_parser_parse
 .text.mini_xml_parser_destroy
                0x00000000e1f09b98       0x2c livedesk/beetles/mod_desktop/framework/built-in.o
                0x00000000e1f09b98                mini_xml_parser_destroy
 .text.dsk_set_hdmi_audio_gate
                0x00000000e1f09bc4        0x4 livedesk/beetles/mod_desktop/functions/built-in.o
                0x00000000e1f09bc4                dsk_set_hdmi_audio_gate
 .text.dsk_set_audio_if
                0x00000000e1f09bc8        0x4 livedesk/beetles/mod_desktop/functions/built-in.o
                0x00000000e1f09bc8                dsk_set_audio_if
 .text.dsk_get_audio_if
                0x00000000e1f09bcc        0x4 livedesk/beetles/mod_desktop/functions/built-in.o
                0x00000000e1f09bcc                dsk_get_audio_if
 .text.dsk_set_auto_off_time
                0x00000000e1f09bd0       0x5a livedesk/beetles/mod_desktop/functions/built-in.o
                0x00000000e1f09bd0                dsk_set_auto_off_time
 .text.dsk_power_off
                0x00000000e1f09c2a       0x48 livedesk/beetles/mod_desktop/functions/built-in.o
                0x00000000e1f09c2a                dsk_power_off
 .text.dsk_get_langres_charset
                0x00000000e1f09c72        0x4 livedesk/beetles/mod_desktop/functions/built-in.o
                0x00000000e1f09c72                dsk_get_langres_charset
 .text.dsk_set_fs_charset
                0x00000000e1f09c76       0x26 livedesk/beetles/mod_desktop/functions/built-in.o
                0x00000000e1f09c76                dsk_set_fs_charset
 .text.dsk_get_fs_charset
                0x00000000e1f09c9c       0x28 livedesk/beetles/mod_desktop/functions/built-in.o
                0x00000000e1f09c9c                dsk_get_fs_charset
 .text.dsk_set_isn_charset
                0x00000000e1f09cc4        0xc livedesk/beetles/mod_desktop/functions/built-in.o
                0x00000000e1f09cc4                dsk_set_isn_charset
 .text.dsk_get_isn_charset
                0x00000000e1f09cd0        0xe livedesk/beetles/mod_desktop/functions/built-in.o
                0x00000000e1f09cd0                dsk_get_isn_charset
 .text.dsk_display_lcd_on
                0x00000000e1f09cde       0x80 livedesk/beetles/mod_desktop/functions/built-in.o
                0x00000000e1f09cde                dsk_display_lcd_on
 .text.dsk_display_lcd_off
                0x00000000e1f09d5e       0x82 livedesk/beetles/mod_desktop/functions/built-in.o
                0x00000000e1f09d5e                dsk_display_lcd_off
 .text.save_backlight_to_mixture
                0x00000000e1f09de0       0x78 livedesk/beetles/mod_desktop/functions/built-in.o
                0x00000000e1f09de0                save_backlight_to_mixture
 .text.dsk_display_set_lcd_brightness
                0x00000000e1f09e58       0xea livedesk/beetles/mod_desktop/functions/built-in.o
                0x00000000e1f09e58                dsk_display_set_lcd_brightness
 .text.dsk_display_get_lcd_brightness
                0x00000000e1f09f42      0x124 livedesk/beetles/mod_desktop/functions/built-in.o
                0x00000000e1f09f42                dsk_display_get_lcd_brightness
 .text.dsk_display_set_lcd_bright
                0x00000000e1f0a066       0x9e livedesk/beetles/mod_desktop/functions/built-in.o
                0x00000000e1f0a066                dsk_display_set_lcd_bright
 .text.dsk_display_get_lcd_bright
                0x00000000e1f0a104       0x24 livedesk/beetles/mod_desktop/functions/built-in.o
                0x00000000e1f0a104                dsk_display_get_lcd_bright
 .text.dsk_display_set_lcd_constract
                0x00000000e1f0a128       0x60 livedesk/beetles/mod_desktop/functions/built-in.o
                0x00000000e1f0a128                dsk_display_set_lcd_constract
 .text.dsk_display_get_lcd_constract
                0x00000000e1f0a188       0x24 livedesk/beetles/mod_desktop/functions/built-in.o
                0x00000000e1f0a188                dsk_display_get_lcd_constract
 .text.dsk_display_set_lcd_saturation
                0x00000000e1f0a1ac       0x60 livedesk/beetles/mod_desktop/functions/built-in.o
                0x00000000e1f0a1ac                dsk_display_set_lcd_saturation
 .text.dsk_display_get_lcd_saturation
                0x00000000e1f0a20c       0x24 livedesk/beetles/mod_desktop/functions/built-in.o
                0x00000000e1f0a20c                dsk_display_get_lcd_saturation
 .text.dsk_display_set_lcd_hue
                0x00000000e1f0a230        0x2 livedesk/beetles/mod_desktop/functions/built-in.o
                0x00000000e1f0a230                dsk_display_set_lcd_hue
 .text.dsk_display_get_lcd_hue
                0x00000000e1f0a232        0x2 livedesk/beetles/mod_desktop/functions/built-in.o
                0x00000000e1f0a232                dsk_display_get_lcd_hue
 .text.dsk_display_set_lcd_edge
                0x00000000e1f0a234        0x4 livedesk/beetles/mod_desktop/functions/built-in.o
                0x00000000e1f0a234                dsk_display_set_lcd_edge
 .text.dsk_display_get_lcd_edge
                0x00000000e1f0a238        0x4 livedesk/beetles/mod_desktop/functions/built-in.o
                0x00000000e1f0a238                dsk_display_get_lcd_edge
 .text.dsk_display_set_lcd_detail
                0x00000000e1f0a23c        0x4 livedesk/beetles/mod_desktop/functions/built-in.o
                0x00000000e1f0a23c                dsk_display_set_lcd_detail
 .text.dsk_display_get_lcd_detail
                0x00000000e1f0a240        0x4 livedesk/beetles/mod_desktop/functions/built-in.o
                0x00000000e1f0a240                dsk_display_get_lcd_detail
 .text.dsk_display_set_lcd_denoise
                0x00000000e1f0a244        0x4 livedesk/beetles/mod_desktop/functions/built-in.o
                0x00000000e1f0a244                dsk_display_set_lcd_denoise
 .text.dsk_display_get_lcd_denoise
                0x00000000e1f0a248        0x4 livedesk/beetles/mod_desktop/functions/built-in.o
                0x00000000e1f0a248                dsk_display_get_lcd_denoise
 .text.dsk_display_enhance_enable
                0x00000000e1f0a24c       0x44 livedesk/beetles/mod_desktop/functions/built-in.o
                0x00000000e1f0a24c                dsk_display_enhance_enable
 .text.dsk_display_enhance_disable
                0x00000000e1f0a290       0x40 livedesk/beetles/mod_desktop/functions/built-in.o
                0x00000000e1f0a290                dsk_display_enhance_disable
 .text.dsk_display_get_enhance_enable
                0x00000000e1f0a2d0        0x4 livedesk/beetles/mod_desktop/functions/built-in.o
                0x00000000e1f0a2d0                dsk_display_get_enhance_enable
 .text.dsk_display_enhance_demo_enable
                0x00000000e1f0a2d4       0x24 livedesk/beetles/mod_desktop/functions/built-in.o
                0x00000000e1f0a2d4                dsk_display_enhance_demo_enable
 .text.dsk_display_enhance_demo_disable
                0x00000000e1f0a2f8       0x24 livedesk/beetles/mod_desktop/functions/built-in.o
                0x00000000e1f0a2f8                dsk_display_enhance_demo_disable
 .text.dsk_display_hdmi_audio_enable
                0x00000000e1f0a31c        0x4 livedesk/beetles/mod_desktop/functions/built-in.o
                0x00000000e1f0a31c                dsk_display_hdmi_audio_enable
 .text.dsk_display_get_size
                0x00000000e1f0a320       0x80 livedesk/beetles/mod_desktop/functions/built-in.o
                0x00000000e1f0a320                dsk_display_get_size
 .text.dsk_display_set_backcolor
                0x00000000e1f0a3a0       0x74 livedesk/beetles/mod_desktop/functions/built-in.o
                0x00000000e1f0a3a0                dsk_display_set_backcolor
 .text.dsk_display_get_backcolor
                0x00000000e1f0a414       0x6c livedesk/beetles/mod_desktop/functions/built-in.o
                0x00000000e1f0a414                dsk_display_get_backcolor
 .text.dsk_display_get_output_type
                0x00000000e1f0a480       0x5c livedesk/beetles/mod_desktop/functions/built-in.o
                0x00000000e1f0a480                dsk_display_get_output_type
 .text.dsk_display_dskfmt2epdkfmt
                0x00000000e1f0a4dc      0x10a livedesk/beetles/mod_desktop/functions/built-in.o
                0x00000000e1f0a4dc                dsk_display_dskfmt2epdkfmt
 .text.dsk_display_set_format
                0x00000000e1f0a5e6       0x7e livedesk/beetles/mod_desktop/functions/built-in.o
                0x00000000e1f0a5e6                dsk_display_set_format
 .text.dsk_display_epdkfmt2dskfmt
                0x00000000e1f0a664      0x13e livedesk/beetles/mod_desktop/functions/built-in.o
                0x00000000e1f0a664                dsk_display_epdkfmt2dskfmt
 .text.dsk_display_get_format
                0x00000000e1f0a7a2       0x78 livedesk/beetles/mod_desktop/functions/built-in.o
                0x00000000e1f0a7a2                dsk_display_get_format
 .text.dsk_display_on
                0x00000000e1f0a81a       0x52 livedesk/beetles/mod_desktop/functions/built-in.o
                0x00000000e1f0a81a                dsk_display_on
 .text.dsk_display_off
                0x00000000e1f0a86c       0x80 livedesk/beetles/mod_desktop/functions/built-in.o
                0x00000000e1f0a86c                dsk_display_off
 .text.dsk_fw_update
                0x00000000e1f0a8ec      0x122 livedesk/beetles/mod_desktop/functions/built-in.o
                0x00000000e1f0a8ec                dsk_fw_update
 .text.dsk_start_fw_update
                0x00000000e1f0aa0e       0x86 livedesk/beetles/mod_desktop/functions/built-in.o
                0x00000000e1f0aa0e                dsk_start_fw_update
 .text.dsk_keytone_init
                0x00000000e1f0aa94       0x12 livedesk/beetles/mod_desktop/functions/built-in.o
                0x00000000e1f0aa94                dsk_keytone_init
 .text.dsk_keytone_exit
                0x00000000e1f0aaa6        0x4 livedesk/beetles/mod_desktop/functions/built-in.o
                0x00000000e1f0aaa6                dsk_keytone_exit
 .text.dsk_keytone_on
                0x00000000e1f0aaaa        0x4 livedesk/beetles/mod_desktop/functions/built-in.o
                0x00000000e1f0aaaa                dsk_keytone_on
 .text.dsk_keytone_set_state
                0x00000000e1f0aaae        0x4 livedesk/beetles/mod_desktop/functions/built-in.o
                0x00000000e1f0aaae                dsk_keytone_set_state
 .text.dsk_keytone_get_state
                0x00000000e1f0aab2        0x4 livedesk/beetles/mod_desktop/functions/built-in.o
                0x00000000e1f0aab2                dsk_keytone_get_state
 .text.dsk_keytone_set_key_type
                0x00000000e1f0aab6        0x2 livedesk/beetles/mod_desktop/functions/built-in.o
                0x00000000e1f0aab6                dsk_keytone_set_key_type
 .text.dsk_keytone_get_key_type
                0x00000000e1f0aab8        0x4 livedesk/beetles/mod_desktop/functions/built-in.o
                0x00000000e1f0aab8                dsk_keytone_get_key_type
 .text.dsk_langres_init
                0x00000000e1f0aabc       0xbc livedesk/beetles/mod_desktop/functions/built-in.o
                0x00000000e1f0aabc                dsk_langres_init
 .text.dsk_langres_exit
                0x00000000e1f0ab78       0x32 livedesk/beetles/mod_desktop/functions/built-in.o
                0x00000000e1f0ab78                dsk_langres_exit
 .text.dsk_langres_set_type
                0x00000000e1f0abaa        0xc livedesk/beetles/mod_desktop/functions/built-in.o
                0x00000000e1f0abaa                dsk_langres_set_type
 .text.dsk_langres_get_type
                0x00000000e1f0abb6        0xa livedesk/beetles/mod_desktop/functions/built-in.o
                0x00000000e1f0abb6                dsk_langres_get_type
 .text.dsk_langres_get_menu_len
                0x00000000e1f0abc0       0x34 livedesk/beetles/mod_desktop/functions/built-in.o
                0x00000000e1f0abc0                dsk_langres_get_menu_len
 .text.dsk_langres_get_menu_text
                0x00000000e1f0abf4       0x64 livedesk/beetles/mod_desktop/functions/built-in.o
                0x00000000e1f0abf4                dsk_langres_get_menu_text
 .text.dsk_orchid_createDisk
                0x00000000e1f0ac58       0x3c livedesk/beetles/mod_desktop/functions/built-in.o
                0x00000000e1f0ac58                dsk_orchid_createDisk
 .text.dsk_orchid_check
                0x00000000e1f0ac94        0x4 livedesk/beetles/mod_desktop/functions/built-in.o
                0x00000000e1f0ac94                dsk_orchid_check
 .text.dsk_orchid_update
                0x00000000e1f0ac98        0x4 livedesk/beetles/mod_desktop/functions/built-in.o
                0x00000000e1f0ac98                dsk_orchid_update
 .text.dsk_orchid_save_npl
                0x00000000e1f0ac9c        0x4 livedesk/beetles/mod_desktop/functions/built-in.o
                0x00000000e1f0ac9c                dsk_orchid_save_npl
 .text.dsk_orchid_load_last_npl
                0x00000000e1f0aca0        0x4 livedesk/beetles/mod_desktop/functions/built-in.o
                0x00000000e1f0aca0                dsk_orchid_load_last_npl
 .text.dsk_power_dev_init
                0x00000000e1f0aca4       0x2c livedesk/beetles/mod_desktop/functions/built-in.o
                0x00000000e1f0aca4                dsk_power_dev_init
 .text.dsk_power_dev_uninit
                0x00000000e1f0acd0       0x24 livedesk/beetles/mod_desktop/functions/built-in.o
                0x00000000e1f0acd0                dsk_power_dev_uninit
 .text.dsk_power_get_battery_level
                0x00000000e1f0acf4        0x4 livedesk/beetles/mod_desktop/functions/built-in.o
                0x00000000e1f0acf4                dsk_power_get_battery_level
 .text.dsk_power_get_voltage_level
                0x00000000e1f0acf8       0x6c livedesk/beetles/mod_desktop/functions/built-in.o
                0x00000000e1f0acf8                dsk_power_get_voltage_level
 .text.dsk_power_is_full
                0x00000000e1f0ad64       0x34 livedesk/beetles/mod_desktop/functions/built-in.o
                0x00000000e1f0ad64                dsk_power_is_full
 .text.dsk_power_is_low
                0x00000000e1f0ad98       0x70 livedesk/beetles/mod_desktop/functions/built-in.o
                0x00000000e1f0ad98                dsk_power_is_low
 .text.dsk_power_set_off_time
                0x00000000e1f0ae08        0x4 livedesk/beetles/mod_desktop/functions/built-in.o
                0x00000000e1f0ae08                dsk_power_set_off_time
 .text.dsk_power_get_battary_state
                0x00000000e1f0ae0c        0x4 livedesk/beetles/mod_desktop/functions/built-in.o
                0x00000000e1f0ae0c                dsk_power_get_battary_state
 .text.dsk_speaker_turnoff
                0x00000000e1f0ae10        0x2 livedesk/beetles/mod_desktop/functions/built-in.o
                0x00000000e1f0ae10                dsk_speaker_turnoff
 .text.dsk_speaker_turnon
                0x00000000e1f0ae12        0x2 livedesk/beetles/mod_desktop/functions/built-in.o
                0x00000000e1f0ae12                dsk_speaker_turnon
 .text.dsk_speaker_resume
                0x00000000e1f0ae14        0x2 livedesk/beetles/mod_desktop/functions/built-in.o
                0x00000000e1f0ae14                dsk_speaker_resume
 .text.dsk_get_charge_state
                0x00000000e1f0ae16       0x3e livedesk/beetles/mod_desktop/functions/built-in.o
                0x00000000e1f0ae16                dsk_get_charge_state
 .text.__reg_paramter_init
                0x00000000e1f0ae54      0x1d2 livedesk/beetles/mod_desktop/functions/built-in.o
 .text.save_flash_task
                0x00000000e1f0b026      0x1b2 livedesk/beetles/mod_desktop/functions/built-in.o
 .text.calc_crc32.constprop.4
                0x00000000e1f0b1d8       0x70 livedesk/beetles/mod_desktop/functions/built-in.o
 .text.dsk_reg_init_para
                0x00000000e1f0b248      0x34a livedesk/beetles/mod_desktop/functions/built-in.o
                0x00000000e1f0b248                dsk_reg_init_para
 .text.dsk_reg_flush
                0x00000000e1f0b592       0x6a livedesk/beetles/mod_desktop/functions/built-in.o
                0x00000000e1f0b592                dsk_reg_flush
 .text.dsk_reg_deinit_para
                0x00000000e1f0b5fc       0xb6 livedesk/beetles/mod_desktop/functions/built-in.o
                0x00000000e1f0b5fc                dsk_reg_deinit_para
 .text.dsk_reg_get_para_by_app
                0x00000000e1f0b6b2      0x10a livedesk/beetles/mod_desktop/functions/built-in.o
                0x00000000e1f0b6b2                dsk_reg_get_para_by_app
 .text.dsk_reg_get_default_para_by_app
                0x00000000e1f0b7bc      0x110 livedesk/beetles/mod_desktop/functions/built-in.o
                0x00000000e1f0b7bc                dsk_reg_get_default_para_by_app
 .text.dsk_reg_get_app_restore_flag
                0x00000000e1f0b8cc       0x9a livedesk/beetles/mod_desktop/functions/built-in.o
                0x00000000e1f0b8cc                dsk_reg_get_app_restore_flag
 .text.dsk_reg_set_app_restore_flag
                0x00000000e1f0b966       0x9a livedesk/beetles/mod_desktop/functions/built-in.o
                0x00000000e1f0b966                dsk_reg_set_app_restore_flag
 .text.dsk_reg_save_cur_play_info
                0x00000000e1f0ba00      0x1a6 livedesk/beetles/mod_desktop/functions/built-in.o
                0x00000000e1f0ba00                dsk_reg_save_cur_play_info
 .text.dsk_reg_set_app_restore_all
                0x00000000e1f0bba6       0x6c livedesk/beetles/mod_desktop/functions/built-in.o
                0x00000000e1f0bba6                dsk_reg_set_app_restore_all
 .text._release_theme_res
                0x00000000e1f0bc12       0x2a livedesk/beetles/mod_desktop/functions/built-in.o
 .text.dsk_theme_init
                0x00000000e1f0bc3c       0x7a livedesk/beetles/mod_desktop/functions/built-in.o
                0x00000000e1f0bc3c                dsk_theme_init
 .text.dsk_theme_init_ex
                0x00000000e1f0bcb6       0x3a livedesk/beetles/mod_desktop/functions/built-in.o
                0x00000000e1f0bcb6                dsk_theme_init_ex
 .text.dsk_theme_exit
                0x00000000e1f0bcf0       0x30 livedesk/beetles/mod_desktop/functions/built-in.o
                0x00000000e1f0bcf0                dsk_theme_exit
 .text.dsk_theme_exit_ex
                0x00000000e1f0bd20       0x30 livedesk/beetles/mod_desktop/functions/built-in.o
                0x00000000e1f0bd20                dsk_theme_exit_ex
 .text.dsk_theme_set_style
                0x00000000e1f0bd50        0xc livedesk/beetles/mod_desktop/functions/built-in.o
                0x00000000e1f0bd50                dsk_theme_set_style
 .text.dsk_theme_get_style
                0x00000000e1f0bd5c        0xc livedesk/beetles/mod_desktop/functions/built-in.o
                0x00000000e1f0bd5c                dsk_theme_get_style
 .text.dsk_theme_open
                0x00000000e1f0bd68       0xd6 livedesk/beetles/mod_desktop/functions/built-in.o
                0x00000000e1f0bd68                dsk_theme_open
 .text.dsk_theme_open_ex
                0x00000000e1f0be3e       0xd6 livedesk/beetles/mod_desktop/functions/built-in.o
                0x00000000e1f0be3e                dsk_theme_open_ex
 .text.dsk_theme_close
                0x00000000e1f0bf14        0x8 livedesk/beetles/mod_desktop/functions/built-in.o
                0x00000000e1f0bf14                dsk_theme_close
 .text.dsk_theme_close_ex
                0x00000000e1f0bf1c        0x4 livedesk/beetles/mod_desktop/functions/built-in.o
                0x00000000e1f0bf1c                dsk_theme_close_ex
 .text.dsk_theme_really_close_ex
                0x00000000e1f0bf20       0x56 livedesk/beetles/mod_desktop/functions/built-in.o
                0x00000000e1f0bf20                dsk_theme_really_close_ex
 .text.dsk_theme_really_close_by_id_ex
                0x00000000e1f0bf76       0x4c livedesk/beetles/mod_desktop/functions/built-in.o
                0x00000000e1f0bf76                dsk_theme_really_close_by_id_ex
 .text.dsk_theme_hdl2size
                0x00000000e1f0bfc2        0xa livedesk/beetles/mod_desktop/functions/built-in.o
                0x00000000e1f0bfc2                dsk_theme_hdl2size
 .text.dsk_theme_hdl2size_ex
                0x00000000e1f0bfcc        0xa livedesk/beetles/mod_desktop/functions/built-in.o
                0x00000000e1f0bfcc                dsk_theme_hdl2size_ex
 .text.dsk_theme_hdl2buf
                0x00000000e1f0bfd6       0xd2 livedesk/beetles/mod_desktop/functions/built-in.o
                0x00000000e1f0bfd6                dsk_theme_hdl2buf
 .text.dsk_theme_hdl2buf_ex
                0x00000000e1f0c0a8       0xd2 livedesk/beetles/mod_desktop/functions/built-in.o
                0x00000000e1f0c0a8                dsk_theme_hdl2buf_ex
 .text.dsk_usbd_remove
                0x00000000e1f0c17a        0x2 livedesk/beetles/mod_desktop/functions/built-in.o
                0x00000000e1f0c17a                dsk_usbd_remove
 .text.dsk_send_insmod_usbh_cmd
                0x00000000e1f0c17c        0x4 livedesk/beetles/mod_desktop/functions/built-in.o
                0x00000000e1f0c17c                dsk_send_insmod_usbh_cmd
 .text.dsk_send_rmmod_usbh_cmd
                0x00000000e1f0c180        0x4 livedesk/beetles/mod_desktop/functions/built-in.o
                0x00000000e1f0c180                dsk_send_rmmod_usbh_cmd
 .text.dsk_usbh_is_working
                0x00000000e1f0c184        0x4 livedesk/beetles/mod_desktop/functions/built-in.o
                0x00000000e1f0c184                dsk_usbh_is_working
 .text.__init_hp_det_pin_init
                0x00000000e1f0c188       0x4c livedesk/beetles/mod_desktop/functions/built-in.o
 .text.dsk_pa_shdn_pin_init
                0x00000000e1f0c1d4       0x60 livedesk/beetles/mod_desktop/functions/built-in.o
 .text._set_volume
                0x00000000e1f0c234      0x19c livedesk/beetles/mod_desktop/functions/built-in.o
 .text._get_volume
                0x00000000e1f0c3d0       0xc2 livedesk/beetles/mod_desktop/functions/built-in.o
 .text.dsk_volume_set
                0x00000000e1f0c492       0x42 livedesk/beetles/mod_desktop/functions/built-in.o
                0x00000000e1f0c492                dsk_volume_set
 .text.dsk_volume_get
                0x00000000e1f0c4d4       0x56 livedesk/beetles/mod_desktop/functions/built-in.o
                0x00000000e1f0c4d4                dsk_volume_get
 .text.dsk_volume_inc
                0x00000000e1f0c52a       0x64 livedesk/beetles/mod_desktop/functions/built-in.o
                0x00000000e1f0c52a                dsk_volume_inc
 .text.dsk_volume_dec
                0x00000000e1f0c58e       0xda livedesk/beetles/mod_desktop/functions/built-in.o
                0x00000000e1f0c58e                dsk_volume_dec
 .text.dsk_volume_on
                0x00000000e1f0c668       0x32 livedesk/beetles/mod_desktop/functions/built-in.o
                0x00000000e1f0c668                dsk_volume_on
 .text.dsk_volume_off
                0x00000000e1f0c69a       0x28 livedesk/beetles/mod_desktop/functions/built-in.o
                0x00000000e1f0c69a                dsk_volume_off
 .text.dsk_volume_is_on
                0x00000000e1f0c6c2        0xe livedesk/beetles/mod_desktop/functions/built-in.o
                0x00000000e1f0c6c2                dsk_volume_is_on
 .text.dsk_volume_app_line_in
                0x00000000e1f0c6d0        0x4 livedesk/beetles/mod_desktop/functions/built-in.o
                0x00000000e1f0c6d0                dsk_volume_app_line_in
 .text.dsk_amplifier_onoff
                0x00000000e1f0c6d4       0xce livedesk/beetles/mod_desktop/functions/built-in.o
                0x00000000e1f0c6d4                dsk_amplifier_onoff
 .text.dsk_amplifier_is_on
                0x00000000e1f0c7a2       0x12 livedesk/beetles/mod_desktop/functions/built-in.o
                0x00000000e1f0c7a2                dsk_amplifier_is_on
 .text.dsk_hp_det_pin_det
                0x00000000e1f0c7b4       0x5c livedesk/beetles/mod_desktop/functions/built-in.o
                0x00000000e1f0c7b4                dsk_hp_det_pin_det
 .text.ksrv_msg_thread
                0x00000000e1f0c810      0x3d8 livedesk/beetles/mod_desktop/msg_srv/built-in.o
 .text.key_msg_cb
                0x00000000e1f0cbe8      0x3de livedesk/beetles/mod_desktop/msg_srv/built-in.o
 .text.msg_srv_init_key_channel
                0x00000000e1f0cfc6      0x17e livedesk/beetles/mod_desktop/msg_srv/built-in.o
                0x00000000e1f0cfc6                msg_srv_init_key_channel
 .text.msg_srv_deinit_key_channel
                0x00000000e1f0d144       0x1c livedesk/beetles/mod_desktop/msg_srv/built-in.o
                0x00000000e1f0d144                msg_srv_deinit_key_channel
 .text.msg_srv_init_ksrv_channel
                0x00000000e1f0d160       0x7e livedesk/beetles/mod_desktop/msg_srv/built-in.o
                0x00000000e1f0d160                msg_srv_init_ksrv_channel
 .text.msg_srv_deinit_ksrv_channel
                0x00000000e1f0d1de       0x2e livedesk/beetles/mod_desktop/msg_srv/built-in.o
                0x00000000e1f0d1de                msg_srv_deinit_ksrv_channel
 .text.msg_srv_get_message
                0x00000000e1f0d20c       0x2a livedesk/beetles/mod_desktop/msg_srv/built-in.o
                0x00000000e1f0d20c                msg_srv_get_message
 .text.msg_srv_dispatch_message
                0x00000000e1f0d236      0x1da livedesk/beetles/mod_desktop/msg_srv/built-in.o
                0x00000000e1f0d236                msg_srv_dispatch_message
 .text.msg_srv_thread
                0x00000000e1f0d410      0x1ae livedesk/beetles/mod_desktop/msg_srv/built-in.o
                0x00000000e1f0d410                msg_srv_thread
 .text.msg_emit_init
                0x00000000e1f0d5be       0x42 livedesk/beetles/mod_desktop/msg_srv/built-in.o
                0x00000000e1f0d5be                msg_emit_init
 .text.msg_emit_deinit
                0x00000000e1f0d600       0x38 livedesk/beetles/mod_desktop/msg_srv/built-in.o
                0x00000000e1f0d600                msg_emit_deinit
 .text.msg_emit_register_hook
                0x00000000e1f0d638       0x1e livedesk/beetles/mod_desktop/msg_srv/built-in.o
                0x00000000e1f0d638                msg_emit_register_hook
 .text.msg_emit_register_tvout_tp_hook
                0x00000000e1f0d656       0x3c livedesk/beetles/mod_desktop/msg_srv/built-in.o
                0x00000000e1f0d656                msg_emit_register_tvout_tp_hook
 .text.mini_allocator_default_destroy
                0x00000000e1f0d692        0x2 livedesk/beetles/mod_desktop/util/built-in.o
                0x00000000e1f0d692                mini_allocator_default_destroy
 .text.mini_allocator_default_alloc
                0x00000000e1f0d694        0x8 livedesk/beetles/mod_desktop/util/built-in.o
                0x00000000e1f0d694                mini_allocator_default_alloc
 .text.mini_allocator_default_realloc
                0x00000000e1f0d69c        0x8 livedesk/beetles/mod_desktop/util/built-in.o
                0x00000000e1f0d69c                mini_allocator_default_realloc
 .text.mini_allocator_default_free
                0x00000000e1f0d6a4        0x6 livedesk/beetles/mod_desktop/util/built-in.o
                0x00000000e1f0d6a4                mini_allocator_default_free
 .text.mini_allocator_default_create
                0x00000000e1f0d6aa        0xa livedesk/beetles/mod_desktop/util/built-in.o
                0x00000000e1f0d6aa                mini_allocator_default_create
 .text.esCFG_GetKeyValue
                0x00000000e1f0d6b4       0x18 ./elibrary/bin//libsyscall.a(syscall.o)
                0x00000000e1f0d6b4                esCFG_GetKeyValue
 .text.esCHS_Char2Uni
                0x00000000e1f0d6cc       0x1c ./elibrary/bin//libsyscall.a(syscall.o)
                0x00000000e1f0d6cc                esCHS_Char2Uni
 .text.esCHS_Uni2Char
                0x00000000e1f0d6e8       0x1c ./elibrary/bin//libsyscall.a(syscall.o)
                0x00000000e1f0d6e8                esCHS_Uni2Char
 .text.esDEV_Plugin
                0x00000000e1f0d704       0x1c ./elibrary/bin//libsyscall.a(syscall.o)
                0x00000000e1f0d704                esDEV_Plugin
 .text.esDEV_Plugout
                0x00000000e1f0d720       0x1c ./elibrary/bin//libsyscall.a(syscall.o)
                0x00000000e1f0d720                esDEV_Plugout
 .text.esFSYS_closedir
                0x00000000e1f0d73c       0x18 ./elibrary/bin//libsyscall.a(syscall.o)
                0x00000000e1f0d73c                esFSYS_closedir
 .text.esFSYS_fclose
                0x00000000e1f0d754       0x18 ./elibrary/bin//libsyscall.a(syscall.o)
                0x00000000e1f0d754                esFSYS_fclose
 .text.esFSYS_fopen
                0x00000000e1f0d76c       0x16 ./elibrary/bin//libsyscall.a(syscall.o)
                0x00000000e1f0d76c                esFSYS_fopen
 .text.esFSYS_format
                0x00000000e1f0d782       0x18 ./elibrary/bin//libsyscall.a(syscall.o)
                0x00000000e1f0d782                esFSYS_format
 .text.esFSYS_fread
                0x00000000e1f0d79a       0x20 ./elibrary/bin//libsyscall.a(syscall.o)
                0x00000000e1f0d79a                esFSYS_fread
 .text.esFSYS_fseek
                0x00000000e1f0d7ba       0x18 ./elibrary/bin//libsyscall.a(syscall.o)
                0x00000000e1f0d7ba                esFSYS_fseek
 .text.esFSYS_fseekex
                0x00000000e1f0d7d2       0x16 ./elibrary/bin//libsyscall.a(syscall.o)
                0x00000000e1f0d7d2                esFSYS_fseekex
 .text.esFSYS_fstat
                0x00000000e1f0d7e8       0x18 ./elibrary/bin//libsyscall.a(syscall.o)
                0x00000000e1f0d7e8                esFSYS_fstat
 .text.esFSYS_fsync
                0x00000000e1f0d800       0x18 ./elibrary/bin//libsyscall.a(syscall.o)
                0x00000000e1f0d800                esFSYS_fsync
 .text.esFSYS_ftell
                0x00000000e1f0d818       0x18 ./elibrary/bin//libsyscall.a(syscall.o)
                0x00000000e1f0d818                esFSYS_ftell
 .text.esFSYS_ftellex
                0x00000000e1f0d830       0x18 ./elibrary/bin//libsyscall.a(syscall.o)
                0x00000000e1f0d830                esFSYS_ftellex
 .text.esFSYS_fwrite
                0x00000000e1f0d848       0x20 ./elibrary/bin//libsyscall.a(syscall.o)
                0x00000000e1f0d848                esFSYS_fwrite
 .text.esFSYS_getfscharset
                0x00000000e1f0d868       0x18 ./elibrary/bin//libsyscall.a(syscall.o)
                0x00000000e1f0d868                esFSYS_getfscharset
 .text.esFSYS_opendir
                0x00000000e1f0d880       0x16 ./elibrary/bin//libsyscall.a(syscall.o)
                0x00000000e1f0d880                esFSYS_opendir
 .text.esFSYS_readdir
                0x00000000e1f0d896       0x16 ./elibrary/bin//libsyscall.a(syscall.o)
                0x00000000e1f0d896                esFSYS_readdir
 .text.esFSYS_setfs
                0x00000000e1f0d8ac       0x1c ./elibrary/bin//libsyscall.a(syscall.o)
                0x00000000e1f0d8ac                esFSYS_setfs
 .text.esFSYS_statpt
                0x00000000e1f0d8c8       0x18 ./elibrary/bin//libsyscall.a(syscall.o)
                0x00000000e1f0d8c8                esFSYS_statpt
 .text.esINPUT_GetLdevID
                0x00000000e1f0d8e0       0x18 ./elibrary/bin//libsyscall.a(syscall.o)
                0x00000000e1f0d8e0                esINPUT_GetLdevID
 .text.esINPUT_LdevCtl
                0x00000000e1f0d8f8       0x18 ./elibrary/bin//libsyscall.a(syscall.o)
                0x00000000e1f0d8f8                esINPUT_LdevCtl
 .text.esINPUT_LdevGrab
                0x00000000e1f0d910       0x16 ./elibrary/bin//libsyscall.a(syscall.o)
                0x00000000e1f0d910                esINPUT_LdevGrab
 .text.esINPUT_LdevRelease
                0x00000000e1f0d926       0x18 ./elibrary/bin//libsyscall.a(syscall.o)
                0x00000000e1f0d926                esINPUT_LdevRelease
 .text.esKRNL_CallBack
                0x00000000e1f0d93e       0x18 ./elibrary/bin//libsyscall.a(syscall.o)
                0x00000000e1f0d93e                esKRNL_CallBack
 .text.esKRNL_QAccept
                0x00000000e1f0d956       0x16 ./elibrary/bin//libsyscall.a(syscall.o)
                0x00000000e1f0d956                esKRNL_QAccept
 .text.esKRNL_QCreate
                0x00000000e1f0d96c       0x16 ./elibrary/bin//libsyscall.a(syscall.o)
                0x00000000e1f0d96c                esKRNL_QCreate
 .text.esKRNL_QDel
                0x00000000e1f0d982       0x16 ./elibrary/bin//libsyscall.a(syscall.o)
                0x00000000e1f0d982                esKRNL_QDel
 .text.esKRNL_QFlush
                0x00000000e1f0d998       0x1a ./elibrary/bin//libsyscall.a(syscall.o)
                0x00000000e1f0d998                esKRNL_QFlush
 .text.esKRNL_QPost
                0x00000000e1f0d9b2       0x1a ./elibrary/bin//libsyscall.a(syscall.o)
                0x00000000e1f0d9b2                esKRNL_QPost
 .text.esKRNL_SemCreate
                0x00000000e1f0d9cc       0x16 ./elibrary/bin//libsyscall.a(syscall.o)
                0x00000000e1f0d9cc                esKRNL_SemCreate
 .text.esKRNL_SemDel
                0x00000000e1f0d9e2       0x16 ./elibrary/bin//libsyscall.a(syscall.o)
                0x00000000e1f0d9e2                esKRNL_SemDel
 .text.esKRNL_SemPend
                0x00000000e1f0d9f8       0x16 ./elibrary/bin//libsyscall.a(syscall.o)
                0x00000000e1f0d9f8                esKRNL_SemPend
 .text.esKRNL_SemPost
                0x00000000e1f0da0e       0x1a ./elibrary/bin//libsyscall.a(syscall.o)
                0x00000000e1f0da0e                esKRNL_SemPost
 .text.esKRNL_SemQuery
                0x00000000e1f0da28       0x1a ./elibrary/bin//libsyscall.a(syscall.o)
                0x00000000e1f0da28                esKRNL_SemQuery
 .text.esKRNL_TaskNameSet
                0x00000000e1f0da42       0x1a ./elibrary/bin//libsyscall.a(syscall.o)
                0x00000000e1f0da42                esKRNL_TaskNameSet
 .text.esKRNL_TCreate
                0x00000000e1f0da5c       0x1c ./elibrary/bin//libsyscall.a(syscall.o)
                0x00000000e1f0da5c                esKRNL_TCreate
 .text.esKRNL_TDel
                0x00000000e1f0da78       0x1e ./elibrary/bin//libsyscall.a(syscall.o)
                0x00000000e1f0da78                esKRNL_TDel
 .text.esKRNL_TDelReq
                0x00000000e1f0da96       0x1e ./elibrary/bin//libsyscall.a(syscall.o)
                0x00000000e1f0da96                esKRNL_TDelReq
 .text.esKRNL_TimeDly
                0x00000000e1f0dab4       0x16 ./elibrary/bin//libsyscall.a(syscall.o)
                0x00000000e1f0dab4                esKRNL_TimeDly
 .text.esKSRV_GetMsg
                0x00000000e1f0daca       0x16 ./elibrary/bin//libsyscall.a(syscall.o)
                0x00000000e1f0daca                esKSRV_GetMsg
 .text.esKSRV_Get_Display_Hld
                0x00000000e1f0dae0       0x16 ./elibrary/bin//libsyscall.a(syscall.o)
                0x00000000e1f0dae0                esKSRV_Get_Display_Hld
 .text.esMEMS_Balloc
                0x00000000e1f0daf6       0x16 ./elibrary/bin//libsyscall.a(syscall.o)
                0x00000000e1f0daf6                esMEMS_Balloc
 .text.esMEMS_Bfree
                0x00000000e1f0db0c       0x16 ./elibrary/bin//libsyscall.a(syscall.o)
                0x00000000e1f0db0c                esMEMS_Bfree
 .text.esMEMS_Malloc
                0x00000000e1f0db22       0x1a ./elibrary/bin//libsyscall.a(syscall.o)
                0x00000000e1f0db22                esMEMS_Malloc
 .text.esMEMS_Mfree
                0x00000000e1f0db3c       0x16 ./elibrary/bin//libsyscall.a(syscall.o)
                0x00000000e1f0db3c                esMEMS_Mfree
 .text.esMEMS_Realloc
                0x00000000e1f0db52       0x1a ./elibrary/bin//libsyscall.a(syscall.o)
                0x00000000e1f0db52                esMEMS_Realloc
 .text.esMODS_MClose
                0x00000000e1f0db6c       0x18 ./elibrary/bin//libsyscall.a(syscall.o)
                0x00000000e1f0db6c                esMODS_MClose
 .text.esMODS_MInstall
                0x00000000e1f0db84       0x18 ./elibrary/bin//libsyscall.a(syscall.o)
                0x00000000e1f0db84                esMODS_MInstall
 .text.esMODS_MIoctrl
                0x00000000e1f0db9c       0x1a ./elibrary/bin//libsyscall.a(syscall.o)
                0x00000000e1f0db9c                esMODS_MIoctrl
 .text.esMODS_MOpen
                0x00000000e1f0dbb6       0x16 ./elibrary/bin//libsyscall.a(syscall.o)
                0x00000000e1f0dbb6                esMODS_MOpen
 .text.esMODS_MUninstall
                0x00000000e1f0dbcc       0x18 ./elibrary/bin//libsyscall.a(syscall.o)
                0x00000000e1f0dbcc                esMODS_MUninstall
 .text.esPINS_PinGrpReq
                0x00000000e1f0dbe4       0x16 ./elibrary/bin//libsyscall.a(syscall.o)
                0x00000000e1f0dbe4                esPINS_PinGrpReq
 .text.esPINS_ReadPinData
                0x00000000e1f0dbfa       0x16 ./elibrary/bin//libsyscall.a(syscall.o)
                0x00000000e1f0dbfa                esPINS_ReadPinData
 .text.esPINS_WritePinData
                0x00000000e1f0dc10       0x1a ./elibrary/bin//libsyscall.a(syscall.o)
                0x00000000e1f0dc10                esPINS_WritePinData
 .text.esSIOS_putstr
                0x00000000e1f0dc2a       0x14 ./elibrary/bin//libsyscall.a(syscall.o)
                0x00000000e1f0dc2a                esSIOS_putstr
 .text._close_r
                0x00000000e1f0dc3e       0x18 ./elibrary/bin//libsyscall.a(syscall_fops.o)
                0x00000000e1f0dc3e                _close_r
 .text._fstat_r
                0x00000000e1f0dc56       0x18 ./elibrary/bin//libsyscall.a(syscall_fops.o)
                0x00000000e1f0dc56                _fstat_r
 .text._lseek_r
                0x00000000e1f0dc6e       0x18 ./elibrary/bin//libsyscall.a(syscall_fops.o)
                0x00000000e1f0dc6e                _lseek_r
 .text._open_r  0x00000000e1f0dc86       0x18 ./elibrary/bin//libsyscall.a(syscall_fops.o)
                0x00000000e1f0dc86                _open_r
 .text._read_r  0x00000000e1f0dc9e       0x16 ./elibrary/bin//libsyscall.a(syscall_fops.o)
                0x00000000e1f0dc9e                _read_r
 .text._write_r
                0x00000000e1f0dcb4       0x16 ./elibrary/bin//libsyscall.a(syscall_fops.o)
                0x00000000e1f0dcb4                _write_r
 .text._malloc_r
                0x00000000e1f0dcca       0x16 ./elibrary/bin//libsyscall.a(syscall_fops.o)
                0x00000000e1f0dcca                _malloc_r
 .text._realloc_r
                0x00000000e1f0dce0       0x16 ./elibrary/bin//libsyscall.a(syscall_fops.o)
                0x00000000e1f0dce0                _realloc_r
 .text._free_r  0x00000000e1f0dcf6       0x16 ./elibrary/bin//libsyscall.a(syscall_fops.o)
                0x00000000e1f0dcf6                _free_r
 .text._isatty_r
                0x00000000e1f0dd0c       0x16 ./elibrary/bin//libsyscall.a(syscall_fops.o)
                0x00000000e1f0dd0c                _isatty_r
 .text.ioctl    0x00000000e1f0dd22       0x28 ./elibrary/bin//libsyscall.a(syscall_fops.o)
                0x00000000e1f0dd22                ioctl
 .text.eLIBs_fopen
                0x00000000e1f0dd4a        0x4 ./elibrary/bin//libminic.a(elibs_stdio.o)
                0x00000000e1f0dd4a                eLIBs_fopen
 .text.eLIBs_fclose
                0x00000000e1f0dd4e        0x4 ./elibrary/bin//libminic.a(elibs_stdio.o)
                0x00000000e1f0dd4e                eLIBs_fclose
 .text.eLIBs_fsync
                0x00000000e1f0dd52        0x4 ./elibrary/bin//libminic.a(elibs_stdio.o)
                0x00000000e1f0dd52                eLIBs_fsync
 .text.eLIBs_fread
                0x00000000e1f0dd56        0x4 ./elibrary/bin//libminic.a(elibs_stdio.o)
                0x00000000e1f0dd56                eLIBs_fread
 .text.eLIBs_fwrite
                0x00000000e1f0dd5a        0x4 ./elibrary/bin//libminic.a(elibs_stdio.o)
                0x00000000e1f0dd5a                eLIBs_fwrite
 .text.eLIBs_ftell
                0x00000000e1f0dd5e        0x4 ./elibrary/bin//libminic.a(elibs_stdio.o)
                0x00000000e1f0dd5e                eLIBs_ftell
 .text.eLIBs_flltell
                0x00000000e1f0dd62       0x22 ./elibrary/bin//libminic.a(elibs_stdio.o)
                0x00000000e1f0dd62                eLIBs_flltell
 .text.eLIBs_closedir
                0x00000000e1f0dd84        0x4 ./elibrary/bin//libminic.a(elibs_stdio.o)
                0x00000000e1f0dd84                eLIBs_closedir
 .text.eLIBs_GetFileSize
                0x00000000e1f0dd88       0x34 ./elibrary/bin//libminic.a(elibs_stdio.o)
                0x00000000e1f0dd88                eLIBs_GetFileSize
 .text.eLIBs_format
                0x00000000e1f0ddbc        0x4 ./elibrary/bin//libminic.a(elibs_stdio.o)
                0x00000000e1f0ddbc                eLIBs_format
 .text.eLIBs_GetFSCharset
                0x00000000e1f0ddc0        0xc ./elibrary/bin//libminic.a(elibs_stdio.o)
                0x00000000e1f0ddc0                eLIBs_GetFSCharset
 .text.eLIBs_vprintf
                0x00000000e1f0ddcc       0x42 ./elibrary/bin//libminic.a(elibs_stdio.o)
                0x00000000e1f0ddcc                eLIBs_vprintf
 .text.eLIBs_printf
                0x00000000e1f0de0e       0x20 ./elibrary/bin//libminic.a(elibs_stdio.o)
                0x00000000e1f0de0e                eLIBs_printf
                0x00000000e1f0de0e                printk
 .text.eLIBs_fseek
                0x00000000e1f0de2e       0x5c ./elibrary/bin//libminic.a(elibs_stdio.o)
                0x00000000e1f0de2e                eLIBs_fseek
 .text.eLIBs_fllseek
                0x00000000e1f0de8a       0x64 ./elibrary/bin//libminic.a(elibs_stdio.o)
                0x00000000e1f0de8a                eLIBs_fllseek
 .text.eLIBs_IsPartFormated
                0x00000000e1f0deee       0xbc ./elibrary/bin//libminic.a(elibs_stdio.o)
                0x00000000e1f0deee                eLIBs_IsPartFormated
 .text.eLIBs_setfs
                0x00000000e1f0dfaa        0x4 ./elibrary/bin//libminic.a(elibs_stdio.o)
                0x00000000e1f0dfaa                eLIBs_setfs
 .text.eLIBs_uint2str_dec
                0x00000000e1f0dfae        0xc ./elibrary/bin//libminic.a(elibs_stdlib.o)
                0x00000000e1f0dfae                eLIBs_uint2str_dec
 .text.eLIBs_malloc
                0x00000000e1f0dfba        0xa ./elibrary/bin//libminic.a(elibs_stdlib.o)
                0x00000000e1f0dfba                eLIBs_malloc
 .text.eLIBs_free
                0x00000000e1f0dfc4        0xc ./elibrary/bin//libminic.a(elibs_stdlib.o)
                0x00000000e1f0dfc4                eLIBs_free
 .text.eLIBs_strlen
                0x00000000e1f0dfd0        0xc ./elibrary/bin//libminic.a(elibs_string.o)
                0x00000000e1f0dfd0                eLIBs_strlen
 .text.eLIBs_strnlen
                0x00000000e1f0dfdc        0xc ./elibrary/bin//libminic.a(elibs_string.o)
                0x00000000e1f0dfdc                eLIBs_strnlen
 .text.eLIBs_strcpy
                0x00000000e1f0dfe8        0xc ./elibrary/bin//libminic.a(elibs_string.o)
                0x00000000e1f0dfe8                eLIBs_strcpy
 .text.eLIBs_strncpy
                0x00000000e1f0dff4        0xc ./elibrary/bin//libminic.a(elibs_string.o)
                0x00000000e1f0dff4                eLIBs_strncpy
 .text.eLIBs_strcat
                0x00000000e1f0e000        0xc ./elibrary/bin//libminic.a(elibs_string.o)
                0x00000000e1f0e000                eLIBs_strcat
 .text.eLIBs_strcmp
                0x00000000e1f0e00c        0xc ./elibrary/bin//libminic.a(elibs_string.o)
                0x00000000e1f0e00c                eLIBs_strcmp
 .text.eLIBs_stricmp
                0x00000000e1f0e018        0xc ./elibrary/bin//libminic.a(elibs_string.o)
                0x00000000e1f0e018                eLIBs_stricmp
 .text.eLIBs_strncmp
                0x00000000e1f0e024        0xc ./elibrary/bin//libminic.a(elibs_string.o)
                0x00000000e1f0e024                eLIBs_strncmp
 .text.eLIBs_strchrlast
                0x00000000e1f0e030        0xc ./elibrary/bin//libminic.a(elibs_string.o)
                0x00000000e1f0e030                eLIBs_strchrlast
 .text.eLIBs_memset
                0x00000000e1f0e03c        0xc ./elibrary/bin//libminic.a(elibs_string.o)
                0x00000000e1f0e03c                eLIBs_memset
 .text.eLIBs_memcpy
                0x00000000e1f0e048        0xc ./elibrary/bin//libminic.a(elibs_string.o)
                0x00000000e1f0e048                eLIBs_memcpy
 .text.eLIBs_memcmp
                0x00000000e1f0e054       0x18 ./elibrary/bin//libminic.a(elibs_string.o)
                0x00000000e1f0e054                eLIBs_memcmp
 .text.eLIBs_vsnprintf
                0x00000000e1f0e06c        0xc ./elibrary/bin//libminic.a(elibs_sprintf.o)
                0x00000000e1f0e06c                eLIBs_vsnprintf
 .text.eLIBs_vscnprintf
                0x00000000e1f0e078       0x1c ./elibrary/bin//libminic.a(elibs_sprintf.o)
                0x00000000e1f0e078                eLIBs_vscnprintf
 .text.eLIBs_sprintf
                0x00000000e1f0e094       0x22 ./elibrary/bin//libminic.a(elibs_sprintf.o)
                0x00000000e1f0e094                eLIBs_sprintf
 .text.AZ100_IsCompress
                0x00000000e1f0e0b6       0x2e ./elibrary/bin//liblzma.a(az100.o)
                0x00000000e1f0e0b6                AZ100_IsCompress
 .text.AZ100_GetUncompressSize
                0x00000000e1f0e0e4       0x52 ./elibrary/bin//liblzma.a(az100.o)
                0x00000000e1f0e0e4                AZ100_GetUncompressSize
 .text.AZ100_Uncompress
                0x00000000e1f0e136       0x24 ./elibrary/bin//liblzma.a(az100.o)
                0x00000000e1f0e136                AZ100_Uncompress
 .text.AZ100_DataUncompress
                0x00000000e1f0e15a       0x26 ./elibrary/bin//liblzma.a(compress.o)
                0x00000000e1f0e15a                AZ100_DataUncompress
 .text.SzFree   0x00000000e1f0e180        0x6 ./elibrary/bin//liblzma.a(LzmaLib.o)
 .text.SzAlloc  0x00000000e1f0e186        0x6 ./elibrary/bin//liblzma.a(LzmaLib.o)
 .text.LzmaUncompress
                0x00000000e1f0e18c       0x20 ./elibrary/bin//liblzma.a(LzmaLib.o)
                0x00000000e1f0e18c                LzmaUncompress
 .text.LzmaDec_WriteRem
                0x00000000e1f0e1ac       0x80 ./elibrary/bin//liblzma.a(LzmaDec.o)
 .text.LzmaDec_DecodeReal2
                0x00000000e1f0e22c      0xc54 ./elibrary/bin//liblzma.a(LzmaDec.o)
 .text.LzmaDec_TryDummy
                0x00000000e1f0ee80      0x500 ./elibrary/bin//liblzma.a(LzmaDec.o)
 .text.LzmaDec_Init
                0x00000000e1f0f380       0x1a ./elibrary/bin//liblzma.a(LzmaDec.o)
                0x00000000e1f0f380                LzmaDec_Init
 .text.LzmaDec_DecodeToDic
                0x00000000e1f0f39a      0x26c ./elibrary/bin//liblzma.a(LzmaDec.o)
                0x00000000e1f0f39a                LzmaDec_DecodeToDic
 .text.LzmaDec_FreeProbs
                0x00000000e1f0f606       0x1c ./elibrary/bin//liblzma.a(LzmaDec.o)
                0x00000000e1f0f606                LzmaDec_FreeProbs
 .text.LzmaDec_AllocateProbs2
                0x00000000e1f0f622       0x58 ./elibrary/bin//liblzma.a(LzmaDec.o)
 .text.LzmaProps_Decode
                0x00000000e1f0f67a       0x5c ./elibrary/bin//liblzma.a(LzmaDec.o)
                0x00000000e1f0f67a                LzmaProps_Decode
 .text.LzmaDec_AllocateProbs
                0x00000000e1f0f6d6       0x30 ./elibrary/bin//liblzma.a(LzmaDec.o)
                0x00000000e1f0f6d6                LzmaDec_AllocateProbs
 .text.LzmaDecode
                0x00000000e1f0f706       0xaa ./elibrary/bin//liblzma.a(LzmaDec.o)
                0x00000000e1f0f706                LzmaDecode
 .text.eLIBs_charset_convert
                0x00000000e1f0f7b0       0x82 ./elibrary/bin//libcharset.a(elibs_charset.o)
                0x00000000e1f0f7b0                eLIBs_charset_convert
 .text.eLIBs_GetAudioFormat
                0x00000000e1f0f832       0x12 ./elibrary/bin//libmediainfo.a(elibs_mediainf.o)
                0x00000000e1f0f832                eLIBs_GetAudioFormat
 .text.eLIBs_GetAudioInfo
                0x00000000e1f0f844       0x12 ./elibrary/bin//libmediainfo.a(elibs_mediainf.o)
                0x00000000e1f0f844                eLIBs_GetAudioInfo
 .text.GetAudioFormat
                0x00000000e1f0f856       0xbc ./elibrary/bin//libmediainfo.a(GetAudio_format.o)
                0x00000000e1f0f856                GetAudioFormat
 .text.GetAudioInfo
                0x00000000e1f0f912      0x32e ./elibrary/bin//libmediainfo.a(GetAudio_format.o)
                0x00000000e1f0f912                GetAudioInfo
 .text.ReadObject
                0x00000000e1f0fc40       0x68 ./elibrary/bin//libmediainfo.a(AudioInfo_WMA.o)
 .text.GetInfo_WMA
                0x00000000e1f0fca8      0x5f6 ./elibrary/bin//libmediainfo.a(AudioInfo_WMA.o)
                0x00000000e1f0fca8                GetInfo_WMA
 .text.WAVReadObject
                0x00000000e1f1029e       0x3a ./elibrary/bin//libmediainfo.a(AudioInfo_WAV.o)
 .text.GetInfo_WAV
                0x00000000e1f102d8      0x62e ./elibrary/bin//libmediainfo.a(AudioInfo_WAV.o)
                0x00000000e1f102d8                GetInfo_WAV
 .text.ReadFunc
                0x00000000e1f10906       0x42 ./elibrary/bin//libmediainfo.a(AudioInfo_RA.o)
 .text.GetCodec.part.1.constprop.3
                0x00000000e1f10948      0x3c6 ./elibrary/bin//libmediainfo.a(AudioInfo_RA.o)
 .text.GetInfo_RA
                0x00000000e1f10d0e      0x90e ./elibrary/bin//libmediainfo.a(AudioInfo_RA.o)
                0x00000000e1f10d0e                GetInfo_RA
 .text.GetInfo_OGG
                0x00000000e1f1161c      0x472 ./elibrary/bin//libmediainfo.a(AudioInfo_OGG.o)
                0x00000000e1f1161c                GetInfo_OGG
 .text.UnpackFrameHeader
                0x00000000e1f11a8e      0x132 ./elibrary/bin//libmediainfo.a(AudioInfo_MP3.o)
 .text.GetInfo_MP3
                0x00000000e1f11bc0      0x208 ./elibrary/bin//libmediainfo.a(AudioInfo_MP3.o)
                0x00000000e1f11bc0                GetInfo_MP3
 .text.getvl    0x00000000e1f11dc8       0x80 ./elibrary/bin//libmediainfo.a(AudioInfo_MID_timidity.o)
 .text.read_smf_track.isra.0
                0x00000000e1f11e48      0x22c ./elibrary/bin//libmediainfo.a(AudioInfo_MID_timidity.o)
 .text.GetInfo_MID
                0x00000000e1f12074      0x304 ./elibrary/bin//libmediainfo.a(AudioInfo_MID_timidity.o)
                0x00000000e1f12074                GetInfo_MID
 .text.vlc_towc
                0x00000000e1f12378       0xf8 ./elibrary/bin//libmediainfo.a(AudioInfo_FLAC.o)
                0x00000000e1f12378                vlc_towc
 .text.EnsureUTF8
                0x00000000e1f12470       0x40 ./elibrary/bin//libmediainfo.a(AudioInfo_FLAC.o)
                0x00000000e1f12470                EnsureUTF8
 .text.ParsePicture
                0x00000000e1f124b0      0x372 ./elibrary/bin//libmediainfo.a(AudioInfo_FLAC.o)
                0x00000000e1f124b0                ParsePicture
 .text.GetInfo_FLAC
                0x00000000e1f12822      0x35c ./elibrary/bin//libmediainfo.a(AudioInfo_FLAC.o)
                0x00000000e1f12822                GetInfo_FLAC
 .text.bitstream_fill_current
                0x00000000e1f12b7e       0x4e ./elibrary/bin//libmediainfo.a(AudioInfo_DTS.o)
 .text.bitstream_get
                0x00000000e1f12bcc       0x92 ./elibrary/bin//libmediainfo.a(AudioInfo_DTS.o)
 .text.syncinfo
                0x00000000e1f12c5e      0x100 ./elibrary/bin//libmediainfo.a(AudioInfo_DTS.o)
 .text.GetInfo_DTS
                0x00000000e1f12d5e      0x26a ./elibrary/bin//libmediainfo.a(AudioInfo_DTS.o)
                0x00000000e1f12d5e                GetInfo_DTS
 .text.DraFindSync
                0x00000000e1f12fc8       0x4c ./elibrary/bin//libmediainfo.a(AudioInfo_DRA.o)
                0x00000000e1f12fc8                DraFindSync
 .text.LoadDraFrame
                0x00000000e1f13014      0x11a ./elibrary/bin//libmediainfo.a(AudioInfo_DRA.o)
                0x00000000e1f13014                LoadDraFrame
 .text.GetInfo_DRA
                0x00000000e1f1312e       0xae ./elibrary/bin//libmediainfo.a(AudioInfo_DRA.o)
                0x00000000e1f1312e                GetInfo_DRA
 .text.GetInfo_CAF
                0x00000000e1f131dc      0x13a ./elibrary/bin//libmediainfo.a(AudioInfo_CAF.o)
                0x00000000e1f131dc                GetInfo_CAF
 .text.GetInfo_ATRAC
                0x00000000e1f13316      0x21c ./elibrary/bin//libmediainfo.a(AudioInfo_ATRAC.o)
                0x00000000e1f13316                GetInfo_ATRAC
 .text.GetInfo_APE
                0x00000000e1f13532      0x38c ./elibrary/bin//libmediainfo.a(AudioInfo_APE.o)
                0x00000000e1f13532                GetInfo_APE
 .text.GetInfo_AMR
                0x00000000e1f138be      0x10c ./elibrary/bin//libmediainfo.a(AudioInfo_AMR.o)
                0x00000000e1f138be                GetInfo_AMR
 .text.GetInfo_AC3
                0x00000000e1f139ca      0x4de ./elibrary/bin//libmediainfo.a(AudioInfo_AC3.o)
                0x00000000e1f139ca                GetInfo_AC3
 .text.GetBits  0x00000000e1f13ea8       0xf0 ./elibrary/bin//libmediainfo.a(AudioInfo_AAC.o)
 .text.UnpackADIFHeader
                0x00000000e1f13f98      0x480 ./elibrary/bin//libmediainfo.a(AudioInfo_AAC.o)
 .text.AACFindSyncWord
                0x00000000e1f14418       0x64 ./elibrary/bin//libmediainfo.a(AudioInfo_AAC.o)
 .text.AACFindSyncWord_LATM
                0x00000000e1f1447c       0x6e ./elibrary/bin//libmediainfo.a(AudioInfo_AAC.o)
 .text.GetNextFrame
                0x00000000e1f144ea      0x14a ./elibrary/bin//libmediainfo.a(AudioInfo_AAC.o)
 .text.GetNextFrame_LATM
                0x00000000e1f14634       0xbe ./elibrary/bin//libmediainfo.a(AudioInfo_AAC.o)
 .text.GetInfo_AAC
                0x00000000e1f146f2      0x520 ./elibrary/bin//libmediainfo.a(AudioInfo_AAC.o)
                0x00000000e1f146f2                GetInfo_AAC
 .text.GetInfo_BsInit
                0x00000000e1f14c12       0xc0 ./elibrary/bin//libmediainfo.a(bitstream.o)
                0x00000000e1f14c12                GetInfo_BsInit
 .text.GetInfo_GetFileLocation
                0x00000000e1f14cd2       0x26 ./elibrary/bin//libmediainfo.a(bitstream.o)
                0x00000000e1f14cd2                GetInfo_GetFileLocation
 .text.GetInfo_BsEndRelease
                0x00000000e1f14cf8       0x36 ./elibrary/bin//libmediainfo.a(bitstream.o)
                0x00000000e1f14cf8                GetInfo_BsEndRelease
 .text.GetInfo_GetBsInByte
                0x00000000e1f14d2e       0x9c ./elibrary/bin//libmediainfo.a(bitstream.o)
                0x00000000e1f14d2e                GetInfo_GetBsInByte
 .text.GetInfo_GetBsInByteLI
                0x00000000e1f14dca       0x8a ./elibrary/bin//libmediainfo.a(bitstream.o)
                0x00000000e1f14dca                GetInfo_GetBsInByteLI
 .text.GetInfo_SkipBsInByte
                0x00000000e1f14e54       0x58 ./elibrary/bin//libmediainfo.a(bitstream.o)
                0x00000000e1f14e54                GetInfo_SkipBsInByte
 .text.GetInfo_ExtractI4
                0x00000000e1f14eac       0x2a ./elibrary/bin//libmediainfo.a(bitstream.o)
                0x00000000e1f14eac                GetInfo_ExtractI4
 .text.GetInfo_UidComPare
                0x00000000e1f14ed6       0x28 ./elibrary/bin//libmediainfo.a(bitstream.o)
                0x00000000e1f14ed6                GetInfo_UidComPare
 .text.GetInfo_CHARComPare
                0x00000000e1f14efe       0x28 ./elibrary/bin//libmediainfo.a(bitstream.o)
                0x00000000e1f14efe                GetInfo_CHARComPare
 .text.GetInfo_ShowBs
                0x00000000e1f14f26       0xe6 ./elibrary/bin//libmediainfo.a(bitstream.o)
                0x00000000e1f14f26                GetInfo_ShowBs
 .text.GetInfo_StringLen
                0x00000000e1f1500c       0x18 ./elibrary/bin//libmediainfo.a(bitstream.o)
                0x00000000e1f1500c                GetInfo_StringLen
 .text.audio_fopen
                0x00000000e1f15024       0xfe ./elibrary/bin//libmediainfo.a(audio_fs_direct.o)
                0x00000000e1f15024                audio_fopen
 .text.audio_fclose
                0x00000000e1f15122        0xa ./elibrary/bin//libmediainfo.a(audio_fs_direct.o)
                0x00000000e1f15122                audio_fclose
 .text.audio_fread
                0x00000000e1f1512c       0xb4 ./elibrary/bin//libmediainfo.a(audio_fs_direct.o)
                0x00000000e1f1512c                audio_fread
 .text.audio_fseek
                0x00000000e1f151e0       0x22 ./elibrary/bin//libmediainfo.a(audio_fs_direct.o)
                0x00000000e1f151e0                audio_fseek
 .text.audio_ftell
                0x00000000e1f15202       0x16 ./elibrary/bin//libmediainfo.a(audio_fs_direct.o)
                0x00000000e1f15202                audio_ftell
 .text.GetInfo_GETTAG_XING
                0x00000000e1f15218       0x56 ./elibrary/bin//libmediainfo.a(Tag_XING.o)
                0x00000000e1f15218                GetInfo_GETTAG_XING
 .text.GetInfo_GETTAG_VBRI
                0x00000000e1f1526e       0x34 ./elibrary/bin//libmediainfo.a(Tag_VBRI.o)
                0x00000000e1f1526e                GetInfo_GETTAG_VBRI
 .text.GetInfo_oggStandardTag
                0x00000000e1f152a2      0x228 ./elibrary/bin//libmediainfo.a(Tag_OGG.o)
                0x00000000e1f152a2                GetInfo_oggStandardTag
 .text.Readunicode
                0x00000000e1f154ca       0xb8 ./elibrary/bin//libmediainfo.a(Tag_ID3.o)
 .text.ReadNunicode
                0x00000000e1f15582       0x54 ./elibrary/bin//libmediainfo.a(Tag_ID3.o)
 .text.GetInfo_GETID3_Len
                0x00000000e1f155d6       0x62 ./elibrary/bin//libmediainfo.a(Tag_ID3.o)
                0x00000000e1f155d6                GetInfo_GETID3_Len
 .text.GetInfo_GETID3_V2
                0x00000000e1f15638      0x838 ./elibrary/bin//libmediainfo.a(Tag_ID3.o)
                0x00000000e1f15638                GetInfo_GETID3_V2
 .text.GetInfo_GETID3_V1
                0x00000000e1f15e70      0x1a4 ./elibrary/bin//libmediainfo.a(Tag_ID3.o)
                0x00000000e1f15e70                GetInfo_GETID3_V1
 .text.GetInfo_Language_encoding
                0x00000000e1f16014       0x6e ./elibrary/bin//libmediainfo.a(Tag_Enoding.o)
                0x00000000e1f16014                GetInfo_Language_encoding
 .text.GetInfo_encoding_change
                0x00000000e1f16082      0x248 ./elibrary/bin//libmediainfo.a(Tag_Enoding.o)
                0x00000000e1f16082                GetInfo_encoding_change
 .text.ReadItemValue
                0x00000000e1f162ca       0xa2 ./elibrary/bin//libmediainfo.a(Tag_APE.o)
 .text.GetInfo_APETAG
                0x00000000e1f1636c      0x228 ./elibrary/bin//libmediainfo.a(Tag_APE.o)
                0x00000000e1f1636c                GetInfo_APETAG
 *(x$fpl$*)
 *(.stub)
 *(.gnu.warning)
 *(.gnu.linkonce.t*)
                0x00000000e1f16594                . = ALIGN (0x4)

.mod.rodata     0x00000000e1f16594     0x584c
 *(.rodata)
 *fill*         0x00000000e1f16594        0x4 
 .rodata        0x00000000e1f16598       0x48 livedesk/beetles/mod_desktop/engine/built-in.o
 .rodata        0x00000000e1f165e0        0xb ./elibrary/bin//libmediainfo.a(AudioInfo_OGG.o)
 *fill*         0x00000000e1f165eb        0x5 
 .rodata        0x00000000e1f165f0        0xb ./elibrary/bin//libmediainfo.a(AudioInfo_APE.o)
 *fill*         0x00000000e1f165fb        0x5 
 .rodata        0x00000000e1f16600        0x8 /home/yuzuki/WorkSpace/melis-v3.0/melis-4.x-release/toolchain/riscv64-elf-x86_64-20201104/bin/../lib/gcc/riscv64-unknown-elf/8.4.0/../../../../riscv64-unknown-elf/lib/rv64imafdcxtheadc/lp64d/libc.a(lib_a-impure.o)
                0x00000000e1f16600                _global_impure_ptr
 *(.rodata.*)
 .rodata.DESKTOP_MOpen.str1.8
                0x00000000e1f16608       0xbc livedesk/beetles/mod_desktop/mod_desktop.o
 *fill*         0x00000000e1f166c4        0x4 
 .rodata.__func__.19713
                0x00000000e1f166c8        0xe livedesk/beetles/mod_desktop/mod_desktop.o
 *fill*         0x00000000e1f166d6        0x2 
 .rodata.__func__.19799
                0x00000000e1f166d8       0x12 livedesk/beetles/mod_desktop/engine/built-in.o
 *fill*         0x00000000e1f166ea        0x6 
 .rodata.__func__.19806
                0x00000000e1f166f0       0x12 livedesk/beetles/mod_desktop/engine/built-in.o
 *fill*         0x00000000e1f16702        0x6 
 .rodata.__func__.19811
                0x00000000e1f16708        0xf livedesk/beetles/mod_desktop/engine/built-in.o
 *fill*         0x00000000e1f16717        0x1 
 .rodata.__func__.19816
                0x00000000e1f16718       0x36 livedesk/beetles/mod_desktop/engine/built-in.o
 *fill*         0x00000000e1f1674e        0x2 
 .rodata.__func__.19822
                0x00000000e1f16750       0x13 livedesk/beetles/mod_desktop/engine/built-in.o
 *fill*         0x00000000e1f16763        0x5 
 .rodata.__func__.19828
                0x00000000e1f16768       0x18 livedesk/beetles/mod_desktop/engine/built-in.o
 .rodata.__func__.19834
                0x00000000e1f16780       0x19 livedesk/beetles/mod_desktop/engine/built-in.o
 *fill*         0x00000000e1f16799        0x7 
 .rodata.__func__.19838
                0x00000000e1f167a0       0x13 livedesk/beetles/mod_desktop/engine/built-in.o
 *fill*         0x00000000e1f167b3        0x5 
 .rodata.__func__.19842
                0x00000000e1f167b8       0x19 livedesk/beetles/mod_desktop/engine/built-in.o
 *fill*         0x00000000e1f167d1        0x7 
 .rodata.__func__.19846
                0x00000000e1f167d8       0x17 livedesk/beetles/mod_desktop/engine/built-in.o
 *fill*         0x00000000e1f167ef        0x1 
 .rodata.__func__.19850
                0x00000000e1f167f0       0x17 livedesk/beetles/mod_desktop/engine/built-in.o
 *fill*         0x00000000e1f16807        0x1 
 .rodata.dsk_radio_get_vol.str1.8
                0x00000000e1f16808       0x44 livedesk/beetles/mod_desktop/engine/built-in.o
                                         0x5c (size before relaxing)
 *fill*         0x00000000e1f1684c        0x4 
 .rodata.dsk_radio_mute.str1.8
                0x00000000e1f16850       0x2b livedesk/beetles/mod_desktop/engine/built-in.o
 *fill*         0x00000000e1f1687b        0x5 
 .rodata.dsk_radio_open.str1.8
                0x00000000e1f16880       0x18 livedesk/beetles/mod_desktop/engine/built-in.o
 .rodata.__func__.19794
                0x00000000e1f16898       0x1c livedesk/beetles/mod_desktop/engine/built-in.o
 *fill*         0x00000000e1f168b4        0x4 
 .rodata.__func__.19801
                0x00000000e1f168b8       0x1c livedesk/beetles/mod_desktop/engine/built-in.o
 *fill*         0x00000000e1f168d4        0x4 
 .rodata.__func__.19807
                0x00000000e1f168d8       0x1a livedesk/beetles/mod_desktop/engine/built-in.o
 *fill*         0x00000000e1f168f2        0x6 
 .rodata.__func__.19812
                0x00000000e1f168f8       0x1b livedesk/beetles/mod_desktop/engine/built-in.o
 *fill*         0x00000000e1f16913        0x5 
 .rodata.__func__.19837
                0x00000000e1f16918       0x1a livedesk/beetles/mod_desktop/engine/built-in.o
 *fill*         0x00000000e1f16932        0x6 
 .rodata.__func__.19841
                0x00000000e1f16938       0x1a livedesk/beetles/mod_desktop/engine/built-in.o
 *fill*         0x00000000e1f16952        0x6 
 .rodata.__func__.19845
                0x00000000e1f16958       0x19 livedesk/beetles/mod_desktop/engine/built-in.o
 *fill*         0x00000000e1f16971        0x7 
 .rodata.__func__.19849
                0x00000000e1f16978       0x1e livedesk/beetles/mod_desktop/engine/built-in.o
 *fill*         0x00000000e1f16996        0x2 
 .rodata.__func__.19856
                0x00000000e1f16998       0x19 livedesk/beetles/mod_desktop/engine/built-in.o
 *fill*         0x00000000e1f169b1        0x7 
 .rodata.__func__.19868
                0x00000000e1f169b8       0x1d livedesk/beetles/mod_desktop/engine/built-in.o
 *fill*         0x00000000e1f169d5        0x3 
 .rodata.__func__.19877
                0x00000000e1f169d8       0x1c livedesk/beetles/mod_desktop/engine/built-in.o
 *fill*         0x00000000e1f169f4        0x4 
 .rodata.__func__.19881
                0x00000000e1f169f8       0x21 livedesk/beetles/mod_desktop/engine/built-in.o
 *fill*         0x00000000e1f16a19        0x7 
 .rodata.__func__.19885
                0x00000000e1f16a20       0x21 livedesk/beetles/mod_desktop/engine/built-in.o
 *fill*         0x00000000e1f16a41        0x7 
 .rodata.__func__.19890
                0x00000000e1f16a48       0x23 livedesk/beetles/mod_desktop/engine/built-in.o
 *fill*         0x00000000e1f16a6b        0x5 
 .rodata.__func__.19894
                0x00000000e1f16a70       0x1e livedesk/beetles/mod_desktop/engine/built-in.o
 *fill*         0x00000000e1f16a8e        0x2 
 .rodata.__func__.19899
                0x00000000e1f16a90       0x29 livedesk/beetles/mod_desktop/engine/built-in.o
 *fill*         0x00000000e1f16ab9        0x7 
 .rodata.__func__.19904
                0x00000000e1f16ac0       0x24 livedesk/beetles/mod_desktop/engine/built-in.o
 *fill*         0x00000000e1f16ae4        0x4 
 .rodata.__func__.19910
                0x00000000e1f16ae8       0x1b livedesk/beetles/mod_desktop/engine/built-in.o
 *fill*         0x00000000e1f16b03        0x5 
 .rodata.__func__.19918
                0x00000000e1f16b08       0x1c livedesk/beetles/mod_desktop/engine/built-in.o
 *fill*         0x00000000e1f16b24        0x4 
 .rodata.__func__.19925
                0x00000000e1f16b28       0x20 livedesk/beetles/mod_desktop/engine/built-in.o
 .rodata.__func__.19944
                0x00000000e1f16b48       0x21 livedesk/beetles/mod_desktop/engine/built-in.o
 *fill*         0x00000000e1f16b69        0x7 
 .rodata.__func__.19964
                0x00000000e1f16b70       0x1c livedesk/beetles/mod_desktop/engine/built-in.o
 *fill*         0x00000000e1f16b8c        0x4 
 .rodata.__func__.19982
                0x00000000e1f16b90       0x23 livedesk/beetles/mod_desktop/engine/built-in.o
 *fill*         0x00000000e1f16bb3        0x5 
 .rodata.__func__.19987
                0x00000000e1f16bb8       0x25 livedesk/beetles/mod_desktop/engine/built-in.o
 *fill*         0x00000000e1f16bdd        0x3 
 .rodata.dsk_radio_rcv_open.str1.8
                0x00000000e1f16be0        0x3 livedesk/beetles/mod_desktop/engine/built-in.o
 *fill*         0x00000000e1f16be3        0x5 
 .rodata.dsk_radio_rcv_set_freq_play.str1.8
                0x00000000e1f16be8       0x33 livedesk/beetles/mod_desktop/engine/built-in.o
                                         0x63 (size before relaxing)
 *fill*         0x00000000e1f16c1b        0x5 
 .rodata.my_output_format.str1.8
                0x00000000e1f16c20        0x7 livedesk/beetles/mod_desktop/engine/built-in.o
 *fill*         0x00000000e1f16c27        0x1 
 .rodata.__func__.19769
                0x00000000e1f16c28       0x1b livedesk/beetles/mod_desktop/engine/built-in.o
 *fill*         0x00000000e1f16c43        0x5 
 .rodata.__func__.19788
                0x00000000e1f16c48       0x1b livedesk/beetles/mod_desktop/engine/built-in.o
 *fill*         0x00000000e1f16c63        0x5 
 .rodata.get_channel_list_from_file.str1.8
                0x00000000e1f16c68       0x3b livedesk/beetles/mod_desktop/engine/built-in.o
                                         0x6b (size before relaxing)
 *fill*         0x00000000e1f16ca3        0x5 
 .rodata.write_channel_list_to_file.str1.8
                0x00000000e1f16ca8       0x28 livedesk/beetles/mod_desktop/engine/built-in.o
 .rodata.__func__.19758
                0x00000000e1f16cd0       0x1d livedesk/beetles/mod_desktop/engine/built-in.o
 *fill*         0x00000000e1f16ced        0x3 
 .rodata.__func__.19762
                0x00000000e1f16cf0       0x1c livedesk/beetles/mod_desktop/engine/built-in.o
 *fill*         0x00000000e1f16d0c        0x4 
 .rodata.__func__.19768
                0x00000000e1f16d10       0x18 livedesk/beetles/mod_desktop/engine/built-in.o
 .rodata.__func__.19772
                0x00000000e1f16d28       0x18 livedesk/beetles/mod_desktop/engine/built-in.o
 .rodata.dsk_radio_send_set_freq_play.str1.8
                0x00000000e1f16d40       0x31 livedesk/beetles/mod_desktop/engine/built-in.o
                                         0x61 (size before relaxing)
 *fill*         0x00000000e1f16d71        0x7 
 .rodata.__dsk_wkm_cedar_open.str1.8
                0x00000000e1f16d78       0x98 livedesk/beetles/mod_desktop/engine/built-in.o
 .rodata.__dsk_wkm_get_feedback_msgQ.str1.8
                0x00000000e1f16e10       0x42 livedesk/beetles/mod_desktop/engine/built-in.o
 *fill*         0x00000000e1f16e52        0x6 
 .rodata.__dsk_wkm_orchid_open.str1.8
                0x00000000e1f16e58       0x35 livedesk/beetles/mod_desktop/engine/built-in.o
                                         0x65 (size before relaxing)
 *fill*         0x00000000e1f16e8d        0x3 
 .rodata.__dsk_wkm_res_mutex_create.str1.8
                0x00000000e1f16e90       0x41 livedesk/beetles/mod_desktop/engine/built-in.o
 *fill*         0x00000000e1f16ed1        0x7 
 .rodata.__func__.19954
                0x00000000e1f16ed8       0x15 livedesk/beetles/mod_desktop/engine/built-in.o
 *fill*         0x00000000e1f16eed        0x3 
 .rodata.__func__.19961
                0x00000000e1f16ef0       0x1c livedesk/beetles/mod_desktop/engine/built-in.o
 *fill*         0x00000000e1f16f0c        0x4 
 .rodata.__func__.19965
                0x00000000e1f16f10       0x1b livedesk/beetles/mod_desktop/engine/built-in.o
 *fill*         0x00000000e1f16f2b        0x5 
 .rodata.__func__.20011
                0x00000000e1f16f30       0x17 livedesk/beetles/mod_desktop/engine/built-in.o
 *fill*         0x00000000e1f16f47        0x1 
 .rodata.dsk_wkm_monitor_create.str1.8
                0x00000000e1f16f48       0x4b livedesk/beetles/mod_desktop/engine/built-in.o
                                         0x7b (size before relaxing)
 *fill*         0x00000000e1f16f93        0x5 
 .rodata.__dsk_wkm_feedbackQ_create.str1.8
                0x00000000e1f16f98       0x41 livedesk/beetles/mod_desktop/engine/built-in.o
                                         0x71 (size before relaxing)
 *fill*         0x00000000e1f16fd9        0x7 
 .rodata.__func__.19921
                0x00000000e1f16fe0       0x1b livedesk/beetles/mod_desktop/engine/built-in.o
 *fill*         0x00000000e1f16ffb        0x5 
 .rodata.CSWTCH.15
                0x00000000e1f17000        0x4 livedesk/beetles/mod_desktop/engine/built-in.o
 *fill*         0x00000000e1f17004        0x4 
 .rodata.CSWTCH.16
                0x00000000e1f17008        0x4 livedesk/beetles/mod_desktop/engine/built-in.o
 *fill*         0x00000000e1f1700c        0x4 
 .rodata.__dsk_wkm_get_album_cover.str1.8
                0x00000000e1f17010       0xa1 livedesk/beetles/mod_desktop/engine/built-in.o
                                         0xd1 (size before relaxing)
 *fill*         0x00000000e1f170b1        0x7 
 .rodata.__func__.20070
                0x00000000e1f170b8       0x1a livedesk/beetles/mod_desktop/engine/built-in.o
 *fill*         0x00000000e1f170d2        0x6 
 .rodata.__activity_load_common.str1.8
                0x00000000e1f170d8      0x106 livedesk/beetles/mod_desktop/framework/built-in.o
                                        0x14e (size before relaxing)
 *fill*         0x00000000e1f171de        0x2 
 .rodata.__func__.19646
                0x00000000e1f171e0       0x5d livedesk/beetles/mod_desktop/framework/built-in.o
 *fill*         0x00000000e1f1723d        0x3 
 .rodata.__func__.19732
                0x00000000e1f17240       0x1a livedesk/beetles/mod_desktop/framework/built-in.o
 *fill*         0x00000000e1f1725a        0x6 
 .rodata.__func__.19737
                0x00000000e1f17260       0x12 livedesk/beetles/mod_desktop/framework/built-in.o
 *fill*         0x00000000e1f17272        0x6 
 .rodata.__func__.19799
                0x00000000e1f17278       0x17 livedesk/beetles/mod_desktop/framework/built-in.o
 *fill*         0x00000000e1f1728f        0x1 
 .rodata.__func__.19803
                0x00000000e1f17290        0xe livedesk/beetles/mod_desktop/framework/built-in.o
 *fill*         0x00000000e1f1729e        0x2 
 .rodata.__func__.19817
                0x00000000e1f172a0       0x12 livedesk/beetles/mod_desktop/framework/built-in.o
 *fill*         0x00000000e1f172b2        0x6 
 .rodata.__func__.19846
                0x00000000e1f172b8       0x12 livedesk/beetles/mod_desktop/framework/built-in.o
 *fill*         0x00000000e1f172ca        0x6 
 .rodata.__func__.19864
                0x00000000e1f172d0       0x17 livedesk/beetles/mod_desktop/framework/built-in.o
 *fill*         0x00000000e1f172e7        0x1 
 .rodata.activity_finish_all.str1.8
                0x00000000e1f172e8       0x13 livedesk/beetles/mod_desktop/framework/built-in.o
 *fill*         0x00000000e1f172fb        0x5 
 .rodata.activity_get_load_para.str1.8
                0x00000000e1f17300       0x34 livedesk/beetles/mod_desktop/framework/built-in.o
 *fill*         0x00000000e1f17334        0x4 
 .rodata.activity_init.str1.8
                0x00000000e1f17338       0x33 livedesk/beetles/mod_desktop/framework/built-in.o
 *fill*         0x00000000e1f1736b        0x5 
 .rodata.activity_load_app.str1.8
                0x00000000e1f17370       0x41 livedesk/beetles/mod_desktop/framework/built-in.o
 *fill*         0x00000000e1f173b1        0x7 
 .rodata.activity_return_home.str1.8
                0x00000000e1f173b8       0x17 livedesk/beetles/mod_desktop/framework/built-in.o
 *fill*         0x00000000e1f173cf        0x1 
 .rodata.__func__.19711
                0x00000000e1f173d0       0x18 livedesk/beetles/mod_desktop/framework/built-in.o
 .rodata.__func__.19721
                0x00000000e1f173e8       0x20 livedesk/beetles/mod_desktop/framework/built-in.o
 .rodata.__func__.19726
                0x00000000e1f17408       0x15 livedesk/beetles/mod_desktop/framework/built-in.o
 *fill*         0x00000000e1f1741d        0x3 
 .rodata.__func__.19736
                0x00000000e1f17420       0x16 livedesk/beetles/mod_desktop/framework/built-in.o
 *fill*         0x00000000e1f17436        0x2 
 .rodata.__func__.19745
                0x00000000e1f17438       0x15 livedesk/beetles/mod_desktop/framework/built-in.o
 *fill*         0x00000000e1f1744d        0x3 
 .rodata.__func__.19769
                0x00000000e1f17450       0x20 livedesk/beetles/mod_desktop/framework/built-in.o
 .rodata.activity_manager_create.str1.8
                0x00000000e1f17470       0x39 livedesk/beetles/mod_desktop/framework/built-in.o
                                         0x89 (size before relaxing)
 *fill*         0x00000000e1f174a9        0x7 
 .rodata.activity_manager_delete_backgrd.str1.8
                0x00000000e1f174b0       0x3b livedesk/beetles/mod_desktop/framework/built-in.o
 *fill*         0x00000000e1f174eb        0x5 
 .rodata.activity_manager_find_free_node.str1.8
                0x00000000e1f174f0       0x30 livedesk/beetles/mod_desktop/framework/built-in.o
                                         0x60 (size before relaxing)
 .rodata.activity_manager_pop.str1.8
                0x00000000e1f17520       0x39 livedesk/beetles/mod_desktop/framework/built-in.o
 *fill*         0x00000000e1f17559        0x7 
 .rodata.__func__.19652
                0x00000000e1f17560       0x2f livedesk/beetles/mod_desktop/framework/built-in.o
 *fill*         0x00000000e1f1758f        0x1 
 .rodata.__func__.19665
                0x00000000e1f17590       0x2e livedesk/beetles/mod_desktop/framework/built-in.o
 *fill*         0x00000000e1f175be        0x2 
 .rodata.__func__.19867
                0x00000000e1f175c0       0x1b livedesk/beetles/mod_desktop/framework/built-in.o
 *fill*         0x00000000e1f175db        0x5 
 .rodata.__func__.19875
                0x00000000e1f175e0       0x1a livedesk/beetles/mod_desktop/framework/built-in.o
 *fill*         0x00000000e1f175fa        0x6 
 .rodata.__func__.19883
                0x00000000e1f17600       0x1e livedesk/beetles/mod_desktop/framework/built-in.o
 *fill*         0x00000000e1f1761e        0x2 
 .rodata.__func__.19891
                0x00000000e1f17620       0x1d livedesk/beetles/mod_desktop/framework/built-in.o
 *fill*         0x00000000e1f1763d        0x3 
 .rodata.__func__.19898
                0x00000000e1f17640       0x1e livedesk/beetles/mod_desktop/framework/built-in.o
 *fill*         0x00000000e1f1765e        0x2 
 .rodata.__func__.19904
                0x00000000e1f17660       0x18 livedesk/beetles/mod_desktop/framework/built-in.o
 .rodata.__func__.19921
                0x00000000e1f17678       0x18 livedesk/beetles/mod_desktop/framework/built-in.o
 .rodata.applet_info_builder_on_start.str1.8
                0x00000000e1f17690       0x37 livedesk/beetles/mod_desktop/framework/built-in.o
 *fill*         0x00000000e1f176c7        0x1 
 .rodata.applet_info_manager_create.str1.8
                0x00000000e1f176c8       0x38 livedesk/beetles/mod_desktop/framework/built-in.o
 .rodata.applet_info_manager_get.str1.8
                0x00000000e1f17700       0x56 livedesk/beetles/mod_desktop/framework/built-in.o
 *fill*         0x00000000e1f17756        0x2 
 .rodata.applet_info_manager_load_dir.str1.8
                0x00000000e1f17758       0xc2 livedesk/beetles/mod_desktop/framework/built-in.o
 *fill*         0x00000000e1f1781a        0x6 
 .rodata.applet_info_manager_load_file.str1.8
                0x00000000e1f17820       0x9a livedesk/beetles/mod_desktop/framework/built-in.o
 *fill*         0x00000000e1f178ba        0x6 
 .rodata.applet_info_manager_parse.str1.8
                0x00000000e1f178c0       0x2c livedesk/beetles/mod_desktop/framework/built-in.o
 .rodata.mini_allocator_realloc.part.1.str1.8
                0x00000000e1f178ec       0x62 livedesk/beetles/mod_desktop/framework/built-in.o
 *fill*         0x00000000e1f178ec        0x4 
 .rodata.mini_allocator_zalloc.str1.8
                0x00000000e1f178f0       0x31 livedesk/beetles/mod_desktop/framework/built-in.o
 *fill*         0x00000000e1f17921        0x7 
 .rodata.__func__.19738
                0x00000000e1f17928       0x1c livedesk/beetles/mod_desktop/framework/built-in.o
 *fill*         0x00000000e1f17944        0x4 
 .rodata.applet_plugin_module_create.str1.8
                0x00000000e1f17948       0x92 livedesk/beetles/mod_desktop/framework/built-in.o
                                         0xc2 (size before relaxing)
 *fill*         0x00000000e1f179da        0x2 
 .rodata.mini_xml_parser_parse
                0x00000000e1f179dc       0x24 livedesk/beetles/mod_desktop/framework/built-in.o
 .rodata.mini_xml_parser_create.str1.8
                0x00000000e1f17a00       0x31 livedesk/beetles/mod_desktop/framework/built-in.o
 .rodata.mini_xml_parser_parse.cst8
                0x00000000e1f17a00       0x10 livedesk/beetles/mod_desktop/framework/built-in.o
 .rodata.mini_xml_parser_parse.str1.8
                0x00000000e1f17a10       0x1d livedesk/beetles/mod_desktop/framework/built-in.o
 .rodata.mini_xml_parser_strdup.str1.8
                0x00000000e1f17a2d       0x62 livedesk/beetles/mod_desktop/framework/built-in.o
 *fill*         0x00000000e1f17a2d        0x3 
 .rodata.dsk_set_auto_off_time.str1.8
                0x00000000e1f17a30        0x5 livedesk/beetles/mod_desktop/functions/built-in.o
 *fill*         0x00000000e1f17a35        0x3 
 .rodata.dsk_get_fs_charset.str1.8
                0x00000000e1f17a38        0x4 livedesk/beetles/mod_desktop/functions/built-in.o
 *fill*         0x00000000e1f17a3c        0x4 
 .rodata.CSWTCH.0
                0x00000000e1f17a40       0x10 livedesk/beetles/mod_desktop/functions/built-in.o
 .rodata.__func__.19708
                0x00000000e1f17a50       0x13 livedesk/beetles/mod_desktop/functions/built-in.o
 *fill*         0x00000000e1f17a63        0x5 
 .rodata.__func__.19716
                0x00000000e1f17a68       0x14 livedesk/beetles/mod_desktop/functions/built-in.o
 *fill*         0x00000000e1f17a7c        0x4 
 .rodata.__func__.19724
                0x00000000e1f17a80       0x3f livedesk/beetles/mod_desktop/functions/built-in.o
 *fill*         0x00000000e1f17abf        0x1 
 .rodata.__func__.19730
                0x00000000e1f17ac0       0x27 livedesk/beetles/mod_desktop/functions/built-in.o
 *fill*         0x00000000e1f17ae7        0x1 
 .rodata.__func__.19738
                0x00000000e1f17ae8       0x1f livedesk/beetles/mod_desktop/functions/built-in.o
 *fill*         0x00000000e1f17b07        0x1 
 .rodata.__func__.19765
                0x00000000e1f17b08       0x1f livedesk/beetles/mod_desktop/functions/built-in.o
 *fill*         0x00000000e1f17b27        0x1 
 .rodata.__func__.19791
                0x00000000e1f17b28       0x1b livedesk/beetles/mod_desktop/functions/built-in.o
 *fill*         0x00000000e1f17b43        0x5 
 .rodata.dsk_display_lcd_on.str1.8
                0x00000000e1f17b48       0x3c livedesk/beetles/mod_desktop/functions/built-in.o
                                         0x6c (size before relaxing)
 *fill*         0x00000000e1f17b84        0x4 
 .rodata.dsk_display_set_lcd_bright.str1.8
                0x00000000e1f17b88       0x4b livedesk/beetles/mod_desktop/functions/built-in.o
 *fill*         0x00000000e1f17bd3        0x5 
 .rodata.dsk_display_set_lcd_brightness.str1.8
                0x00000000e1f17bd8       0x31 livedesk/beetles/mod_desktop/functions/built-in.o
 *fill*         0x00000000e1f17c09        0x7 
 .rodata.save_backlight_to_mixture.str1.8
                0x00000000e1f17c10       0x3b livedesk/beetles/mod_desktop/functions/built-in.o
                                         0x53 (size before relaxing)
 *fill*         0x00000000e1f17c4b        0x5 
 .rodata.__func__.19735
                0x00000000e1f17c50       0x15 livedesk/beetles/mod_desktop/functions/built-in.o
 *fill*         0x00000000e1f17c65        0x3 
 .rodata.__func__.19742
                0x00000000e1f17c68       0x1a livedesk/beetles/mod_desktop/functions/built-in.o
 *fill*         0x00000000e1f17c82        0x6 
 .rodata.__func__.19749
                0x00000000e1f17c88       0x1a livedesk/beetles/mod_desktop/functions/built-in.o
 .rodata.dsk_display_get_size.str1.8
                0x00000000e1f17ca2       0x6c livedesk/beetles/mod_desktop/functions/built-in.o
 *fill*         0x00000000e1f17ca2        0x2 
 .rodata.dsk_display_dskfmt2epdkfmt
                0x00000000e1f17ca4       0xa0 livedesk/beetles/mod_desktop/functions/built-in.o
 *fill*         0x00000000e1f17d44        0x4 
 .rodata.__func__.19709
                0x00000000e1f17d48       0x17 livedesk/beetles/mod_desktop/functions/built-in.o
 *fill*         0x00000000e1f17d5f        0x1 
 .rodata.__func__.19737
                0x00000000e1f17d60       0x1c livedesk/beetles/mod_desktop/functions/built-in.o
 *fill*         0x00000000e1f17d7c        0x4 
 .rodata.__func__.19790
                0x00000000e1f17d80        0xf livedesk/beetles/mod_desktop/functions/built-in.o
 *fill*         0x00000000e1f17d8f        0x1 
 .rodata.__func__.19796
                0x00000000e1f17d90       0x1c livedesk/beetles/mod_desktop/functions/built-in.o
 .rodata.dsk_display_get_output_type.str1.8
                0x00000000e1f17dac       0x6c livedesk/beetles/mod_desktop/functions/built-in.o
 *fill*         0x00000000e1f17dac        0x4 
 .rodata.dsk_fw_update.str1.8
                0x00000000e1f17db0       0x84 livedesk/beetles/mod_desktop/functions/built-in.o
                                         0xb4 (size before relaxing)
 .rodata.dsk_start_fw_update.str1.8
                0x00000000e1f17e34        0x5 livedesk/beetles/mod_desktop/functions/built-in.o
 *fill*         0x00000000e1f17e34        0x4 
 .rodata.__func__.19707
                0x00000000e1f17e38       0x11 livedesk/beetles/mod_desktop/functions/built-in.o
 *fill*         0x00000000e1f17e49        0x7 
 .rodata.dsk_langres_init.str1.8
                0x00000000e1f17e50       0x6c livedesk/beetles/mod_desktop/functions/built-in.o
                                         0x9c (size before relaxing)
 *fill*         0x00000000e1f17ebc        0x4 
 .rodata.dsk_orchid_createDisk.str1.8
                0x00000000e1f17ec0        0xc livedesk/beetles/mod_desktop/functions/built-in.o
 *fill*         0x00000000e1f17ecc        0x4 
 .rodata.dsk_power_dev_init.str1.8
                0x00000000e1f17ed0       0x13 livedesk/beetles/mod_desktop/functions/built-in.o
 *fill*         0x00000000e1f17ee3        0x1 
 .rodata.dsk_reg_get_para_by_app
                0x00000000e1f17ee4       0x30 livedesk/beetles/mod_desktop/functions/built-in.o
 .rodata.dsk_reg_get_default_para_by_app
                0x00000000e1f17f14       0x30 livedesk/beetles/mod_desktop/functions/built-in.o
 .rodata.dsk_reg_save_cur_play_info
                0x00000000e1f17f44       0x20 livedesk/beetles/mod_desktop/functions/built-in.o
 *fill*         0x00000000e1f17f64        0x4 
 .rodata.__func__.19780
                0x00000000e1f17f68       0x14 livedesk/beetles/mod_desktop/functions/built-in.o
 *fill*         0x00000000e1f17f7c        0x4 
 .rodata.__func__.19811
                0x00000000e1f17f80       0x19 livedesk/beetles/mod_desktop/functions/built-in.o
 *fill*         0x00000000e1f17f99        0x7 
 .rodata.__func__.19818
                0x00000000e1f17fa0       0x1a livedesk/beetles/mod_desktop/functions/built-in.o
 *fill*         0x00000000e1f17fba        0x6 
 .rodata.__func__.19825
                0x00000000e1f17fc0       0x1a livedesk/beetles/mod_desktop/functions/built-in.o
 *fill*         0x00000000e1f17fda        0x6 
 .rodata.__func__.19844
                0x00000000e1f17fe0       0x12 livedesk/beetles/mod_desktop/functions/built-in.o
 *fill*         0x00000000e1f17ff2        0x6 
 .rodata.__func__.19861
                0x00000000e1f17ff8       0x18 livedesk/beetles/mod_desktop/functions/built-in.o
 .rodata.__func__.19879
                0x00000000e1f18010       0x20 livedesk/beetles/mod_desktop/functions/built-in.o
 .rodata.__func__.19897
                0x00000000e1f18030       0x1d livedesk/beetles/mod_desktop/functions/built-in.o
 *fill*         0x00000000e1f1804d        0x3 
 .rodata.__func__.19902
                0x00000000e1f18050       0x1d livedesk/beetles/mod_desktop/functions/built-in.o
 *fill*         0x00000000e1f1806d        0x3 
 .rodata.__func__.19909
                0x00000000e1f18070       0x1b livedesk/beetles/mod_desktop/functions/built-in.o
 *fill*         0x00000000e1f1808b        0x5 
 .rodata.__func__.19920
                0x00000000e1f18090       0x1c livedesk/beetles/mod_desktop/functions/built-in.o
 *fill*         0x00000000e1f180ac        0x4 
 .rodata.__reg_paramter_init.cst8
                0x00000000e1f180b0       0x18 livedesk/beetles/mod_desktop/functions/built-in.o
 .rodata.__reg_paramter_init.str1.8
                0x00000000e1f180c8       0x51 livedesk/beetles/mod_desktop/functions/built-in.o
                                         0x81 (size before relaxing)
 *fill*         0x00000000e1f18119        0x7 
 .rodata.dsk_reg_get_para_by_app.str1.8
                0x00000000e1f18120       0x30 livedesk/beetles/mod_desktop/functions/built-in.o
 .rodata.dsk_reg_init_para.str1.8
                0x00000000e1f18150      0x13f livedesk/beetles/mod_desktop/functions/built-in.o
                                        0x157 (size before relaxing)
 *fill*         0x00000000e1f1828f        0x1 
 .rodata.dsk_reg_save_cur_play_info.str1.8
                0x00000000e1f18290       0x2f livedesk/beetles/mod_desktop/functions/built-in.o
 *fill*         0x00000000e1f182bf        0x1 
 .rodata.save_flash_task.str1.8
                0x00000000e1f182c0       0x9d livedesk/beetles/mod_desktop/functions/built-in.o
                                         0xa5 (size before relaxing)
 *fill*         0x00000000e1f1835d        0x3 
 .rodata.__func__.19733
                0x00000000e1f18360        0xf livedesk/beetles/mod_desktop/functions/built-in.o
 *fill*         0x00000000e1f1836f        0x1 
 .rodata.dsk_theme_init.str1.8
                0x00000000e1f18370       0x40 livedesk/beetles/mod_desktop/functions/built-in.o
                                         0x70 (size before relaxing)
 .rodata.__func__.19756
                0x00000000e1f183b0        0xf livedesk/beetles/mod_desktop/functions/built-in.o
 *fill*         0x00000000e1f183bf        0x1 
 .rodata.__func__.19768
                0x00000000e1f183c0        0xf livedesk/beetles/mod_desktop/functions/built-in.o
 *fill*         0x00000000e1f183cf        0x1 
 .rodata.__func__.19788
                0x00000000e1f183d0        0xc livedesk/beetles/mod_desktop/functions/built-in.o
 *fill*         0x00000000e1f183dc        0x4 
 .rodata.__init_hp_det_pin_init.str1.8
                0x00000000e1f183e0       0x13 livedesk/beetles/mod_desktop/functions/built-in.o
 *fill*         0x00000000e1f183f3        0x5 
 .rodata._get_volume.str1.8
                0x00000000e1f183f8       0x35 livedesk/beetles/mod_desktop/functions/built-in.o
 *fill*         0x00000000e1f1842d        0x3 
 .rodata._set_volume.str1.8
                0x00000000e1f18430       0xce livedesk/beetles/mod_desktop/functions/built-in.o
                                        0x116 (size before relaxing)
 *fill*         0x00000000e1f184fe        0x2 
 .rodata.dsk_pa_shdn_pin_init.str1.8
                0x00000000e1f18500        0x8 livedesk/beetles/mod_desktop/functions/built-in.o
 .rodata.dsk_volume_dec.str1.8
                0x00000000e1f18508       0x64 livedesk/beetles/mod_desktop/functions/built-in.o
 *fill*         0x00000000e1f1856c        0x4 
 .rodata.dsk_volume_get.str1.8
                0x00000000e1f18570       0x35 livedesk/beetles/mod_desktop/functions/built-in.o
 *fill*         0x00000000e1f185a5        0x3 
 .rodata.key_msg_cb
                0x00000000e1f185a8      0x294 livedesk/beetles/mod_desktop/msg_srv/built-in.o
 .rodata.msg_srv_dispatch_message
                0x00000000e1f1883c       0x14 livedesk/beetles/mod_desktop/msg_srv/built-in.o
 .rodata.__func__.19769
                0x00000000e1f18850       0x19 livedesk/beetles/mod_desktop/msg_srv/built-in.o
 *fill*         0x00000000e1f18869        0x7 
 .rodata.__func__.19778
                0x00000000e1f18870       0x19 livedesk/beetles/mod_desktop/msg_srv/built-in.o
 *fill*         0x00000000e1f18889        0x7 
 .rodata.__func__.19789
                0x00000000e1f18890       0x1a livedesk/beetles/mod_desktop/msg_srv/built-in.o
 *fill*         0x00000000e1f188aa        0x6 
 .rodata.__func__.19843
                0x00000000e1f188b0        0xb livedesk/beetles/mod_desktop/msg_srv/built-in.o
 *fill*         0x00000000e1f188bb        0x5 
 .rodata.__func__.19941
                0x00000000e1f188c0       0x10 livedesk/beetles/mod_desktop/msg_srv/built-in.o
 .rodata.__func__.20004
                0x00000000e1f188d0       0x19 livedesk/beetles/mod_desktop/msg_srv/built-in.o
 *fill*         0x00000000e1f188e9        0x7 
 .rodata.ksrv_msg_thread.str1.8
                0x00000000e1f188f0       0x73 livedesk/beetles/mod_desktop/msg_srv/built-in.o
                                         0xa3 (size before relaxing)
 *fill*         0x00000000e1f18963        0x5 
 .rodata.msg_emit_init.str1.8
                0x00000000e1f18968        0xd livedesk/beetles/mod_desktop/msg_srv/built-in.o
 *fill*         0x00000000e1f18975        0x3 
 .rodata.msg_srv_dispatch_message.str1.8
                0x00000000e1f18978       0x32 livedesk/beetles/mod_desktop/msg_srv/built-in.o
 *fill*         0x00000000e1f189aa        0x6 
 .rodata.msg_srv_init_key_channel.str1.8
                0x00000000e1f189b0      0x117 livedesk/beetles/mod_desktop/msg_srv/built-in.o
 *fill*         0x00000000e1f18ac7        0x1 
 .rodata.msg_srv_init_ksrv_channel.str1.8
                0x00000000e1f18ac8       0x4a livedesk/beetles/mod_desktop/msg_srv/built-in.o
                                         0x62 (size before relaxing)
 *fill*         0x00000000e1f18b12        0x6 
 .rodata.msg_srv_thread.str1.8
                0x00000000e1f18b18       0xe6 livedesk/beetles/mod_desktop/msg_srv/built-in.o
 *fill*         0x00000000e1f18bfe        0x2 
 .rodata.tp_msg_cb.str1.8
                0x00000000e1f18c00       0xaf livedesk/beetles/mod_desktop/msg_srv/built-in.o
 *fill*         0x00000000e1f18caf        0x1 
 .rodata.g_default_allocator
                0x00000000e1f18cb0       0x28 livedesk/beetles/mod_desktop/util/built-in.o
 .rodata.__func__.6248
                0x00000000e1f18cd8        0xc ./elibrary/bin//libminic.a(elibs_stdio.o)
 *fill*         0x00000000e1f18ce4        0x4 
 .rodata.__func__.6254
                0x00000000e1f18ce8        0xe ./elibrary/bin//libminic.a(elibs_stdio.o)
 *fill*         0x00000000e1f18cf6        0x2 
 .rodata.__func__.6400
                0x00000000e1f18cf8       0x15 ./elibrary/bin//libminic.a(elibs_stdio.o)
 .rodata.eLIBs_GetFileAttributes.str1.8
                0x00000000e1f18d0d        0x3 ./elibrary/bin//libminic.a(elibs_stdio.o)
 *fill*         0x00000000e1f18d0d        0x3 
 .rodata.eLIBs_GetPTName.str1.8
                0x00000000e1f18d10       0x2e ./elibrary/bin//libminic.a(elibs_stdio.o)
 *fill*         0x00000000e1f18d3e        0x2 
 .rodata.eLIBs_fseek.str1.8
                0x00000000e1f18d40       0x30 ./elibrary/bin//libminic.a(elibs_stdio.o)
                                         0x60 (size before relaxing)
 .rodata.AZ100_IsCompress.str1.8
                0x00000000e1f18d70        0x5 ./elibrary/bin//liblzma.a(az100.o)
 *fill*         0x00000000e1f18d75        0x3 
 .rodata.GetAudioInfo
                0x00000000e1f18d78       0x88 ./elibrary/bin//libmediainfo.a(GetAudio_format.o)
 .rodata.AudioFormatOrder
                0x00000000e1f18e00        0xf ./elibrary/bin//libmediainfo.a(GetAudio_format.o)
 *fill*         0x00000000e1f18e0f        0x1 
 .rodata.GetAudioInfo.cst8
                0x00000000e1f18e10        0x8 ./elibrary/bin//libmediainfo.a(GetAudio_format.o)
 .rodata.GetAudioInfo.str1.8
                0x00000000e1f18e18       0x88 ./elibrary/bin//libmediainfo.a(GetAudio_format.o)
                                         0x90 (size before relaxing)
 .rodata.audio_format_postfix
                0x00000000e1f18ea0      0x108 ./elibrary/bin//libmediainfo.a(GetAudio_format.o)
 .rodata.CSWTCH.3
                0x00000000e1f18fa8        0x4 ./elibrary/bin//libmediainfo.a(AudioInfo_WMA.o)
 *fill*         0x00000000e1f18fac        0x4 
 .rodata.WMAExtAlbumTitle
                0x00000000e1f18fb0       0x1c ./elibrary/bin//libmediainfo.a(AudioInfo_WMA.o)
 *fill*         0x00000000e1f18fcc        0x4 
 .rodata.WMAExtGenre
                0x00000000e1f18fd0       0x12 ./elibrary/bin//libmediainfo.a(AudioInfo_WMA.o)
 *fill*         0x00000000e1f18fe2        0x6 
 .rodata.WMAExtImag
                0x00000000e1f18fe8       0x80 ./elibrary/bin//libmediainfo.a(AudioInfo_WMA.o)
 .rodata.WMAExtImagLen
                0x00000000e1f19068        0x8 ./elibrary/bin//libmediainfo.a(AudioInfo_WMA.o)
 .rodata.WMAExtPicture
                0x00000000e1f19070       0x16 ./elibrary/bin//libmediainfo.a(AudioInfo_WMA.o)
 *fill*         0x00000000e1f19086        0x2 
 .rodata.WMAExtYear
                0x00000000e1f19088       0x10 ./elibrary/bin//libmediainfo.a(AudioInfo_WMA.o)
 .rodata.WMAHEADOBJ
                0x00000000e1f19098       0x70 ./elibrary/bin//libmediainfo.a(AudioInfo_WMA.o)
 .rodata.WMAcodecInfo
                0x00000000e1f19108       0x7c ./elibrary/bin//libmediainfo.a(AudioInfo_WMA.o)
 *fill*         0x00000000e1f19184        0x4 
 .rodata.wavcodecInfo
                0x00000000e1f19188       0xa5 ./elibrary/bin//libmediainfo.a(AudioInfo_WAV.o)
 *fill*         0x00000000e1f1922d        0x3 
 .rodata.GetInfo_RA.cst8
                0x00000000e1f19230       0x10 ./elibrary/bin//libmediainfo.a(AudioInfo_RA.o)
 .rodata.GetInfo_RA.str1.8
                0x00000000e1f19240       0x37 ./elibrary/bin//libmediainfo.a(AudioInfo_RA.o)
 *fill*         0x00000000e1f19277        0x1 
 .rodata.RAcodec
                0x00000000e1f19278       0xf7 ./elibrary/bin//libmediainfo.a(AudioInfo_RA.o)
 *fill*         0x00000000e1f1936f        0x1 
 .rodata.bitrateTable
                0x00000000e1f19370       0x98 ./elibrary/bin//libmediainfo.a(AudioInfo_RA.o)
 .rodata.fstable
                0x00000000e1f19408        0xc ./elibrary/bin//libmediainfo.a(AudioInfo_RA.o)
 *fill*         0x00000000e1f19414        0x4 
 .rodata.halfrateTable
                0x00000000e1f19418       0x18 ./elibrary/bin//libmediainfo.a(AudioInfo_RA.o)
 .rodata.GetInfo_OGG.cst8
                0x00000000e1f19430       0x10 ./elibrary/bin//libmediainfo.a(AudioInfo_OGG.o)
 .rodata.GetInfo_MP3.str1.8
                0x00000000e1f19440       0x39 ./elibrary/bin//libmediainfo.a(AudioInfo_MP3.o)
 *fill*         0x00000000e1f19479        0x7 
 .rodata.bitrateTab
                0x00000000e1f19480      0x10e ./elibrary/bin//libmediainfo.a(AudioInfo_MP3.o)
 *fill*         0x00000000e1f1958e        0x2 
 .rodata.codecInfo
                0x00000000e1f19590       0x75 ./elibrary/bin//libmediainfo.a(AudioInfo_MP3.o)
 *fill*         0x00000000e1f19605        0x3 
 .rodata.samplerateTab
                0x00000000e1f19608       0x24 ./elibrary/bin//libmediainfo.a(AudioInfo_MP3.o)
 *fill*         0x00000000e1f1962c        0x4 
 .rodata.samplesPerFrameTab
                0x00000000e1f19630       0x12 ./elibrary/bin//libmediainfo.a(AudioInfo_MP3.o)
 *fill*         0x00000000e1f19642        0x2 
 .rodata.read_smf_track.isra.0
                0x00000000e1f19644       0x1c ./elibrary/bin//libmediainfo.a(AudioInfo_MID_timidity.o)
 .rodata.GetInfo_MID.cst8
                0x00000000e1f19660       0x18 ./elibrary/bin//libmediainfo.a(AudioInfo_MID_timidity.o)
 .rodata.GetInfo_MID.str1.8
                0x00000000e1f19678        0x5 ./elibrary/bin//libmediainfo.a(AudioInfo_MID_timidity.o)
 *fill*         0x00000000e1f1967d        0x3 
 .rodata.read_smf_track.isra.0.str1.8
                0x00000000e1f19680        0x5 ./elibrary/bin//libmediainfo.a(AudioInfo_MID_timidity.o)
 *fill*         0x00000000e1f19685        0x3 
 .rodata.vlc_towc
                0x00000000e1f19688       0x14 ./elibrary/bin//libmediainfo.a(AudioInfo_FLAC.o)
 .rodata.GetInfo_FLAC.cst8
                0x00000000e1f1969c        0x8 ./elibrary/bin//libmediainfo.a(AudioInfo_FLAC.o)
 *fill*         0x00000000e1f1969c        0x4 
 .rodata.GetInfo_FLAC.str1.8
                0x00000000e1f196a0      0x107 ./elibrary/bin//libmediainfo.a(AudioInfo_FLAC.o)
 *fill*         0x00000000e1f197a7        0x1 
 .rodata.ParsePicture.str1.8
                0x00000000e1f197a8      0x1a7 ./elibrary/bin//libmediainfo.a(AudioInfo_FLAC.o)
                                        0x1d7 (size before relaxing)
 *fill*         0x00000000e1f1994f        0x1 
 .rodata.__func__.5642
                0x00000000e1f19950        0xd ./elibrary/bin//libmediainfo.a(AudioInfo_FLAC.o)
 *fill*         0x00000000e1f1995d        0x3 
 .rodata.__func__.5665
                0x00000000e1f19960        0xd ./elibrary/bin//libmediainfo.a(AudioInfo_FLAC.o)
 *fill*         0x00000000e1f1996d        0x3 
 .rodata.dca_bit_rates
                0x00000000e1f19970       0x80 ./elibrary/bin//libmediainfo.a(AudioInfo_DTS.o)
 .rodata.dca_channels
                0x00000000e1f199f0       0x20 ./elibrary/bin//libmediainfo.a(AudioInfo_DTS.o)
 .rodata.dca_sample_rates
                0x00000000e1f19a10       0x40 ./elibrary/bin//libmediainfo.a(AudioInfo_DTS.o)
 .rodata.dtscodecInfo
                0x00000000e1f19a50       0x34 ./elibrary/bin//libmediainfo.a(AudioInfo_DTS.o)
 *fill*         0x00000000e1f19a84        0x4 
 .rodata.LoadDraFrame.str1.8
                0x00000000e1f19a88       0x73 ./elibrary/bin//libmediainfo.a(AudioInfo_DRA.o)
                                         0xa3 (size before relaxing)
 *fill*         0x00000000e1f19afb        0x5 
 .rodata.__func__.5604
                0x00000000e1f19b00        0xd ./elibrary/bin//libmediainfo.a(AudioInfo_DRA.o)
 *fill*         0x00000000e1f19b0d        0x3 
 .rodata.GetInfo_ATRAC.cst8
                0x00000000e1f19b10        0x8 ./elibrary/bin//libmediainfo.a(AudioInfo_ATRAC.o)
                                         0x18 (size before relaxing)
 .rodata.atracformat
                0x00000000e1f19b18       0x10 ./elibrary/bin//libmediainfo.a(AudioInfo_ATRAC.o)
 .rodata.GetInfo_APE.cst8
                0x00000000e1f19b28        0x8 ./elibrary/bin//libmediainfo.a(AudioInfo_APE.o)
                                         0x18 (size before relaxing)
 .rodata.apeformat
                0x00000000e1f19b30       0x46 ./elibrary/bin//libmediainfo.a(AudioInfo_APE.o)
 *fill*         0x00000000e1f19b76        0x2 
 .rodata.AMRcodecInfo
                0x00000000e1f19b78        0xe ./elibrary/bin//libmediainfo.a(AudioInfo_AMR.o)
 *fill*         0x00000000e1f19b86        0x2 
 .rodata.GetInfo_AMR.str1.8
                0x00000000e1f19b88       0x12 ./elibrary/bin//libmediainfo.a(AudioInfo_AMR.o)
 *fill*         0x00000000e1f19b9a        0x6 
 .rodata.block_size1
                0x00000000e1f19ba0       0x40 ./elibrary/bin//libmediainfo.a(AudioInfo_AMR.o)
 .rodata.block_size2
                0x00000000e1f19be0       0x40 ./elibrary/bin//libmediainfo.a(AudioInfo_AMR.o)
 .rodata.AC3codecInfo
                0x00000000e1f19c20       0x55 ./elibrary/bin//libmediainfo.a(AudioInfo_AC3.o)
 *fill*         0x00000000e1f19c75        0x3 
 .rodata.GetInfo_AC3.cst8
                0x00000000e1f19c78        0x8 ./elibrary/bin//libmediainfo.a(AudioInfo_AC3.o)
                                         0x10 (size before relaxing)
 .rodata.bitrateTable
                0x00000000e1f19c80       0x98 ./elibrary/bin//libmediainfo.a(AudioInfo_AC3.o)
 .rodata.channumtable
                0x00000000e1f19d18       0x20 ./elibrary/bin//libmediainfo.a(AudioInfo_AC3.o)
 .rodata.eac3_blocks
                0x00000000e1f19d38       0x10 ./elibrary/bin//libmediainfo.a(AudioInfo_AC3.o)
 .rodata.fstable
                0x00000000e1f19d48        0xc ./elibrary/bin//libmediainfo.a(AudioInfo_AC3.o)
 *fill*         0x00000000e1f19d54        0x4 
 .rodata.halfrateTable
                0x00000000e1f19d58       0x18 ./elibrary/bin//libmediainfo.a(AudioInfo_AC3.o)
 .rodata.mlp_channels
                0x00000000e1f19d70       0x20 ./elibrary/bin//libmediainfo.a(AudioInfo_AC3.o)
 .rodata.thd_chancount
                0x00000000e1f19d90        0xd ./elibrary/bin//libmediainfo.a(AudioInfo_AC3.o)
 *fill*         0x00000000e1f19d9d        0x3 
 .rodata.AACcodecInfo
                0x00000000e1f19da0       0x5a ./elibrary/bin//libmediainfo.a(AudioInfo_AAC.o)
 *fill*         0x00000000e1f19dfa        0x6 
 .rodata.GetInfo_AAC.cst8
                0x00000000e1f19e00        0x8 ./elibrary/bin//libmediainfo.a(AudioInfo_AAC.o)
                                         0x10 (size before relaxing)
 .rodata.UnpackADIFHeader.cst8
                0x00000000e1f19e08       0x10 ./elibrary/bin//libmediainfo.a(AudioInfo_AAC.o)
 .rodata.channelMapTab
                0x00000000e1f19e08       0x20 ./elibrary/bin//libmediainfo.a(AudioInfo_AAC.o)
 .rodata.sampRateTab
                0x00000000e1f19e28       0x30 ./elibrary/bin//libmediainfo.a(AudioInfo_AAC.o)
 .rodata.GetInfo_GetBsInByte.str1.8
                0x00000000e1f19e58       0x27 ./elibrary/bin//libmediainfo.a(bitstream.o)
 *fill*         0x00000000e1f19e7f        0x1 
 .rodata.audio_fopen.str1.8
                0x00000000e1f19e80       0x16 ./elibrary/bin//libmediainfo.a(audio_fs_direct.o)
 *fill*         0x00000000e1f19e96        0x2 
 .rodata.GetInfo_GETID3_V2.str1.8
                0x00000000e1f19e98       0xa4 ./elibrary/bin//libmediainfo.a(Tag_ID3.o)
                                         0xd4 (size before relaxing)
 *fill*         0x00000000e1f19f3c        0x4 
 .rodata.ID3UniqueTag
                0x00000000e1f19f40       0x60 ./elibrary/bin//libmediainfo.a(Tag_ID3.o)
 .rodata.ID3V1GENRE
                0x00000000e1f19fa0      0xce4 ./elibrary/bin//libmediainfo.a(Tag_ID3.o)
 *fill*         0x00000000e1f1ac84        0x4 
 .rodata.ISO_639_2_Code
                0x00000000e1f1ac88     0x1108 ./elibrary/bin//libmediainfo.a(Tag_Enoding.o)
 .rodata.GetInfo_APETAG.str1.8
                0x00000000e1f1bd90       0x38 ./elibrary/bin//libmediainfo.a(Tag_APE.o)
                                         0x36 (size before relaxing)
 .rodata.cst8   0x00000000e1f1bdc8       0x10 /home/yuzuki/WorkSpace/melis-v3.0/melis-4.x-release/toolchain/riscv64-elf-x86_64-20201104/bin/../lib/gcc/riscv64-unknown-elf/8.4.0/../../../../riscv64-unknown-elf/lib/rv64imafdcxtheadc/lp64d/libc.a(lib_a-strcat.o)
 .rodata.cst8   0x00000000e1f1bdd8        0x8 /home/yuzuki/WorkSpace/melis-v3.0/melis-4.x-release/toolchain/riscv64-elf-x86_64-20201104/bin/../lib/gcc/riscv64-unknown-elf/8.4.0/../../../../riscv64-unknown-elf/lib/rv64imafdcxtheadc/lp64d/libc.a(lib_a-strcpy.o)
 .rodata.cst8   0x00000000e1f1bde0        0x8 /home/yuzuki/WorkSpace/melis-v3.0/melis-4.x-release/toolchain/riscv64-elf-x86_64-20201104/bin/../lib/gcc/riscv64-unknown-elf/8.4.0/../../../../riscv64-unknown-elf/lib/rv64imafdcxtheadc/lp64d/libc.a(lib_a-strlen.o)
 .rodata.cst8   0x00000000e1f1bde0       0x10 /home/yuzuki/WorkSpace/melis-v3.0/melis-4.x-release/toolchain/riscv64-elf-x86_64-20201104/bin/../lib/gcc/riscv64-unknown-elf/8.4.0/../../../../riscv64-unknown-elf/lib/rv64imafdcxtheadc/lp64d/libc.a(lib_a-strncmp.o)
 .rodata.cst8   0x00000000e1f1bde0       0x10 /home/yuzuki/WorkSpace/melis-v3.0/melis-4.x-release/toolchain/riscv64-elf-x86_64-20201104/bin/../lib/gcc/riscv64-unknown-elf/8.4.0/../../../../riscv64-unknown-elf/lib/rv64imafdcxtheadc/lp64d/libc.a(lib_a-strncpy.o)
 .rodata.cst8   0x00000000e1f1bde0       0x10 /home/yuzuki/WorkSpace/melis-v3.0/melis-4.x-release/toolchain/riscv64-elf-x86_64-20201104/bin/../lib/gcc/riscv64-unknown-elf/8.4.0/../../../../riscv64-unknown-elf/lib/rv64imafdcxtheadc/lp64d/libc.a(lib_a-memchr.o)
 .rodata.cst8   0x00000000e1f1bde0       0x10 /home/yuzuki/WorkSpace/melis-v3.0/melis-4.x-release/toolchain/riscv64-elf-x86_64-20201104/bin/../lib/gcc/riscv64-unknown-elf/8.4.0/../../../../riscv64-unknown-elf/lib/rv64imafdcxtheadc/lp64d/libc.a(lib_a-strchr.o)
 *(.const*)
 *(.gnu.linkonce.r*)
                0x00000000e1f1bdf0                . = ALIGN (0x4)

.mod.data       0x00000000e1f1bde0      0x890
 *(.data)
 .data          0x00000000e1f1bde0      0x750 /home/yuzuki/WorkSpace/melis-v3.0/melis-4.x-release/toolchain/riscv64-elf-x86_64-20201104/bin/../lib/gcc/riscv64-unknown-elf/8.4.0/../../../../riscv64-unknown-elf/lib/rv64imafdcxtheadc/lp64d/libc.a(lib_a-impure.o)
                0x00000000e1f1bde0                _impure_ptr
 *(.data.*)
 .data.forbid_autoplay
                0x00000000e1f1c530        0x1 livedesk/beetles/mod_desktop/engine/built-in.o
 .data.fs_charset
                0x00000000e1f1c531        0x1 livedesk/beetles/mod_desktop/functions/built-in.o
 .data.isn_charset
                0x00000000e1f1c532        0x1 livedesk/beetles/mod_desktop/functions/built-in.o
 *fill*         0x00000000e1f1c533        0x1 
 .data.lang_ID  0x00000000e1f1c534        0x2 livedesk/beetles/mod_desktop/functions/built-in.o
 *fill*         0x00000000e1f1c536        0x2 
 .data.power_fp
                0x00000000e1f1c538        0x4 livedesk/beetles/mod_desktop/functions/built-in.o
 .data.dsk_volume
                0x00000000e1f1c53c        0x4 livedesk/beetles/mod_desktop/functions/built-in.o
 .data.dsk_volume_gate_on
                0x00000000e1f1c540        0x1 livedesk/beetles/mod_desktop/functions/built-in.o
 *fill*         0x00000000e1f1c541        0x7 
 .data.g_Alloc  0x00000000e1f1c548       0x10 ./elibrary/bin//liblzma.a(LzmaLib.o)
 .data.g_key    0x00000000e1f1c558        0x8 ./elibrary/bin//libmediainfo.a(audio_fs_direct.o)
 .data.g_string
                0x00000000e1f1c560       0x10 ./elibrary/bin//libmediainfo.a(audio_fs_direct.o)
 .data.windows1251_unicode
                0x00000000e1f1c570      0x100 ./elibrary/bin//libmediainfo.a(Tag_Enoding.o)
                0x00000000e1f1c570                windows1251_unicode
 *(.gnu.linkonce.d.*)
 *(.sdata)
 *(.sdata.*)
 *(.gnu.linkonce.s.*)
 *(.sdata2)
 *(.sdata2.*)
 *(.gnu.linkonce.s2.*)
                0x00000000e1f1c670                . = ALIGN (0x4)

.mod.bss        0x00000000e1f1c670     0x1700
                0x00000000e1f1c670                __bss_start = ABSOLUTE (.)
 *(.bss)
 *(.bss.*)
 .bss.desktp_data
                0x00000000e1f1c670       0x10 livedesk/beetles/mod_desktop/mod_desktop.o
                0x00000000e1f1c670                desktp_data
 .bss.h_radio   0x00000000e1f1c680        0x8 livedesk/beetles/mod_desktop/engine/built-in.o
                0x00000000e1f1c680                h_radio
 .bss.cb_ctx_search_fail
                0x00000000e1f1c688        0x8 livedesk/beetles/mod_desktop/engine/built-in.o
                0x00000000e1f1c688                cb_ctx_search_fail
 .bss.cb_ctx_search_over
                0x00000000e1f1c690        0x8 livedesk/beetles/mod_desktop/engine/built-in.o
                0x00000000e1f1c690                cb_ctx_search_over
 .bss.cb_ctx_search_success
                0x00000000e1f1c698        0x8 livedesk/beetles/mod_desktop/engine/built-in.o
                0x00000000e1f1c698                cb_ctx_search_success
 .bss.cb_search_fail
                0x00000000e1f1c6a0        0x8 livedesk/beetles/mod_desktop/engine/built-in.o
                0x00000000e1f1c6a0                cb_search_fail
 .bss.cb_search_over
                0x00000000e1f1c6a8        0x8 livedesk/beetles/mod_desktop/engine/built-in.o
                0x00000000e1f1c6a8                cb_search_over
 .bss.cb_search_success
                0x00000000e1f1c6b0        0x8 livedesk/beetles/mod_desktop/engine/built-in.o
                0x00000000e1f1c6b0                cb_search_success
 .bss.dsk_radio_rcv
                0x00000000e1f1c6b8        0x8 livedesk/beetles/mod_desktop/engine/built-in.o
 .bss.dsk_radio_send
                0x00000000e1f1c6c0        0x8 livedesk/beetles/mod_desktop/engine/built-in.o
 .bss.cb_auto_play_next
                0x00000000e1f1c6c8        0x8 livedesk/beetles/mod_desktop/engine/built-in.o
                0x00000000e1f1c6c8                cb_auto_play_next
 .bss.cb_ctx_auto_play_next
                0x00000000e1f1c6d0        0x8 livedesk/beetles/mod_desktop/engine/built-in.o
                0x00000000e1f1c6d0                cb_ctx_auto_play_next
 .bss.cb_ctx_no_item_to_play
                0x00000000e1f1c6d8        0x8 livedesk/beetles/mod_desktop/engine/built-in.o
                0x00000000e1f1c6d8                cb_ctx_no_item_to_play
 .bss.cb_no_item_to_play
                0x00000000e1f1c6e0        0x8 livedesk/beetles/mod_desktop/engine/built-in.o
                0x00000000e1f1c6e0                cb_no_item_to_play
 .bss.dsk_wkm_attr
                0x00000000e1f1c6e8        0x8 livedesk/beetles/mod_desktop/engine/built-in.o
                0x00000000e1f1c6e8                dsk_wkm_attr
 .bss.dsk_wkm_cedar_msgQ
                0x00000000e1f1c6f0        0x8 livedesk/beetles/mod_desktop/engine/built-in.o
                0x00000000e1f1c6f0                dsk_wkm_cedar_msgQ
 .bss.dsk_wkm_hced
                0x00000000e1f1c6f8        0x8 livedesk/beetles/mod_desktop/engine/built-in.o
                0x00000000e1f1c6f8                dsk_wkm_hced
 .bss.dsk_wkm_hnpl
                0x00000000e1f1c700        0x8 livedesk/beetles/mod_desktop/engine/built-in.o
                0x00000000e1f1c700                dsk_wkm_hnpl
 .bss.dsk_wkm_horc
                0x00000000e1f1c708        0x8 livedesk/beetles/mod_desktop/engine/built-in.o
                0x00000000e1f1c708                dsk_wkm_horc
 .bss.dsk_wkm_res_mutex
                0x00000000e1f1c710        0x8 livedesk/beetles/mod_desktop/engine/built-in.o
                0x00000000e1f1c710                dsk_wkm_res_mutex
 .bss.mid_ced   0x00000000e1f1c718        0x1 livedesk/beetles/mod_desktop/engine/built-in.o
 *fill*         0x00000000e1f1c719        0x7 
 .bss.now_playing_file
                0x00000000e1f1c720      0x300 livedesk/beetles/mod_desktop/engine/built-in.o
                0x00000000e1f1c720                now_playing_file
 .bss.npl_is_dirty
                0x00000000e1f1ca20        0x1 livedesk/beetles/mod_desktop/engine/built-in.o
 .bss.to_quit_dsk_wkm
                0x00000000e1f1ca21        0x1 livedesk/beetles/mod_desktop/engine/built-in.o
                0x00000000e1f1ca21                to_quit_dsk_wkm
 .bss.walkman_is_open
                0x00000000e1f1ca22        0x1 livedesk/beetles/mod_desktop/engine/built-in.o
 .bss.walkman_is_pause
                0x00000000e1f1ca23        0x1 livedesk/beetles/mod_desktop/engine/built-in.o
 .bss.walkman_is_playing
                0x00000000e1f1ca24        0x1 livedesk/beetles/mod_desktop/engine/built-in.o
 .bss.monitor_has_run
                0x00000000e1f1ca25        0x1 livedesk/beetles/mod_desktop/engine/built-in.o
 *fill*         0x00000000e1f1ca26        0x2 
 .bss.monitor_id
                0x00000000e1f1ca28        0x4 livedesk/beetles/mod_desktop/engine/built-in.o
 *fill*         0x00000000e1f1ca2c        0x4 
 .bss.dsk_wkm_feedbackQ
                0x00000000e1f1ca30        0x8 livedesk/beetles/mod_desktop/engine/built-in.o
                0x00000000e1f1ca30                dsk_wkm_feedbackQ
 .bss.load_para
                0x00000000e1f1ca38      0x504 livedesk/beetles/mod_desktop/framework/built-in.o
 *fill*         0x00000000e1f1cf3c        0x4 
 .bss.load_sem  0x00000000e1f1cf40        0x8 livedesk/beetles/mod_desktop/framework/built-in.o
 .bss.global    0x00000000e1f1cf48       0x18 livedesk/beetles/mod_desktop/framework/built-in.o
 .bss.g_fw_path
                0x00000000e1f1cf60        0x8 livedesk/beetles/mod_desktop/functions/built-in.o
 .bss.hlang     0x00000000e1f1cf68        0x8 livedesk/beetles/mod_desktop/functions/built-in.o
 .bss.low_power_cnt.19881
                0x00000000e1f1cf70        0x4 livedesk/beetles/mod_desktop/functions/built-in.o
 *fill*         0x00000000e1f1cf74        0x4 
 .bss.all_app_para
                0x00000000e1f1cf78        0x8 livedesk/beetles/mod_desktop/functions/built-in.o
 .bss.all_app_para_bak
                0x00000000e1f1cf80        0x8 livedesk/beetles/mod_desktop/functions/built-in.o
 .bss.dsk_reg_flush_thread_id
                0x00000000e1f1cf88        0x4 livedesk/beetles/mod_desktop/functions/built-in.o
 *fill*         0x00000000e1f1cf8c        0x4 
 .bss.spinor_proc_flag_sem
                0x00000000e1f1cf90        0x8 livedesk/beetles/mod_desktop/functions/built-in.o
 .bss.spinor_proc_sem
                0x00000000e1f1cf98        0x8 livedesk/beetles/mod_desktop/functions/built-in.o
 .bss.g_id2hdl  0x00000000e1f1cfa0      0x130 livedesk/beetles/mod_desktop/functions/built-in.o
 .bss.h_kres    0x00000000e1f1d0d0        0x8 livedesk/beetles/mod_desktop/functions/built-in.o
 .bss.hres      0x00000000e1f1d0d8        0x8 livedesk/beetles/mod_desktop/functions/built-in.o
 .bss.style     0x00000000e1f1d0e0        0x4 livedesk/beetles/mod_desktop/functions/built-in.o
 .bss.g_amplifier_status
                0x00000000e1f1d0e4        0x4 livedesk/beetles/mod_desktop/functions/built-in.o
 .bss.g_hp_det_hdl
                0x00000000e1f1d0e8        0x8 livedesk/beetles/mod_desktop/functions/built-in.o
 .bss.g_open_amp
                0x00000000e1f1d0f0        0x1 livedesk/beetles/mod_desktop/functions/built-in.o
 *fill*         0x00000000e1f1d0f1        0x7 
 .bss.g_pa_hdl  0x00000000e1f1d0f8        0x8 livedesk/beetles/mod_desktop/functions/built-in.o
 .bss.emit_ctr  0x00000000e1f1d100      0x858 livedesk/beetles/mod_desktop/msg_srv/built-in.o
 .bss.msg_srv_tid
                0x00000000e1f1d958        0x4 livedesk/beetles/mod_desktop/msg_srv/built-in.o
 *fill*         0x00000000e1f1d95c        0x4 
 .bss.buffer.6522
                0x00000000e1f1d960      0x400 ./elibrary/bin//libminic.a(elibs_stdio.o)
 .bss.GetInfo_return
                0x00000000e1f1dd60        0x4 ./elibrary/bin//libmediainfo.a(bitstream.o)
                0x00000000e1f1dd60                GetInfo_return
 .bss.g_encrytp_mod
                0x00000000e1f1dd64        0x4 ./elibrary/bin//libmediainfo.a(audio_fs_direct.o)
                0x00000000e1f1dd64                g_encrytp_mod
 .bss.g_nEncrypt
                0x00000000e1f1dd68        0x1 ./elibrary/bin//libmediainfo.a(audio_fs_direct.o)
 *fill*         0x00000000e1f1dd69        0x3 
 .bss.g_count   0x00000000e1f1dd6c        0x4 ./elibrary/bin//libmediainfo.a(Tag_ID3.o)
                0x00000000e1f1dd6c                g_count
 *(.gnu.linkonce.b.*)
 *(.sbss)
 *(.sbss.*)
 *(.gnu.linkonce.sb.*)
 *(.sbss2)
 *(.sbss2.*)
 *(.gnu.linkonce.sb2.*)
 *(COMMON)
 *(.scommon)
                0x00000000e1f1dd70                . = ALIGN (0x4)
                0x00000000e1f1dd70                __bss_end = ABSOLUTE (.)
                0x00000000e1f1dd70                _end = ABSOLUTE (.)

MAGIC           0x00000000ffff0000       0x50
 *magic.o(.magic)
 .magic         0x00000000ffff0000       0x50 livedesk/beetles/mod_desktop/magic.o
                0x00000000ffff0000                modinfo_desktop

.reginfo
 *(.reginfo)

.mdebug
 *(.mdebug)

.note
 *(.note)

.comment        0x0000000000000000       0x32
 *(.comment)
 .comment       0x0000000000000000       0x32 livedesk/beetles/mod_desktop/desktop_api.o
                                         0x33 (size before relaxing)
 .comment       0x0000000000000032       0x33 livedesk/beetles/mod_desktop/mod_desktop.o
 .comment       0x0000000000000032       0x33 livedesk/beetles/mod_desktop/magic.o
 .comment       0x0000000000000032      0x693 livedesk/beetles/mod_desktop/engine/built-in.o
 .comment       0x0000000000000032      0x132 livedesk/beetles/mod_desktop/framework/built-in.o
 .comment       0x0000000000000032      0x330 livedesk/beetles/mod_desktop/functions/built-in.o
 .comment       0x0000000000000032       0x33 livedesk/beetles/mod_desktop/msg_srv/built-in.o
 .comment       0x0000000000000032       0x66 livedesk/beetles/mod_desktop/util/built-in.o
 .comment       0x0000000000000032       0x33 ./elibrary/bin//libsyscall.a(syscall.o)
 .comment       0x0000000000000032       0x33 ./elibrary/bin//libsyscall.a(syscall_fops.o)
 .comment       0x0000000000000032       0x33 ./elibrary/bin//libminic.a(elibs_stdio.o)
 .comment       0x0000000000000032       0x33 ./elibrary/bin//libminic.a(elibs_stdlib.o)
 .comment       0x0000000000000032       0x33 ./elibrary/bin//libminic.a(elibs_string.o)
 .comment       0x0000000000000032       0x33 ./elibrary/bin//libminic.a(elibs_sprintf.o)
 .comment       0x0000000000000032       0x33 ./elibrary/bin//liblzma.a(az100.o)
 .comment       0x0000000000000032       0x33 ./elibrary/bin//liblzma.a(compress.o)
 .comment       0x0000000000000032       0x33 ./elibrary/bin//liblzma.a(LzmaLib.o)
 .comment       0x0000000000000032       0x33 ./elibrary/bin//liblzma.a(LzmaDec.o)
 .comment       0x0000000000000032       0x33 ./elibrary/bin//libcharset.a(elibs_charset.o)
 .comment       0x0000000000000032       0x33 ./elibrary/bin//libmediainfo.a(elibs_mediainf.o)
 .comment       0x0000000000000032       0x33 ./elibrary/bin//libmediainfo.a(GetAudio_format.o)
 .comment       0x0000000000000032       0x33 ./elibrary/bin//libmediainfo.a(AudioInfo_WMA.o)
 .comment       0x0000000000000032       0x33 ./elibrary/bin//libmediainfo.a(AudioInfo_WAV.o)
 .comment       0x0000000000000032       0x33 ./elibrary/bin//libmediainfo.a(AudioInfo_RA.o)
 .comment       0x0000000000000032       0x33 ./elibrary/bin//libmediainfo.a(AudioInfo_OGG.o)
 .comment       0x0000000000000032       0x33 ./elibrary/bin//libmediainfo.a(AudioInfo_MP3.o)
 .comment       0x0000000000000032       0x33 ./elibrary/bin//libmediainfo.a(AudioInfo_MID_timidity.o)
 .comment       0x0000000000000032       0x33 ./elibrary/bin//libmediainfo.a(AudioInfo_FLAC.o)
 .comment       0x0000000000000032       0x33 ./elibrary/bin//libmediainfo.a(AudioInfo_DTS.o)
 .comment       0x0000000000000032       0x33 ./elibrary/bin//libmediainfo.a(AudioInfo_DRA.o)
 .comment       0x0000000000000032       0x33 ./elibrary/bin//libmediainfo.a(AudioInfo_CAF.o)
 .comment       0x0000000000000032       0x33 ./elibrary/bin//libmediainfo.a(AudioInfo_ATRAC.o)
 .comment       0x0000000000000032       0x33 ./elibrary/bin//libmediainfo.a(AudioInfo_APE.o)
 .comment       0x0000000000000032       0x33 ./elibrary/bin//libmediainfo.a(AudioInfo_AMR.o)
 .comment       0x0000000000000032       0x33 ./elibrary/bin//libmediainfo.a(AudioInfo_AC3.o)
 .comment       0x0000000000000032       0x33 ./elibrary/bin//libmediainfo.a(AudioInfo_AAC.o)
 .comment       0x0000000000000032       0x33 ./elibrary/bin//libmediainfo.a(bitstream.o)
 .comment       0x0000000000000032       0x33 ./elibrary/bin//libmediainfo.a(audio_fs_direct.o)
 .comment       0x0000000000000032       0x33 ./elibrary/bin//libmediainfo.a(Tag_XING.o)
 .comment       0x0000000000000032       0x33 ./elibrary/bin//libmediainfo.a(Tag_VBRI.o)
 .comment       0x0000000000000032       0x33 ./elibrary/bin//libmediainfo.a(Tag_OGG.o)
 .comment       0x0000000000000032       0x33 ./elibrary/bin//libmediainfo.a(Tag_ID3.o)
 .comment       0x0000000000000032       0x33 ./elibrary/bin//libmediainfo.a(Tag_Enoding.o)
 .comment       0x0000000000000032       0x33 ./elibrary/bin//libmediainfo.a(Tag_APE.o)
 .comment       0x0000000000000032       0x33 /home/yuzuki/WorkSpace/melis-v3.0/melis-4.x-release/toolchain/riscv64-elf-x86_64-20201104/bin/../lib/gcc/riscv64-unknown-elf/8.4.0/../../../../riscv64-unknown-elf/lib/rv64imafdcxtheadc/lp64d/libc.a(lib_a-fclose.o)
 .comment       0x0000000000000032       0x33 /home/yuzuki/WorkSpace/melis-v3.0/melis-4.x-release/toolchain/riscv64-elf-x86_64-20201104/bin/../lib/gcc/riscv64-unknown-elf/8.4.0/../../../../riscv64-unknown-elf/lib/rv64imafdcxtheadc/lp64d/libc.a(lib_a-fflush.o)
 .comment       0x0000000000000032       0x33 /home/yuzuki/WorkSpace/melis-v3.0/melis-4.x-release/toolchain/riscv64-elf-x86_64-20201104/bin/../lib/gcc/riscv64-unknown-elf/8.4.0/../../../../riscv64-unknown-elf/lib/rv64imafdcxtheadc/lp64d/libc.a(lib_a-findfp.o)
 .comment       0x0000000000000032       0x33 /home/yuzuki/WorkSpace/melis-v3.0/melis-4.x-release/toolchain/riscv64-elf-x86_64-20201104/bin/../lib/gcc/riscv64-unknown-elf/8.4.0/../../../../riscv64-unknown-elf/lib/rv64imafdcxtheadc/lp64d/libc.a(lib_a-fopen.o)
 .comment       0x0000000000000032       0x33 /home/yuzuki/WorkSpace/melis-v3.0/melis-4.x-release/toolchain/riscv64-elf-x86_64-20201104/bin/../lib/gcc/riscv64-unknown-elf/8.4.0/../../../../riscv64-unknown-elf/lib/rv64imafdcxtheadc/lp64d/libc.a(lib_a-fseek.o)
 .comment       0x0000000000000032       0x33 /home/yuzuki/WorkSpace/melis-v3.0/melis-4.x-release/toolchain/riscv64-elf-x86_64-20201104/bin/../lib/gcc/riscv64-unknown-elf/8.4.0/../../../../riscv64-unknown-elf/lib/rv64imafdcxtheadc/lp64d/libc.a(lib_a-fseeko.o)
 .comment       0x0000000000000032       0x33 /home/yuzuki/WorkSpace/melis-v3.0/melis-4.x-release/toolchain/riscv64-elf-x86_64-20201104/bin/../lib/gcc/riscv64-unknown-elf/8.4.0/../../../../riscv64-unknown-elf/lib/rv64imafdcxtheadc/lp64d/libc.a(lib_a-fwalk.o)
 .comment       0x0000000000000032       0x33 /home/yuzuki/WorkSpace/melis-v3.0/melis-4.x-release/toolchain/riscv64-elf-x86_64-20201104/bin/../lib/gcc/riscv64-unknown-elf/8.4.0/../../../../riscv64-unknown-elf/lib/rv64imafdcxtheadc/lp64d/libc.a(lib_a-fwrite.o)
 .comment       0x0000000000000032       0x33 /home/yuzuki/WorkSpace/melis-v3.0/melis-4.x-release/toolchain/riscv64-elf-x86_64-20201104/bin/../lib/gcc/riscv64-unknown-elf/8.4.0/../../../../riscv64-unknown-elf/lib/rv64imafdcxtheadc/lp64d/libc.a(lib_a-impure.o)
 .comment       0x0000000000000032       0x33 /home/yuzuki/WorkSpace/melis-v3.0/melis-4.x-release/toolchain/riscv64-elf-x86_64-20201104/bin/../lib/gcc/riscv64-unknown-elf/8.4.0/../../../../riscv64-unknown-elf/lib/rv64imafdcxtheadc/lp64d/libc.a(lib_a-makebuf.o)
 .comment       0x0000000000000032       0x33 /home/yuzuki/WorkSpace/melis-v3.0/melis-4.x-release/toolchain/riscv64-elf-x86_64-20201104/bin/../lib/gcc/riscv64-unknown-elf/8.4.0/../../../../riscv64-unknown-elf/lib/rv64imafdcxtheadc/lp64d/libc.a(lib_a-memcpy.o)
 .comment       0x0000000000000032       0x33 /home/yuzuki/WorkSpace/melis-v3.0/melis-4.x-release/toolchain/riscv64-elf-x86_64-20201104/bin/../lib/gcc/riscv64-unknown-elf/8.4.0/../../../../riscv64-unknown-elf/lib/rv64imafdcxtheadc/lp64d/libc.a(lib_a-refill.o)
 .comment       0x0000000000000032       0x33 /home/yuzuki/WorkSpace/melis-v3.0/melis-4.x-release/toolchain/riscv64-elf-x86_64-20201104/bin/../lib/gcc/riscv64-unknown-elf/8.4.0/../../../../riscv64-unknown-elf/lib/rv64imafdcxtheadc/lp64d/libc.a(lib_a-stdio.o)
 .comment       0x0000000000000032       0x33 /home/yuzuki/WorkSpace/melis-v3.0/melis-4.x-release/toolchain/riscv64-elf-x86_64-20201104/bin/../lib/gcc/riscv64-unknown-elf/8.4.0/../../../../riscv64-unknown-elf/lib/rv64imafdcxtheadc/lp64d/libc.a(lib_a-strcat.o)
 .comment       0x0000000000000032       0x33 /home/yuzuki/WorkSpace/melis-v3.0/melis-4.x-release/toolchain/riscv64-elf-x86_64-20201104/bin/../lib/gcc/riscv64-unknown-elf/8.4.0/../../../../riscv64-unknown-elf/lib/rv64imafdcxtheadc/lp64d/libc.a(lib_a-strcpy.o)
 .comment       0x0000000000000032       0x33 /home/yuzuki/WorkSpace/melis-v3.0/melis-4.x-release/toolchain/riscv64-elf-x86_64-20201104/bin/../lib/gcc/riscv64-unknown-elf/8.4.0/../../../../riscv64-unknown-elf/lib/rv64imafdcxtheadc/lp64d/libc.a(lib_a-strlen.o)
 .comment       0x0000000000000032       0x33 /home/yuzuki/WorkSpace/melis-v3.0/melis-4.x-release/toolchain/riscv64-elf-x86_64-20201104/bin/../lib/gcc/riscv64-unknown-elf/8.4.0/../../../../riscv64-unknown-elf/lib/rv64imafdcxtheadc/lp64d/libc.a(lib_a-strncmp.o)
 .comment       0x0000000000000032       0x33 /home/yuzuki/WorkSpace/melis-v3.0/melis-4.x-release/toolchain/riscv64-elf-x86_64-20201104/bin/../lib/gcc/riscv64-unknown-elf/8.4.0/../../../../riscv64-unknown-elf/lib/rv64imafdcxtheadc/lp64d/libc.a(lib_a-strncpy.o)
 .comment       0x0000000000000032       0x33 /home/yuzuki/WorkSpace/melis-v3.0/melis-4.x-release/toolchain/riscv64-elf-x86_64-20201104/bin/../lib/gcc/riscv64-unknown-elf/8.4.0/../../../../riscv64-unknown-elf/lib/rv64imafdcxtheadc/lp64d/libc.a(lib_a-strstr.o)
 .comment       0x0000000000000032       0x33 /home/yuzuki/WorkSpace/melis-v3.0/melis-4.x-release/toolchain/riscv64-elf-x86_64-20201104/bin/../lib/gcc/riscv64-unknown-elf/8.4.0/../../../../riscv64-unknown-elf/lib/rv64imafdcxtheadc/lp64d/libc.a(lib_a-sysclose.o)
 .comment       0x0000000000000032       0x33 /home/yuzuki/WorkSpace/melis-v3.0/melis-4.x-release/toolchain/riscv64-elf-x86_64-20201104/bin/../lib/gcc/riscv64-unknown-elf/8.4.0/../../../../riscv64-unknown-elf/lib/rv64imafdcxtheadc/lp64d/libc.a(lib_a-sysopen.o)
 .comment       0x0000000000000032       0x33 /home/yuzuki/WorkSpace/melis-v3.0/melis-4.x-release/toolchain/riscv64-elf-x86_64-20201104/bin/../lib/gcc/riscv64-unknown-elf/8.4.0/../../../../riscv64-unknown-elf/lib/rv64imafdcxtheadc/lp64d/libc.a(lib_a-flags.o)
 .comment       0x0000000000000032       0x33 /home/yuzuki/WorkSpace/melis-v3.0/melis-4.x-release/toolchain/riscv64-elf-x86_64-20201104/bin/../lib/gcc/riscv64-unknown-elf/8.4.0/../../../../riscv64-unknown-elf/lib/rv64imafdcxtheadc/lp64d/libc.a(lib_a-fvwrite.o)
 .comment       0x0000000000000032       0x33 /home/yuzuki/WorkSpace/melis-v3.0/melis-4.x-release/toolchain/riscv64-elf-x86_64-20201104/bin/../lib/gcc/riscv64-unknown-elf/8.4.0/../../../../riscv64-unknown-elf/lib/rv64imafdcxtheadc/lp64d/libc.a(lib_a-memchr.o)
 .comment       0x0000000000000032       0x33 /home/yuzuki/WorkSpace/melis-v3.0/melis-4.x-release/toolchain/riscv64-elf-x86_64-20201104/bin/../lib/gcc/riscv64-unknown-elf/8.4.0/../../../../riscv64-unknown-elf/lib/rv64imafdcxtheadc/lp64d/libc.a(lib_a-memcmp.o)
 .comment       0x0000000000000032       0x33 /home/yuzuki/WorkSpace/melis-v3.0/melis-4.x-release/toolchain/riscv64-elf-x86_64-20201104/bin/../lib/gcc/riscv64-unknown-elf/8.4.0/../../../../riscv64-unknown-elf/lib/rv64imafdcxtheadc/lp64d/libc.a(lib_a-memmove-stub.o)
 .comment       0x0000000000000032       0x33 /home/yuzuki/WorkSpace/melis-v3.0/melis-4.x-release/toolchain/riscv64-elf-x86_64-20201104/bin/../lib/gcc/riscv64-unknown-elf/8.4.0/../../../../riscv64-unknown-elf/lib/rv64imafdcxtheadc/lp64d/libc.a(lib_a-strchr.o)
 .comment       0x0000000000000032       0x33 /home/yuzuki/WorkSpace/melis-v3.0/melis-4.x-release/toolchain/riscv64-elf-x86_64-20201104/bin/../lib/gcc/riscv64-unknown-elf/8.4.0/../../../../riscv64-unknown-elf/lib/rv64imafdcxtheadc/lp64d/libc.a(lib_a-wsetup.o)

.riscv.attributes
                0x0000000000000000       0x48
 .riscv.attributes
                0x0000000000000000       0x3d livedesk/beetles/mod_desktop/desktop_api.o
 .riscv.attributes
                0x000000000000003d       0x3d livedesk/beetles/mod_desktop/mod_desktop.o
 .riscv.attributes
                0x000000000000007a       0x3d livedesk/beetles/mod_desktop/magic.o
 .riscv.attributes
                0x00000000000000b7       0x3d livedesk/beetles/mod_desktop/engine/built-in.o
 .riscv.attributes
                0x00000000000000f4       0x3d livedesk/beetles/mod_desktop/framework/built-in.o
 .riscv.attributes
                0x0000000000000131       0x3d livedesk/beetles/mod_desktop/functions/built-in.o
 .riscv.attributes
                0x000000000000016e       0x3d livedesk/beetles/mod_desktop/msg_srv/built-in.o
 .riscv.attributes
                0x00000000000001ab       0x3d livedesk/beetles/mod_desktop/util/built-in.o
 .riscv.attributes
                0x00000000000001e8       0x3d ./elibrary/bin//libsyscall.a(syscall.o)
 .riscv.attributes
                0x0000000000000225       0x3d ./elibrary/bin//libsyscall.a(syscall_fops.o)
 .riscv.attributes
                0x0000000000000262       0x3d ./elibrary/bin//libminic.a(elibs_stdio.o)
 .riscv.attributes
                0x000000000000029f       0x3d ./elibrary/bin//libminic.a(elibs_stdlib.o)
 .riscv.attributes
                0x00000000000002dc       0x3d ./elibrary/bin//libminic.a(elibs_string.o)
 .riscv.attributes
                0x0000000000000319       0x3d ./elibrary/bin//libminic.a(elibs_sprintf.o)
 .riscv.attributes
                0x0000000000000356       0x3d ./elibrary/bin//liblzma.a(az100.o)
 .riscv.attributes
                0x0000000000000393       0x3d ./elibrary/bin//liblzma.a(compress.o)
 .riscv.attributes
                0x00000000000003d0       0x3d ./elibrary/bin//liblzma.a(LzmaLib.o)
 .riscv.attributes
                0x000000000000040d       0x3d ./elibrary/bin//liblzma.a(LzmaDec.o)
 .riscv.attributes
                0x000000000000044a       0x3d ./elibrary/bin//libcharset.a(elibs_charset.o)
 .riscv.attributes
                0x0000000000000487       0x3d ./elibrary/bin//libmediainfo.a(elibs_mediainf.o)
 .riscv.attributes
                0x00000000000004c4       0x3d ./elibrary/bin//libmediainfo.a(GetAudio_format.o)
 .riscv.attributes
                0x0000000000000501       0x3d ./elibrary/bin//libmediainfo.a(AudioInfo_WMA.o)
 .riscv.attributes
                0x000000000000053e       0x3d ./elibrary/bin//libmediainfo.a(AudioInfo_WAV.o)
 .riscv.attributes
                0x000000000000057b       0x3d ./elibrary/bin//libmediainfo.a(AudioInfo_RA.o)
 .riscv.attributes
                0x00000000000005b8       0x3d ./elibrary/bin//libmediainfo.a(AudioInfo_OGG.o)
 .riscv.attributes
                0x00000000000005f5       0x3d ./elibrary/bin//libmediainfo.a(AudioInfo_MP3.o)
 .riscv.attributes
                0x0000000000000632       0x3d ./elibrary/bin//libmediainfo.a(AudioInfo_MID_timidity.o)
 .riscv.attributes
                0x000000000000066f       0x3d ./elibrary/bin//libmediainfo.a(AudioInfo_FLAC.o)
 .riscv.attributes
                0x00000000000006ac       0x3d ./elibrary/bin//libmediainfo.a(AudioInfo_DTS.o)
 .riscv.attributes
                0x00000000000006e9       0x3d ./elibrary/bin//libmediainfo.a(AudioInfo_DRA.o)
 .riscv.attributes
                0x0000000000000726       0x3d ./elibrary/bin//libmediainfo.a(AudioInfo_CAF.o)
 .riscv.attributes
                0x0000000000000763       0x3d ./elibrary/bin//libmediainfo.a(AudioInfo_ATRAC.o)
 .riscv.attributes
                0x00000000000007a0       0x3d ./elibrary/bin//libmediainfo.a(AudioInfo_APE.o)
 .riscv.attributes
                0x00000000000007dd       0x3d ./elibrary/bin//libmediainfo.a(AudioInfo_AMR.o)
 .riscv.attributes
                0x000000000000081a       0x3d ./elibrary/bin//libmediainfo.a(AudioInfo_AC3.o)
 .riscv.attributes
                0x0000000000000857       0x3d ./elibrary/bin//libmediainfo.a(AudioInfo_AAC.o)
 .riscv.attributes
                0x0000000000000894       0x3d ./elibrary/bin//libmediainfo.a(bitstream.o)
 .riscv.attributes
                0x00000000000008d1       0x3d ./elibrary/bin//libmediainfo.a(audio_fs_direct.o)
 .riscv.attributes
                0x000000000000090e       0x3d ./elibrary/bin//libmediainfo.a(Tag_XING.o)
 .riscv.attributes
                0x000000000000094b       0x3d ./elibrary/bin//libmediainfo.a(Tag_VBRI.o)
 .riscv.attributes
                0x0000000000000988       0x3d ./elibrary/bin//libmediainfo.a(Tag_OGG.o)
 .riscv.attributes
                0x00000000000009c5       0x3d ./elibrary/bin//libmediainfo.a(Tag_ID3.o)
 .riscv.attributes
                0x0000000000000a02       0x3d ./elibrary/bin//libmediainfo.a(Tag_Enoding.o)
 .riscv.attributes
                0x0000000000000a3f       0x3d ./elibrary/bin//libmediainfo.a(Tag_APE.o)
 .riscv.attributes
                0x0000000000000a7c       0x3e /home/yuzuki/WorkSpace/melis-v3.0/melis-4.x-release/toolchain/riscv64-elf-x86_64-20201104/bin/../lib/gcc/riscv64-unknown-elf/8.4.0/../../../../riscv64-unknown-elf/lib/rv64imafdcxtheadc/lp64d/libc.a(lib_a-fclose.o)
 .riscv.attributes
                0x0000000000000aba       0x3e /home/yuzuki/WorkSpace/melis-v3.0/melis-4.x-release/toolchain/riscv64-elf-x86_64-20201104/bin/../lib/gcc/riscv64-unknown-elf/8.4.0/../../../../riscv64-unknown-elf/lib/rv64imafdcxtheadc/lp64d/libc.a(lib_a-fflush.o)
 .riscv.attributes
                0x0000000000000af8       0x3e /home/yuzuki/WorkSpace/melis-v3.0/melis-4.x-release/toolchain/riscv64-elf-x86_64-20201104/bin/../lib/gcc/riscv64-unknown-elf/8.4.0/../../../../riscv64-unknown-elf/lib/rv64imafdcxtheadc/lp64d/libc.a(lib_a-findfp.o)
 .riscv.attributes
                0x0000000000000b36       0x3e /home/yuzuki/WorkSpace/melis-v3.0/melis-4.x-release/toolchain/riscv64-elf-x86_64-20201104/bin/../lib/gcc/riscv64-unknown-elf/8.4.0/../../../../riscv64-unknown-elf/lib/rv64imafdcxtheadc/lp64d/libc.a(lib_a-fopen.o)
 .riscv.attributes
                0x0000000000000b74       0x3e /home/yuzuki/WorkSpace/melis-v3.0/melis-4.x-release/toolchain/riscv64-elf-x86_64-20201104/bin/../lib/gcc/riscv64-unknown-elf/8.4.0/../../../../riscv64-unknown-elf/lib/rv64imafdcxtheadc/lp64d/libc.a(lib_a-fseek.o)
 .riscv.attributes
                0x0000000000000bb2       0x3e /home/yuzuki/WorkSpace/melis-v3.0/melis-4.x-release/toolchain/riscv64-elf-x86_64-20201104/bin/../lib/gcc/riscv64-unknown-elf/8.4.0/../../../../riscv64-unknown-elf/lib/rv64imafdcxtheadc/lp64d/libc.a(lib_a-fseeko.o)
 .riscv.attributes
                0x0000000000000bf0       0x3e /home/yuzuki/WorkSpace/melis-v3.0/melis-4.x-release/toolchain/riscv64-elf-x86_64-20201104/bin/../lib/gcc/riscv64-unknown-elf/8.4.0/../../../../riscv64-unknown-elf/lib/rv64imafdcxtheadc/lp64d/libc.a(lib_a-fwalk.o)
 .riscv.attributes
                0x0000000000000c2e       0x3e /home/yuzuki/WorkSpace/melis-v3.0/melis-4.x-release/toolchain/riscv64-elf-x86_64-20201104/bin/../lib/gcc/riscv64-unknown-elf/8.4.0/../../../../riscv64-unknown-elf/lib/rv64imafdcxtheadc/lp64d/libc.a(lib_a-fwrite.o)
 .riscv.attributes
                0x0000000000000c6c       0x3e /home/yuzuki/WorkSpace/melis-v3.0/melis-4.x-release/toolchain/riscv64-elf-x86_64-20201104/bin/../lib/gcc/riscv64-unknown-elf/8.4.0/../../../../riscv64-unknown-elf/lib/rv64imafdcxtheadc/lp64d/libc.a(lib_a-impure.o)
 .riscv.attributes
                0x0000000000000caa       0x3e /home/yuzuki/WorkSpace/melis-v3.0/melis-4.x-release/toolchain/riscv64-elf-x86_64-20201104/bin/../lib/gcc/riscv64-unknown-elf/8.4.0/../../../../riscv64-unknown-elf/lib/rv64imafdcxtheadc/lp64d/libc.a(lib_a-makebuf.o)
 .riscv.attributes
                0x0000000000000ce8       0x3e /home/yuzuki/WorkSpace/melis-v3.0/melis-4.x-release/toolchain/riscv64-elf-x86_64-20201104/bin/../lib/gcc/riscv64-unknown-elf/8.4.0/../../../../riscv64-unknown-elf/lib/rv64imafdcxtheadc/lp64d/libc.a(lib_a-memcpy.o)
 .riscv.attributes
                0x0000000000000d26       0x3e /home/yuzuki/WorkSpace/melis-v3.0/melis-4.x-release/toolchain/riscv64-elf-x86_64-20201104/bin/../lib/gcc/riscv64-unknown-elf/8.4.0/../../../../riscv64-unknown-elf/lib/rv64imafdcxtheadc/lp64d/libc.a(lib_a-memset.o)
 .riscv.attributes
                0x0000000000000d64       0x3e /home/yuzuki/WorkSpace/melis-v3.0/melis-4.x-release/toolchain/riscv64-elf-x86_64-20201104/bin/../lib/gcc/riscv64-unknown-elf/8.4.0/../../../../riscv64-unknown-elf/lib/rv64imafdcxtheadc/lp64d/libc.a(lib_a-refill.o)
 .riscv.attributes
                0x0000000000000da2       0x3e /home/yuzuki/WorkSpace/melis-v3.0/melis-4.x-release/toolchain/riscv64-elf-x86_64-20201104/bin/../lib/gcc/riscv64-unknown-elf/8.4.0/../../../../riscv64-unknown-elf/lib/rv64imafdcxtheadc/lp64d/libc.a(lib_a-stdio.o)
 .riscv.attributes
                0x0000000000000de0       0x3e /home/yuzuki/WorkSpace/melis-v3.0/melis-4.x-release/toolchain/riscv64-elf-x86_64-20201104/bin/../lib/gcc/riscv64-unknown-elf/8.4.0/../../../../riscv64-unknown-elf/lib/rv64imafdcxtheadc/lp64d/libc.a(lib_a-strcat.o)
 .riscv.attributes
                0x0000000000000e1e       0x3e /home/yuzuki/WorkSpace/melis-v3.0/melis-4.x-release/toolchain/riscv64-elf-x86_64-20201104/bin/../lib/gcc/riscv64-unknown-elf/8.4.0/../../../../riscv64-unknown-elf/lib/rv64imafdcxtheadc/lp64d/libc.a(lib_a-strcmp.o)
 .riscv.attributes
                0x0000000000000e5c       0x3e /home/yuzuki/WorkSpace/melis-v3.0/melis-4.x-release/toolchain/riscv64-elf-x86_64-20201104/bin/../lib/gcc/riscv64-unknown-elf/8.4.0/../../../../riscv64-unknown-elf/lib/rv64imafdcxtheadc/lp64d/libc.a(lib_a-strcpy.o)
 .riscv.attributes
                0x0000000000000e9a       0x3e /home/yuzuki/WorkSpace/melis-v3.0/melis-4.x-release/toolchain/riscv64-elf-x86_64-20201104/bin/../lib/gcc/riscv64-unknown-elf/8.4.0/../../../../riscv64-unknown-elf/lib/rv64imafdcxtheadc/lp64d/libc.a(lib_a-strlen.o)
 .riscv.attributes
                0x0000000000000ed8       0x3e /home/yuzuki/WorkSpace/melis-v3.0/melis-4.x-release/toolchain/riscv64-elf-x86_64-20201104/bin/../lib/gcc/riscv64-unknown-elf/8.4.0/../../../../riscv64-unknown-elf/lib/rv64imafdcxtheadc/lp64d/libc.a(lib_a-strncmp.o)
 .riscv.attributes
                0x0000000000000f16       0x3e /home/yuzuki/WorkSpace/melis-v3.0/melis-4.x-release/toolchain/riscv64-elf-x86_64-20201104/bin/../lib/gcc/riscv64-unknown-elf/8.4.0/../../../../riscv64-unknown-elf/lib/rv64imafdcxtheadc/lp64d/libc.a(lib_a-strncpy.o)
 .riscv.attributes
                0x0000000000000f54       0x3e /home/yuzuki/WorkSpace/melis-v3.0/melis-4.x-release/toolchain/riscv64-elf-x86_64-20201104/bin/../lib/gcc/riscv64-unknown-elf/8.4.0/../../../../riscv64-unknown-elf/lib/rv64imafdcxtheadc/lp64d/libc.a(lib_a-strstr.o)
 .riscv.attributes
                0x0000000000000f92       0x3e /home/yuzuki/WorkSpace/melis-v3.0/melis-4.x-release/toolchain/riscv64-elf-x86_64-20201104/bin/../lib/gcc/riscv64-unknown-elf/8.4.0/../../../../riscv64-unknown-elf/lib/rv64imafdcxtheadc/lp64d/libc.a(lib_a-sysclose.o)
 .riscv.attributes
                0x0000000000000fd0       0x3e /home/yuzuki/WorkSpace/melis-v3.0/melis-4.x-release/toolchain/riscv64-elf-x86_64-20201104/bin/../lib/gcc/riscv64-unknown-elf/8.4.0/../../../../riscv64-unknown-elf/lib/rv64imafdcxtheadc/lp64d/libc.a(lib_a-sysopen.o)
 .riscv.attributes
                0x000000000000100e       0x3e /home/yuzuki/WorkSpace/melis-v3.0/melis-4.x-release/toolchain/riscv64-elf-x86_64-20201104/bin/../lib/gcc/riscv64-unknown-elf/8.4.0/../../../../riscv64-unknown-elf/lib/rv64imafdcxtheadc/lp64d/libc.a(lib_a-flags.o)
 .riscv.attributes
                0x000000000000104c       0x3e /home/yuzuki/WorkSpace/melis-v3.0/melis-4.x-release/toolchain/riscv64-elf-x86_64-20201104/bin/../lib/gcc/riscv64-unknown-elf/8.4.0/../../../../riscv64-unknown-elf/lib/rv64imafdcxtheadc/lp64d/libc.a(lib_a-fvwrite.o)
 .riscv.attributes
                0x000000000000108a       0x3e /home/yuzuki/WorkSpace/melis-v3.0/melis-4.x-release/toolchain/riscv64-elf-x86_64-20201104/bin/../lib/gcc/riscv64-unknown-elf/8.4.0/../../../../riscv64-unknown-elf/lib/rv64imafdcxtheadc/lp64d/libc.a(lib_a-memchr.o)
 .riscv.attributes
                0x00000000000010c8       0x3e /home/yuzuki/WorkSpace/melis-v3.0/melis-4.x-release/toolchain/riscv64-elf-x86_64-20201104/bin/../lib/gcc/riscv64-unknown-elf/8.4.0/../../../../riscv64-unknown-elf/lib/rv64imafdcxtheadc/lp64d/libc.a(lib_a-memcmp.o)
 .riscv.attributes
                0x0000000000001106       0x3e /home/yuzuki/WorkSpace/melis-v3.0/melis-4.x-release/toolchain/riscv64-elf-x86_64-20201104/bin/../lib/gcc/riscv64-unknown-elf/8.4.0/../../../../riscv64-unknown-elf/lib/rv64imafdcxtheadc/lp64d/libc.a(lib_a-memmove-stub.o)
 .riscv.attributes
                0x0000000000001144       0x3e /home/yuzuki/WorkSpace/melis-v3.0/melis-4.x-release/toolchain/riscv64-elf-x86_64-20201104/bin/../lib/gcc/riscv64-unknown-elf/8.4.0/../../../../riscv64-unknown-elf/lib/rv64imafdcxtheadc/lp64d/libc.a(lib_a-strchr.o)
 .riscv.attributes
                0x0000000000001182       0x3e /home/yuzuki/WorkSpace/melis-v3.0/melis-4.x-release/toolchain/riscv64-elf-x86_64-20201104/bin/../lib/gcc/riscv64-unknown-elf/8.4.0/../../../../riscv64-unknown-elf/lib/rv64imafdcxtheadc/lp64d/libc.a(lib_a-wsetup.o)

.ARM.attributes
 *(.ARM.attributes)

/DISCARD/
 *(.note.GNU-stack)
 *(.ARM.exidx* .gnu.linkonce.armexidx.*)
OUTPUT(livedesk/beetles/mod_desktop/desktop.o elf64-littleriscv)

.debug_info     0x0000000000000000    0xf4831
 .debug_info    0x0000000000000000     0x4ddd livedesk/beetles/mod_desktop/desktop_api.o
 .debug_info    0x0000000000004ddd     0x2333 livedesk/beetles/mod_desktop/mod_desktop.o
 .debug_info    0x0000000000007110     0x227e livedesk/beetles/mod_desktop/magic.o
 .debug_info    0x000000000000938e    0x4edc0 livedesk/beetles/mod_desktop/engine/built-in.o
 .debug_info    0x000000000005814e    0x154b0 livedesk/beetles/mod_desktop/framework/built-in.o
 .debug_info    0x000000000006d5fe    0x3b4b2 livedesk/beetles/mod_desktop/functions/built-in.o
 .debug_info    0x00000000000a8ab0     0x863b livedesk/beetles/mod_desktop/msg_srv/built-in.o
 .debug_info    0x00000000000b10eb     0x1443 livedesk/beetles/mod_desktop/util/built-in.o
 .debug_info    0x00000000000b252e    0x12385 ./elibrary/bin//libsyscall.a(syscall.o)
 .debug_info    0x00000000000c48b3     0x2d27 ./elibrary/bin//libsyscall.a(syscall_fops.o)
 .debug_info    0x00000000000c75da     0x2bb0 ./elibrary/bin//libminic.a(elibs_stdio.o)
 .debug_info    0x00000000000ca18a     0x1748 ./elibrary/bin//libminic.a(elibs_stdlib.o)
 .debug_info    0x00000000000cb8d2      0xb29 ./elibrary/bin//libminic.a(elibs_string.o)
 .debug_info    0x00000000000cc3fb      0x7d2 ./elibrary/bin//libminic.a(elibs_sprintf.o)
 .debug_info    0x00000000000ccbcd      0xf37 ./elibrary/bin//liblzma.a(az100.o)
 .debug_info    0x00000000000cdb04      0x13f ./elibrary/bin//liblzma.a(compress.o)
 .debug_info    0x00000000000cdc43      0x271 ./elibrary/bin//liblzma.a(LzmaLib.o)
 .debug_info    0x00000000000cdeb4     0x1e78 ./elibrary/bin//liblzma.a(LzmaDec.o)
 .debug_info    0x00000000000cfd2c     0x11c6 ./elibrary/bin//libcharset.a(elibs_charset.o)
 .debug_info    0x00000000000d0ef2     0x184e ./elibrary/bin//libmediainfo.a(elibs_mediainf.o)
 .debug_info    0x00000000000d2740     0x17de ./elibrary/bin//libmediainfo.a(GetAudio_format.o)
 .debug_info    0x00000000000d3f1e     0x1898 ./elibrary/bin//libmediainfo.a(AudioInfo_WMA.o)
 .debug_info    0x00000000000d57b6     0x161f ./elibrary/bin//libmediainfo.a(AudioInfo_WAV.o)
 .debug_info    0x00000000000d6dd5     0x202e ./elibrary/bin//libmediainfo.a(AudioInfo_RA.o)
 .debug_info    0x00000000000d8e03     0x16b5 ./elibrary/bin//libmediainfo.a(AudioInfo_OGG.o)
 .debug_info    0x00000000000da4b8     0x1777 ./elibrary/bin//libmediainfo.a(AudioInfo_MP3.o)
 .debug_info    0x00000000000dbc2f     0x1819 ./elibrary/bin//libmediainfo.a(AudioInfo_MID_timidity.o)
 .debug_info    0x00000000000dd448     0x1805 ./elibrary/bin//libmediainfo.a(AudioInfo_FLAC.o)
 .debug_info    0x00000000000dec4d     0x1b1b ./elibrary/bin//libmediainfo.a(AudioInfo_DTS.o)
 .debug_info    0x00000000000e0768     0x15ed ./elibrary/bin//libmediainfo.a(AudioInfo_DRA.o)
 .debug_info    0x00000000000e1d55     0x146f ./elibrary/bin//libmediainfo.a(AudioInfo_CAF.o)
 .debug_info    0x00000000000e31c4     0x14f9 ./elibrary/bin//libmediainfo.a(AudioInfo_ATRAC.o)
 .debug_info    0x00000000000e46bd     0x14da ./elibrary/bin//libmediainfo.a(AudioInfo_APE.o)
 .debug_info    0x00000000000e5b97     0x1496 ./elibrary/bin//libmediainfo.a(AudioInfo_AMR.o)
 .debug_info    0x00000000000e702d     0x1b1a ./elibrary/bin//libmediainfo.a(AudioInfo_AC3.o)
 .debug_info    0x00000000000e8b47     0x1e7b ./elibrary/bin//libmediainfo.a(AudioInfo_AAC.o)
 .debug_info    0x00000000000ea9c2     0x18a6 ./elibrary/bin//libmediainfo.a(bitstream.o)
 .debug_info    0x00000000000ec268     0x128d ./elibrary/bin//libmediainfo.a(audio_fs_direct.o)
 .debug_info    0x00000000000ed4f5      0xe50 ./elibrary/bin//libmediainfo.a(Tag_XING.o)
 .debug_info    0x00000000000ee345      0xe30 ./elibrary/bin//libmediainfo.a(Tag_VBRI.o)
 .debug_info    0x00000000000ef175     0x1429 ./elibrary/bin//libmediainfo.a(Tag_OGG.o)
 .debug_info    0x00000000000f059e     0x18d6 ./elibrary/bin//libmediainfo.a(Tag_ID3.o)
 .debug_info    0x00000000000f1e74     0x1458 ./elibrary/bin//libmediainfo.a(Tag_Enoding.o)
 .debug_info    0x00000000000f32cc     0x1565 ./elibrary/bin//libmediainfo.a(Tag_APE.o)

.debug_abbrev   0x0000000000000000    0x121cd
 .debug_abbrev  0x0000000000000000      0x257 livedesk/beetles/mod_desktop/desktop_api.o
 .debug_abbrev  0x0000000000000257      0x373 livedesk/beetles/mod_desktop/mod_desktop.o
 .debug_abbrev  0x00000000000005ca      0x23f livedesk/beetles/mod_desktop/magic.o
 .debug_abbrev  0x0000000000000809     0x6054 livedesk/beetles/mod_desktop/engine/built-in.o
 .debug_abbrev  0x000000000000685d     0x17ae livedesk/beetles/mod_desktop/framework/built-in.o
 .debug_abbrev  0x000000000000800b     0x338e livedesk/beetles/mod_desktop/functions/built-in.o
 .debug_abbrev  0x000000000000b399      0x49d livedesk/beetles/mod_desktop/msg_srv/built-in.o
 .debug_abbrev  0x000000000000b836      0x35d livedesk/beetles/mod_desktop/util/built-in.o
 .debug_abbrev  0x000000000000bb93      0x3a2 ./elibrary/bin//libsyscall.a(syscall.o)
 .debug_abbrev  0x000000000000bf35      0x376 ./elibrary/bin//libsyscall.a(syscall_fops.o)
 .debug_abbrev  0x000000000000c2ab      0x40b ./elibrary/bin//libminic.a(elibs_stdio.o)
 .debug_abbrev  0x000000000000c6b6      0x2bd ./elibrary/bin//libminic.a(elibs_stdlib.o)
 .debug_abbrev  0x000000000000c973      0x146 ./elibrary/bin//libminic.a(elibs_string.o)
 .debug_abbrev  0x000000000000cab9      0x13e ./elibrary/bin//libminic.a(elibs_sprintf.o)
 .debug_abbrev  0x000000000000cbf7      0x238 ./elibrary/bin//liblzma.a(az100.o)
 .debug_abbrev  0x000000000000ce2f       0x79 ./elibrary/bin//liblzma.a(compress.o)
 .debug_abbrev  0x000000000000cea8      0x11b ./elibrary/bin//liblzma.a(LzmaLib.o)
 .debug_abbrev  0x000000000000cfc3      0x41d ./elibrary/bin//liblzma.a(LzmaDec.o)
 .debug_abbrev  0x000000000000d3e0      0x2a6 ./elibrary/bin//libcharset.a(elibs_charset.o)
 .debug_abbrev  0x000000000000d686      0x2f5 ./elibrary/bin//libmediainfo.a(elibs_mediainf.o)
 .debug_abbrev  0x000000000000d97b      0x33e ./elibrary/bin//libmediainfo.a(GetAudio_format.o)
 .debug_abbrev  0x000000000000dcb9      0x2ff ./elibrary/bin//libmediainfo.a(AudioInfo_WMA.o)
 .debug_abbrev  0x000000000000dfb8      0x2ec ./elibrary/bin//libmediainfo.a(AudioInfo_WAV.o)
 .debug_abbrev  0x000000000000e2a4      0x3c8 ./elibrary/bin//libmediainfo.a(AudioInfo_RA.o)
 .debug_abbrev  0x000000000000e66c      0x321 ./elibrary/bin//libmediainfo.a(AudioInfo_OGG.o)
 .debug_abbrev  0x000000000000e98d      0x2eb ./elibrary/bin//libmediainfo.a(AudioInfo_MP3.o)
 .debug_abbrev  0x000000000000ec78      0x388 ./elibrary/bin//libmediainfo.a(AudioInfo_MID_timidity.o)
 .debug_abbrev  0x000000000000f000      0x3db ./elibrary/bin//libmediainfo.a(AudioInfo_FLAC.o)
 .debug_abbrev  0x000000000000f3db      0x3a5 ./elibrary/bin//libmediainfo.a(AudioInfo_DTS.o)
 .debug_abbrev  0x000000000000f780      0x30c ./elibrary/bin//libmediainfo.a(AudioInfo_DRA.o)
 .debug_abbrev  0x000000000000fa8c      0x258 ./elibrary/bin//libmediainfo.a(AudioInfo_CAF.o)
 .debug_abbrev  0x000000000000fce4      0x290 ./elibrary/bin//libmediainfo.a(AudioInfo_ATRAC.o)
 .debug_abbrev  0x000000000000ff74      0x270 ./elibrary/bin//libmediainfo.a(AudioInfo_APE.o)
 .debug_abbrev  0x00000000000101e4      0x27f ./elibrary/bin//libmediainfo.a(AudioInfo_AMR.o)
 .debug_abbrev  0x0000000000010463      0x354 ./elibrary/bin//libmediainfo.a(AudioInfo_AC3.o)
 .debug_abbrev  0x00000000000107b7      0x3df ./elibrary/bin//libmediainfo.a(AudioInfo_AAC.o)
 .debug_abbrev  0x0000000000010b96      0x380 ./elibrary/bin//libmediainfo.a(bitstream.o)
 .debug_abbrev  0x0000000000010f16      0x328 ./elibrary/bin//libmediainfo.a(audio_fs_direct.o)
 .debug_abbrev  0x000000000001123e      0x204 ./elibrary/bin//libmediainfo.a(Tag_XING.o)
 .debug_abbrev  0x0000000000011442      0x1f3 ./elibrary/bin//libmediainfo.a(Tag_VBRI.o)
 .debug_abbrev  0x0000000000011635      0x25a ./elibrary/bin//libmediainfo.a(Tag_OGG.o)
 .debug_abbrev  0x000000000001188f      0x3dc ./elibrary/bin//libmediainfo.a(Tag_ID3.o)
 .debug_abbrev  0x0000000000011c6b      0x2c0 ./elibrary/bin//libmediainfo.a(Tag_Enoding.o)
 .debug_abbrev  0x0000000000011f2b      0x2a2 ./elibrary/bin//libmediainfo.a(Tag_APE.o)

.debug_aranges  0x0000000000000000     0x4f80
 .debug_aranges
                0x0000000000000000       0x20 livedesk/beetles/mod_desktop/desktop_api.o
 .debug_aranges
                0x0000000000000020       0x70 livedesk/beetles/mod_desktop/mod_desktop.o
 .debug_aranges
                0x0000000000000090       0x20 livedesk/beetles/mod_desktop/magic.o
 .debug_aranges
                0x00000000000000b0     0x1270 livedesk/beetles/mod_desktop/engine/built-in.o
 .debug_aranges
                0x0000000000001320      0x5c0 livedesk/beetles/mod_desktop/framework/built-in.o
 .debug_aranges
                0x00000000000018e0      0x8f0 livedesk/beetles/mod_desktop/functions/built-in.o
 .debug_aranges
                0x00000000000021d0      0x120 livedesk/beetles/mod_desktop/msg_srv/built-in.o
 .debug_aranges
                0x00000000000022f0       0xb0 livedesk/beetles/mod_desktop/util/built-in.o
 .debug_aranges
                0x00000000000023a0     0x17c0 ./elibrary/bin//libsyscall.a(syscall.o)
 .debug_aranges
                0x0000000000003b60      0x230 ./elibrary/bin//libsyscall.a(syscall_fops.o)
 .debug_aranges
                0x0000000000003d90      0x470 ./elibrary/bin//libminic.a(elibs_stdio.o)
 .debug_aranges
                0x0000000000004200      0x140 ./elibrary/bin//libminic.a(elibs_stdlib.o)
 .debug_aranges
                0x0000000000004340      0x150 ./elibrary/bin//libminic.a(elibs_string.o)
 .debug_aranges
                0x0000000000004490       0x80 ./elibrary/bin//libminic.a(elibs_sprintf.o)
 .debug_aranges
                0x0000000000004510       0x50 ./elibrary/bin//liblzma.a(az100.o)
 .debug_aranges
                0x0000000000004560       0x30 ./elibrary/bin//liblzma.a(compress.o)
 .debug_aranges
                0x0000000000004590       0x50 ./elibrary/bin//liblzma.a(LzmaLib.o)
 .debug_aranges
                0x00000000000045e0      0x100 ./elibrary/bin//liblzma.a(LzmaDec.o)
 .debug_aranges
                0x00000000000046e0       0x60 ./elibrary/bin//libcharset.a(elibs_charset.o)
 .debug_aranges
                0x0000000000004740       0xc0 ./elibrary/bin//libmediainfo.a(elibs_mediainf.o)
 .debug_aranges
                0x0000000000004800       0x80 ./elibrary/bin//libmediainfo.a(GetAudio_format.o)
 .debug_aranges
                0x0000000000004880       0x40 ./elibrary/bin//libmediainfo.a(AudioInfo_WMA.o)
 .debug_aranges
                0x00000000000048c0       0x40 ./elibrary/bin//libmediainfo.a(AudioInfo_WAV.o)
 .debug_aranges
                0x0000000000004900       0x50 ./elibrary/bin//libmediainfo.a(AudioInfo_RA.o)
 .debug_aranges
                0x0000000000004950       0x30 ./elibrary/bin//libmediainfo.a(AudioInfo_OGG.o)
 .debug_aranges
                0x0000000000004980       0x40 ./elibrary/bin//libmediainfo.a(AudioInfo_MP3.o)
 .debug_aranges
                0x00000000000049c0       0x50 ./elibrary/bin//libmediainfo.a(AudioInfo_MID_timidity.o)
 .debug_aranges
                0x0000000000004a10       0x60 ./elibrary/bin//libmediainfo.a(AudioInfo_FLAC.o)
 .debug_aranges
                0x0000000000004a70       0x60 ./elibrary/bin//libmediainfo.a(AudioInfo_DTS.o)
 .debug_aranges
                0x0000000000004ad0       0x50 ./elibrary/bin//libmediainfo.a(AudioInfo_DRA.o)
 .debug_aranges
                0x0000000000004b20       0x30 ./elibrary/bin//libmediainfo.a(AudioInfo_CAF.o)
 .debug_aranges
                0x0000000000004b50       0x30 ./elibrary/bin//libmediainfo.a(AudioInfo_ATRAC.o)
 .debug_aranges
                0x0000000000004b80       0x30 ./elibrary/bin//libmediainfo.a(AudioInfo_APE.o)
 .debug_aranges
                0x0000000000004bb0       0x30 ./elibrary/bin//libmediainfo.a(AudioInfo_AMR.o)
 .debug_aranges
                0x0000000000004be0       0x30 ./elibrary/bin//libmediainfo.a(AudioInfo_AC3.o)
 .debug_aranges
                0x0000000000004c10       0x90 ./elibrary/bin//libmediainfo.a(AudioInfo_AAC.o)
 .debug_aranges
                0x0000000000004ca0       0xd0 ./elibrary/bin//libmediainfo.a(bitstream.o)
 .debug_aranges
                0x0000000000004d70       0x90 ./elibrary/bin//libmediainfo.a(audio_fs_direct.o)
 .debug_aranges
                0x0000000000004e00       0x30 ./elibrary/bin//libmediainfo.a(Tag_XING.o)
 .debug_aranges
                0x0000000000004e30       0x30 ./elibrary/bin//libmediainfo.a(Tag_VBRI.o)
 .debug_aranges
                0x0000000000004e60       0x30 ./elibrary/bin//libmediainfo.a(Tag_OGG.o)
 .debug_aranges
                0x0000000000004e90       0x70 ./elibrary/bin//libmediainfo.a(Tag_ID3.o)
 .debug_aranges
                0x0000000000004f00       0x40 ./elibrary/bin//libmediainfo.a(Tag_Enoding.o)
 .debug_aranges
                0x0000000000004f40       0x40 ./elibrary/bin//libmediainfo.a(Tag_APE.o)

.debug_line     0x0000000000000000    0x5d0d8
 .debug_line    0x0000000000000000      0xac6 livedesk/beetles/mod_desktop/desktop_api.o
 .debug_line    0x0000000000000ac6      0x794 livedesk/beetles/mod_desktop/mod_desktop.o
 .debug_line    0x000000000000125a      0x54e livedesk/beetles/mod_desktop/magic.o
 .debug_line    0x00000000000017a8    0x186d5 livedesk/beetles/mod_desktop/engine/built-in.o
 .debug_line    0x0000000000019e7d     0x68f3 livedesk/beetles/mod_desktop/framework/built-in.o
 .debug_line    0x0000000000020770     0xc3d2 livedesk/beetles/mod_desktop/functions/built-in.o
 .debug_line    0x000000000002cb42     0x2c32 livedesk/beetles/mod_desktop/msg_srv/built-in.o
 .debug_line    0x000000000002f774      0x823 livedesk/beetles/mod_desktop/util/built-in.o
 .debug_line    0x000000000002ff97     0xe157 ./elibrary/bin//libsyscall.a(syscall.o)
 .debug_line    0x000000000003e0ee     0x165e ./elibrary/bin//libsyscall.a(syscall_fops.o)
 .debug_line    0x000000000003f74c     0x21a2 ./elibrary/bin//libminic.a(elibs_stdio.o)
 .debug_line    0x00000000000418ee      0x766 ./elibrary/bin//libminic.a(elibs_stdlib.o)
 .debug_line    0x0000000000042054      0x5cc ./elibrary/bin//libminic.a(elibs_string.o)
 .debug_line    0x0000000000042620      0x467 ./elibrary/bin//libminic.a(elibs_sprintf.o)
 .debug_line    0x0000000000042a87      0x4ba ./elibrary/bin//liblzma.a(az100.o)
 .debug_line    0x0000000000042f41      0x280 ./elibrary/bin//liblzma.a(compress.o)
 .debug_line    0x00000000000431c1      0x185 ./elibrary/bin//liblzma.a(LzmaLib.o)
 .debug_line    0x0000000000043346     0x368c ./elibrary/bin//liblzma.a(LzmaDec.o)
 .debug_line    0x00000000000469d2      0x669 ./elibrary/bin//libcharset.a(elibs_charset.o)
 .debug_line    0x000000000004703b      0x5b1 ./elibrary/bin//libmediainfo.a(elibs_mediainf.o)
 .debug_line    0x00000000000475ec     0x1efa ./elibrary/bin//libmediainfo.a(GetAudio_format.o)
 .debug_line    0x00000000000494e6     0x1320 ./elibrary/bin//libmediainfo.a(AudioInfo_WMA.o)
 .debug_line    0x000000000004a806     0x112b ./elibrary/bin//libmediainfo.a(AudioInfo_WAV.o)
 .debug_line    0x000000000004b931     0x2113 ./elibrary/bin//libmediainfo.a(AudioInfo_RA.o)
 .debug_line    0x000000000004da44      0xd59 ./elibrary/bin//libmediainfo.a(AudioInfo_OGG.o)
 .debug_line    0x000000000004e79d      0xad0 ./elibrary/bin//libmediainfo.a(AudioInfo_MP3.o)
 .debug_line    0x000000000004f26d     0x10f0 ./elibrary/bin//libmediainfo.a(AudioInfo_MID_timidity.o)
 .debug_line    0x000000000005035d     0x110c ./elibrary/bin//libmediainfo.a(AudioInfo_FLAC.o)
 .debug_line    0x0000000000051469      0xde8 ./elibrary/bin//libmediainfo.a(AudioInfo_DTS.o)
 .debug_line    0x0000000000052251      0x6fa ./elibrary/bin//libmediainfo.a(AudioInfo_DRA.o)
 .debug_line    0x000000000005294b      0x5be ./elibrary/bin//libmediainfo.a(AudioInfo_CAF.o)
 .debug_line    0x0000000000052f09      0x7b9 ./elibrary/bin//libmediainfo.a(AudioInfo_ATRAC.o)
 .debug_line    0x00000000000536c2      0xa8c ./elibrary/bin//libmediainfo.a(AudioInfo_APE.o)
 .debug_line    0x000000000005414e      0x58d ./elibrary/bin//libmediainfo.a(AudioInfo_AMR.o)
 .debug_line    0x00000000000546db      0xf5e ./elibrary/bin//libmediainfo.a(AudioInfo_AC3.o)
 .debug_line    0x0000000000055639     0x21ad ./elibrary/bin//libmediainfo.a(AudioInfo_AAC.o)
 .debug_line    0x00000000000577e6      0xf71 ./elibrary/bin//libmediainfo.a(bitstream.o)
 .debug_line    0x0000000000058757      0x7d3 ./elibrary/bin//libmediainfo.a(audio_fs_direct.o)
 .debug_line    0x0000000000058f2a      0x3a9 ./elibrary/bin//libmediainfo.a(Tag_XING.o)
 .debug_line    0x00000000000592d3      0x331 ./elibrary/bin//libmediainfo.a(Tag_VBRI.o)
 .debug_line    0x0000000000059604      0x877 ./elibrary/bin//libmediainfo.a(Tag_OGG.o)
 .debug_line    0x0000000000059e7b     0x1f59 ./elibrary/bin//libmediainfo.a(Tag_ID3.o)
 .debug_line    0x000000000005bdd4      0xb22 ./elibrary/bin//libmediainfo.a(Tag_Enoding.o)
 .debug_line    0x000000000005c8f6      0x7e2 ./elibrary/bin//libmediainfo.a(Tag_APE.o)

.debug_str      0x0000000000000000    0x19d44
 .debug_str     0x0000000000000000     0x50ed livedesk/beetles/mod_desktop/desktop_api.o
                                       0x532a (size before relaxing)
 .debug_str     0x00000000000050ed       0xe2 livedesk/beetles/mod_desktop/mod_desktop.o
                                       0x16d6 (size before relaxing)
 .debug_str     0x00000000000051cf       0x73 livedesk/beetles/mod_desktop/magic.o
                                       0x16a3 (size before relaxing)
 .debug_str     0x0000000000005242     0x3c9c livedesk/beetles/mod_desktop/engine/built-in.o
                                      0x3cac7 (size before relaxing)
 .debug_str     0x0000000000008ede     0x5278 livedesk/beetles/mod_desktop/framework/built-in.o
                                       0xe250 (size before relaxing)
 .debug_str     0x000000000000e156     0x3907 livedesk/beetles/mod_desktop/functions/built-in.o
                                      0x3041d (size before relaxing)
 .debug_str     0x0000000000011a5d     0x1287 livedesk/beetles/mod_desktop/msg_srv/built-in.o
                                       0x7b0c (size before relaxing)
 .debug_str     0x0000000000012ce4      0x199 livedesk/beetles/mod_desktop/util/built-in.o
                                       0x1106 (size before relaxing)
 .debug_str     0x0000000000012e7d     0x2d22 ./elibrary/bin//libsyscall.a(syscall.o)
                                       0x3a2a (size before relaxing)
 .debug_str     0x0000000000015b9f      0x2c4 ./elibrary/bin//libsyscall.a(syscall_fops.o)
                                        0xf9e (size before relaxing)
 .debug_str     0x0000000000015e63      0x616 ./elibrary/bin//libminic.a(elibs_stdio.o)
                                       0x1590 (size before relaxing)
 .debug_str     0x0000000000016479      0x2f9 ./elibrary/bin//libminic.a(elibs_stdlib.o)
                                        0xc96 (size before relaxing)
 .debug_str     0x0000000000016772      0x17d ./elibrary/bin//libminic.a(elibs_string.o)
                                        0x662 (size before relaxing)
 .debug_str     0x00000000000168ef       0x81 ./elibrary/bin//libminic.a(elibs_sprintf.o)
                                        0x55d (size before relaxing)
 .debug_str     0x0000000000016970       0x80 ./elibrary/bin//liblzma.a(az100.o)
                                        0x9d4 (size before relaxing)
 .debug_str     0x00000000000169f0       0x5e ./elibrary/bin//liblzma.a(compress.o)
                                        0x303 (size before relaxing)
 .debug_str     0x0000000000016a4e      0x134 ./elibrary/bin//liblzma.a(LzmaLib.o)
                                        0x3ce (size before relaxing)
 .debug_str     0x0000000000016b82      0x3aa ./elibrary/bin//liblzma.a(LzmaDec.o)
                                        0xb4d (size before relaxing)
 .debug_str     0x0000000000016f2c      0x10b ./elibrary/bin//libcharset.a(elibs_charset.o)
                                        0xe5d (size before relaxing)
 .debug_str     0x0000000000017037      0x5b4 ./elibrary/bin//libmediainfo.a(elibs_mediainf.o)
                                       0x14c0 (size before relaxing)
 .debug_str     0x00000000000175eb      0x4e9 ./elibrary/bin//libmediainfo.a(GetAudio_format.o)
                                       0x1349 (size before relaxing)
 .debug_str     0x0000000000017ad4      0x20e ./elibrary/bin//libmediainfo.a(AudioInfo_WMA.o)
                                       0x1402 (size before relaxing)
 .debug_str     0x0000000000017ce2      0x1f5 ./elibrary/bin//libmediainfo.a(AudioInfo_WAV.o)
                                       0x13d4 (size before relaxing)
 .debug_str     0x0000000000017ed7      0x59a ./elibrary/bin//libmediainfo.a(AudioInfo_RA.o)
                                       0x17b6 (size before relaxing)
 .debug_str     0x0000000000018471      0x12a ./elibrary/bin//libmediainfo.a(AudioInfo_OGG.o)
                                       0x1327 (size before relaxing)
 .debug_str     0x000000000001859b      0x1c4 ./elibrary/bin//libmediainfo.a(AudioInfo_MP3.o)
                                       0x13e2 (size before relaxing)
 .debug_str     0x000000000001875f      0x19e ./elibrary/bin//libmediainfo.a(AudioInfo_MID_timidity.o)
                                       0x13a3 (size before relaxing)
 .debug_str     0x00000000000188fd      0x15d ./elibrary/bin//libmediainfo.a(AudioInfo_FLAC.o)
                                       0x138d (size before relaxing)
 .debug_str     0x0000000000018a5a      0x189 ./elibrary/bin//libmediainfo.a(AudioInfo_DTS.o)
                                       0x13cb (size before relaxing)
 .debug_str     0x0000000000018be3       0xc4 ./elibrary/bin//libmediainfo.a(AudioInfo_DRA.o)
                                       0x12bc (size before relaxing)
 .debug_str     0x0000000000018ca7       0xde ./elibrary/bin//libmediainfo.a(AudioInfo_CAF.o)
                                       0x12cb (size before relaxing)
 .debug_str     0x0000000000018d85       0xe9 ./elibrary/bin//libmediainfo.a(AudioInfo_ATRAC.o)
                                       0x12e8 (size before relaxing)
 .debug_str     0x0000000000018e6e      0x126 ./elibrary/bin//libmediainfo.a(AudioInfo_APE.o)
                                       0x12fd (size before relaxing)
 .debug_str     0x0000000000018f94       0x99 ./elibrary/bin//libmediainfo.a(AudioInfo_AMR.o)
                                       0x1291 (size before relaxing)
 .debug_str     0x000000000001902d      0x29f ./elibrary/bin//libmediainfo.a(AudioInfo_AC3.o)
                                       0x150b (size before relaxing)
 .debug_str     0x00000000000192cc      0x357 ./elibrary/bin//libmediainfo.a(AudioInfo_AAC.o)
                                       0x15be (size before relaxing)
 .debug_str     0x0000000000019623      0x183 ./elibrary/bin//libmediainfo.a(bitstream.o)
                                       0x1390 (size before relaxing)
 .debug_str     0x00000000000197a6      0x111 ./elibrary/bin//libmediainfo.a(audio_fs_direct.o)
                                        0xabc (size before relaxing)
 .debug_str     0x00000000000198b7       0x82 ./elibrary/bin//libmediainfo.a(Tag_XING.o)
                                        0x9b2 (size before relaxing)
 .debug_str     0x0000000000019939       0x77 ./elibrary/bin//libmediainfo.a(Tag_VBRI.o)
                                        0x99f (size before relaxing)
 .debug_str     0x00000000000199b0       0x77 ./elibrary/bin//libmediainfo.a(Tag_OGG.o)
                                       0x1271 (size before relaxing)
 .debug_str     0x0000000000019a27      0x14a ./elibrary/bin//libmediainfo.a(Tag_ID3.o)
                                       0x1376 (size before relaxing)
 .debug_str     0x0000000000019b71       0xe3 ./elibrary/bin//libmediainfo.a(Tag_Enoding.o)
                                       0x129b (size before relaxing)
 .debug_str     0x0000000000019c54       0xf0 ./elibrary/bin//libmediainfo.a(Tag_APE.o)
                                       0x12d7 (size before relaxing)

.debug_loc      0x0000000000000000    0x2bead
 .debug_loc     0x0000000000000000      0x1a6 livedesk/beetles/mod_desktop/mod_desktop.o
 .debug_loc     0x00000000000001a6     0x6f12 livedesk/beetles/mod_desktop/engine/built-in.o
 .debug_loc     0x00000000000070b8     0x403f livedesk/beetles/mod_desktop/framework/built-in.o
 .debug_loc     0x000000000000b0f7     0x3a73 livedesk/beetles/mod_desktop/functions/built-in.o
 .debug_loc     0x000000000000eb6a      0xa6b livedesk/beetles/mod_desktop/msg_srv/built-in.o
 .debug_loc     0x000000000000f5d5      0x31f livedesk/beetles/mod_desktop/util/built-in.o
 .debug_loc     0x000000000000f8f4     0xd5f0 ./elibrary/bin//libsyscall.a(syscall.o)
 .debug_loc     0x000000000001cee4     0x116f ./elibrary/bin//libsyscall.a(syscall_fops.o)
 .debug_loc     0x000000000001e053     0x2422 ./elibrary/bin//libminic.a(elibs_stdio.o)
 .debug_loc     0x0000000000020475      0x4c6 ./elibrary/bin//libminic.a(elibs_stdlib.o)
 .debug_loc     0x000000000002093b      0x705 ./elibrary/bin//libminic.a(elibs_string.o)
 .debug_loc     0x0000000000021040      0x3f2 ./elibrary/bin//libminic.a(elibs_sprintf.o)
 .debug_loc     0x0000000000021432      0x296 ./elibrary/bin//liblzma.a(az100.o)
 .debug_loc     0x00000000000216c8      0x113 ./elibrary/bin//liblzma.a(compress.o)
 .debug_loc     0x00000000000217db      0x1aa ./elibrary/bin//liblzma.a(LzmaLib.o)
 .debug_loc     0x0000000000021985     0x2123 ./elibrary/bin//liblzma.a(LzmaDec.o)
 .debug_loc     0x0000000000023aa8      0x49b ./elibrary/bin//libcharset.a(elibs_charset.o)
 .debug_loc     0x0000000000023f43      0x514 ./elibrary/bin//libmediainfo.a(elibs_mediainf.o)
 .debug_loc     0x0000000000024457      0xad7 ./elibrary/bin//libmediainfo.a(GetAudio_format.o)
 .debug_loc     0x0000000000024f2e      0x678 ./elibrary/bin//libmediainfo.a(AudioInfo_WMA.o)
 .debug_loc     0x00000000000255a6      0x2bd ./elibrary/bin//libmediainfo.a(AudioInfo_WAV.o)
 .debug_loc     0x0000000000025863      0xa55 ./elibrary/bin//libmediainfo.a(AudioInfo_RA.o)
 .debug_loc     0x00000000000262b8      0x75c ./elibrary/bin//libmediainfo.a(AudioInfo_OGG.o)
 .debug_loc     0x0000000000026a14      0x2fd ./elibrary/bin//libmediainfo.a(AudioInfo_MP3.o)
 .debug_loc     0x0000000000026d11      0x7e8 ./elibrary/bin//libmediainfo.a(AudioInfo_MID_timidity.o)
 .debug_loc     0x00000000000274f9      0x554 ./elibrary/bin//libmediainfo.a(AudioInfo_FLAC.o)
 .debug_loc     0x0000000000027a4d      0x50c ./elibrary/bin//libmediainfo.a(AudioInfo_DTS.o)
 .debug_loc     0x0000000000027f59      0x45f ./elibrary/bin//libmediainfo.a(AudioInfo_DRA.o)
 .debug_loc     0x00000000000283b8       0xcc ./elibrary/bin//libmediainfo.a(AudioInfo_CAF.o)
 .debug_loc     0x0000000000028484      0x2ed ./elibrary/bin//libmediainfo.a(AudioInfo_ATRAC.o)
 .debug_loc     0x0000000000028771      0x2f9 ./elibrary/bin//libmediainfo.a(AudioInfo_APE.o)
 .debug_loc     0x0000000000028a6a      0x1df ./elibrary/bin//libmediainfo.a(AudioInfo_AMR.o)
 .debug_loc     0x0000000000028c49      0x55b ./elibrary/bin//libmediainfo.a(AudioInfo_AC3.o)
 .debug_loc     0x00000000000291a4      0xc41 ./elibrary/bin//libmediainfo.a(AudioInfo_AAC.o)
 .debug_loc     0x0000000000029de5      0x9ed ./elibrary/bin//libmediainfo.a(bitstream.o)
 .debug_loc     0x000000000002a7d2      0x53f ./elibrary/bin//libmediainfo.a(audio_fs_direct.o)
 .debug_loc     0x000000000002ad11      0x13c ./elibrary/bin//libmediainfo.a(Tag_XING.o)
 .debug_loc     0x000000000002ae4d       0xbd ./elibrary/bin//libmediainfo.a(Tag_VBRI.o)
 .debug_loc     0x000000000002af0a      0x218 ./elibrary/bin//libmediainfo.a(Tag_OGG.o)
 .debug_loc     0x000000000002b122      0x8f7 ./elibrary/bin//libmediainfo.a(Tag_ID3.o)
 .debug_loc     0x000000000002ba19      0x15e ./elibrary/bin//libmediainfo.a(Tag_Enoding.o)
 .debug_loc     0x000000000002bb77      0x336 ./elibrary/bin//libmediainfo.a(Tag_APE.o)

.debug_frame    0x0000000000000000     0xb768
 .debug_frame   0x0000000000000000       0xe0 livedesk/beetles/mod_desktop/mod_desktop.o
 .debug_frame   0x00000000000000e0     0x28d0 livedesk/beetles/mod_desktop/engine/built-in.o
 .debug_frame   0x00000000000029b0      0xe18 livedesk/beetles/mod_desktop/framework/built-in.o
 .debug_frame   0x00000000000037c8     0x1410 livedesk/beetles/mod_desktop/functions/built-in.o
 .debug_frame   0x0000000000004bd8      0x328 livedesk/beetles/mod_desktop/msg_srv/built-in.o
 .debug_frame   0x0000000000004f00      0x110 livedesk/beetles/mod_desktop/util/built-in.o
 .debug_frame   0x0000000000005010     0x3b20 ./elibrary/bin//libsyscall.a(syscall.o)
 .debug_frame   0x0000000000008b30      0x540 ./elibrary/bin//libsyscall.a(syscall_fops.o)
 .debug_frame   0x0000000000009070      0x9f0 ./elibrary/bin//libminic.a(elibs_stdio.o)
 .debug_frame   0x0000000000009a60      0x208 ./elibrary/bin//libminic.a(elibs_stdlib.o)
 .debug_frame   0x0000000000009c68      0x1e8 ./elibrary/bin//libminic.a(elibs_string.o)
 .debug_frame   0x0000000000009e50       0xe0 ./elibrary/bin//libminic.a(elibs_sprintf.o)
 .debug_frame   0x0000000000009f30       0x80 ./elibrary/bin//liblzma.a(az100.o)
 .debug_frame   0x0000000000009fb0       0x38 ./elibrary/bin//liblzma.a(compress.o)
 .debug_frame   0x0000000000009fe8       0x68 ./elibrary/bin//liblzma.a(LzmaLib.o)
 .debug_frame   0x000000000000a050      0x2e0 ./elibrary/bin//liblzma.a(LzmaDec.o)
 .debug_frame   0x000000000000a330      0x100 ./elibrary/bin//libcharset.a(elibs_charset.o)
 .debug_frame   0x000000000000a430      0x158 ./elibrary/bin//libmediainfo.a(elibs_mediainf.o)
 .debug_frame   0x000000000000a588      0x190 ./elibrary/bin//libmediainfo.a(GetAudio_format.o)
 .debug_frame   0x000000000000a718       0x98 ./elibrary/bin//libmediainfo.a(AudioInfo_WMA.o)
 .debug_frame   0x000000000000a7b0       0x98 ./elibrary/bin//libmediainfo.a(AudioInfo_WAV.o)
 .debug_frame   0x000000000000a848       0xe8 ./elibrary/bin//libmediainfo.a(AudioInfo_RA.o)
 .debug_frame   0x000000000000a930       0x70 ./elibrary/bin//libmediainfo.a(AudioInfo_OGG.o)
 .debug_frame   0x000000000000a9a0       0x88 ./elibrary/bin//libmediainfo.a(AudioInfo_MP3.o)
 .debug_frame   0x000000000000aa28       0xe8 ./elibrary/bin//libmediainfo.a(AudioInfo_MID_timidity.o)
 .debug_frame   0x000000000000ab10      0x110 ./elibrary/bin//libmediainfo.a(AudioInfo_FLAC.o)
 .debug_frame   0x000000000000ac20       0xf0 ./elibrary/bin//libmediainfo.a(AudioInfo_DTS.o)
 .debug_frame   0x000000000000ad10       0xc0 ./elibrary/bin//libmediainfo.a(AudioInfo_DRA.o)
 .debug_frame   0x000000000000add0       0x48 ./elibrary/bin//libmediainfo.a(AudioInfo_CAF.o)
 .debug_frame   0x000000000000ae18       0x58 ./elibrary/bin//libmediainfo.a(AudioInfo_ATRAC.o)
 .debug_frame   0x000000000000ae70       0x60 ./elibrary/bin//libmediainfo.a(AudioInfo_APE.o)
 .debug_frame   0x000000000000aed0       0x48 ./elibrary/bin//libmediainfo.a(AudioInfo_AMR.o)
 .debug_frame   0x000000000000af18       0x60 ./elibrary/bin//libmediainfo.a(AudioInfo_AC3.o)
 .debug_frame   0x000000000000af78      0x1e0 ./elibrary/bin//libmediainfo.a(AudioInfo_AAC.o)
 .debug_frame   0x000000000000b158      0x1d8 ./elibrary/bin//libmediainfo.a(bitstream.o)
 .debug_frame   0x000000000000b330      0x110 ./elibrary/bin//libmediainfo.a(audio_fs_direct.o)
 .debug_frame   0x000000000000b440       0x48 ./elibrary/bin//libmediainfo.a(Tag_XING.o)
 .debug_frame   0x000000000000b488       0x48 ./elibrary/bin//libmediainfo.a(Tag_VBRI.o)
 .debug_frame   0x000000000000b4d0       0x60 ./elibrary/bin//libmediainfo.a(Tag_OGG.o)
 .debug_frame   0x000000000000b530      0x148 ./elibrary/bin//libmediainfo.a(Tag_ID3.o)
 .debug_frame   0x000000000000b678       0x60 ./elibrary/bin//libmediainfo.a(Tag_Enoding.o)
 .debug_frame   0x000000000000b6d8       0x90 ./elibrary/bin//libmediainfo.a(Tag_APE.o)

Cross Reference Table

Symbol                                            File
AZ100_DataUncompress                              ./elibrary/bin//liblzma.a(compress.o)
                                                  ./elibrary/bin//liblzma.a(az100.o)
AZ100_GetUncompressSize                           ./elibrary/bin//liblzma.a(az100.o)
                                                  livedesk/beetles/mod_desktop/functions/built-in.o
AZ100_IsCompress                                  ./elibrary/bin//liblzma.a(az100.o)
                                                  livedesk/beetles/mod_desktop/functions/built-in.o
AZ100_Uncompress                                  ./elibrary/bin//liblzma.a(az100.o)
                                                  livedesk/beetles/mod_desktop/functions/built-in.o
DESKTOP_MClose                                    livedesk/beetles/mod_desktop/mod_desktop.o
                                                  livedesk/beetles/mod_desktop/magic.o
DESKTOP_MExit                                     livedesk/beetles/mod_desktop/mod_desktop.o
                                                  livedesk/beetles/mod_desktop/magic.o
DESKTOP_MInit                                     livedesk/beetles/mod_desktop/mod_desktop.o
                                                  livedesk/beetles/mod_desktop/magic.o
DESKTOP_MIoctrl                                   livedesk/beetles/mod_desktop/mod_desktop.o
                                                  livedesk/beetles/mod_desktop/magic.o
DESKTOP_MOpen                                     livedesk/beetles/mod_desktop/mod_desktop.o
                                                  livedesk/beetles/mod_desktop/magic.o
DESKTOP_MRead                                     livedesk/beetles/mod_desktop/mod_desktop.o
                                                  livedesk/beetles/mod_desktop/magic.o
DESKTOP_MWrite                                    livedesk/beetles/mod_desktop/mod_desktop.o
                                                  livedesk/beetles/mod_desktop/magic.o
DraFindSync                                       ./elibrary/bin//libmediainfo.a(AudioInfo_DRA.o)
EnsureUTF8                                        ./elibrary/bin//libmediainfo.a(AudioInfo_FLAC.o)
GetAudioDataInfo                                  ./elibrary/bin//libmediainfo.a(GetAudio_format.o)
                                                  ./elibrary/bin//libmediainfo.a(elibs_mediainf.o)
GetAudioFileInfo                                  ./elibrary/bin//libmediainfo.a(GetAudio_format.o)
GetAudioFormat                                    ./elibrary/bin//libmediainfo.a(GetAudio_format.o)
                                                  ./elibrary/bin//libmediainfo.a(elibs_mediainf.o)
GetAudioFormatData                                ./elibrary/bin//libmediainfo.a(GetAudio_format.o)
GetAudioInfo                                      ./elibrary/bin//libmediainfo.a(GetAudio_format.o)
                                                  ./elibrary/bin//libmediainfo.a(elibs_mediainf.o)
GetInfo_AAC                                       ./elibrary/bin//libmediainfo.a(AudioInfo_AAC.o)
                                                  ./elibrary/bin//libmediainfo.a(GetAudio_format.o)
GetInfo_AC3                                       ./elibrary/bin//libmediainfo.a(AudioInfo_AC3.o)
                                                  ./elibrary/bin//libmediainfo.a(GetAudio_format.o)
GetInfo_AMR                                       ./elibrary/bin//libmediainfo.a(AudioInfo_AMR.o)
                                                  ./elibrary/bin//libmediainfo.a(GetAudio_format.o)
GetInfo_APE                                       ./elibrary/bin//libmediainfo.a(AudioInfo_APE.o)
                                                  ./elibrary/bin//libmediainfo.a(GetAudio_format.o)
GetInfo_APETAG                                    ./elibrary/bin//libmediainfo.a(Tag_APE.o)
                                                  ./elibrary/bin//libmediainfo.a(AudioInfo_APE.o)
                                                  ./elibrary/bin//libmediainfo.a(AudioInfo_MP3.o)
GetInfo_ATRAC                                     ./elibrary/bin//libmediainfo.a(AudioInfo_ATRAC.o)
                                                  ./elibrary/bin//libmediainfo.a(GetAudio_format.o)
GetInfo_BsEndRelease                              ./elibrary/bin//libmediainfo.a(bitstream.o)
                                                  ./elibrary/bin//libmediainfo.a(AudioInfo_AAC.o)
                                                  ./elibrary/bin//libmediainfo.a(AudioInfo_AC3.o)
                                                  ./elibrary/bin//libmediainfo.a(AudioInfo_AMR.o)
                                                  ./elibrary/bin//libmediainfo.a(AudioInfo_APE.o)
                                                  ./elibrary/bin//libmediainfo.a(AudioInfo_ATRAC.o)
                                                  ./elibrary/bin//libmediainfo.a(AudioInfo_CAF.o)
                                                  ./elibrary/bin//libmediainfo.a(AudioInfo_DRA.o)
                                                  ./elibrary/bin//libmediainfo.a(AudioInfo_DTS.o)
                                                  ./elibrary/bin//libmediainfo.a(AudioInfo_FLAC.o)
                                                  ./elibrary/bin//libmediainfo.a(AudioInfo_MID_timidity.o)
                                                  ./elibrary/bin//libmediainfo.a(AudioInfo_MP3.o)
                                                  ./elibrary/bin//libmediainfo.a(AudioInfo_OGG.o)
                                                  ./elibrary/bin//libmediainfo.a(AudioInfo_RA.o)
                                                  ./elibrary/bin//libmediainfo.a(AudioInfo_WAV.o)
                                                  ./elibrary/bin//libmediainfo.a(AudioInfo_WMA.o)
GetInfo_BsInit                                    ./elibrary/bin//libmediainfo.a(bitstream.o)
                                                  ./elibrary/bin//libmediainfo.a(AudioInfo_AAC.o)
                                                  ./elibrary/bin//libmediainfo.a(AudioInfo_AC3.o)
                                                  ./elibrary/bin//libmediainfo.a(AudioInfo_AMR.o)
                                                  ./elibrary/bin//libmediainfo.a(AudioInfo_APE.o)
                                                  ./elibrary/bin//libmediainfo.a(AudioInfo_ATRAC.o)
                                                  ./elibrary/bin//libmediainfo.a(AudioInfo_CAF.o)
                                                  ./elibrary/bin//libmediainfo.a(AudioInfo_DRA.o)
                                                  ./elibrary/bin//libmediainfo.a(AudioInfo_DTS.o)
                                                  ./elibrary/bin//libmediainfo.a(AudioInfo_FLAC.o)
                                                  ./elibrary/bin//libmediainfo.a(AudioInfo_MID_timidity.o)
                                                  ./elibrary/bin//libmediainfo.a(AudioInfo_MP3.o)
                                                  ./elibrary/bin//libmediainfo.a(AudioInfo_OGG.o)
                                                  ./elibrary/bin//libmediainfo.a(AudioInfo_RA.o)
                                                  ./elibrary/bin//libmediainfo.a(AudioInfo_WAV.o)
                                                  ./elibrary/bin//libmediainfo.a(AudioInfo_WMA.o)
GetInfo_CAF                                       ./elibrary/bin//libmediainfo.a(AudioInfo_CAF.o)
                                                  ./elibrary/bin//libmediainfo.a(GetAudio_format.o)
GetInfo_CHARComPare                               ./elibrary/bin//libmediainfo.a(bitstream.o)
                                                  ./elibrary/bin//libmediainfo.a(AudioInfo_WMA.o)
GetInfo_DRA                                       ./elibrary/bin//libmediainfo.a(AudioInfo_DRA.o)
                                                  ./elibrary/bin//libmediainfo.a(GetAudio_format.o)
GetInfo_DTS                                       ./elibrary/bin//libmediainfo.a(AudioInfo_DTS.o)
                                                  ./elibrary/bin//libmediainfo.a(AudioInfo_WAV.o)
                                                  ./elibrary/bin//libmediainfo.a(GetAudio_format.o)
GetInfo_ExtractI4                                 ./elibrary/bin//libmediainfo.a(bitstream.o)
                                                  ./elibrary/bin//libmediainfo.a(Tag_ID3.o)
                                                  ./elibrary/bin//libmediainfo.a(Tag_VBRI.o)
                                                  ./elibrary/bin//libmediainfo.a(Tag_XING.o)
                                                  ./elibrary/bin//libmediainfo.a(AudioInfo_OGG.o)
GetInfo_FLAC                                      ./elibrary/bin//libmediainfo.a(AudioInfo_FLAC.o)
                                                  ./elibrary/bin//libmediainfo.a(GetAudio_format.o)
GetInfo_GETID3_Len                                ./elibrary/bin//libmediainfo.a(Tag_ID3.o)
                                                  ./elibrary/bin//libmediainfo.a(GetAudio_format.o)
GetInfo_GETID3_V1                                 ./elibrary/bin//libmediainfo.a(Tag_ID3.o)
                                                  ./elibrary/bin//libmediainfo.a(AudioInfo_AAC.o)
                                                  ./elibrary/bin//libmediainfo.a(AudioInfo_MP3.o)
                                                  ./elibrary/bin//libmediainfo.a(AudioInfo_OGG.o)
GetInfo_GETID3_V2                                 ./elibrary/bin//libmediainfo.a(Tag_ID3.o)
                                                  ./elibrary/bin//libmediainfo.a(AudioInfo_AAC.o)
                                                  ./elibrary/bin//libmediainfo.a(AudioInfo_APE.o)
                                                  ./elibrary/bin//libmediainfo.a(AudioInfo_ATRAC.o)
                                                  ./elibrary/bin//libmediainfo.a(AudioInfo_FLAC.o)
                                                  ./elibrary/bin//libmediainfo.a(AudioInfo_MP3.o)
                                                  ./elibrary/bin//libmediainfo.a(AudioInfo_OGG.o)
GetInfo_GETTAG_VBRI                               ./elibrary/bin//libmediainfo.a(Tag_VBRI.o)
                                                  ./elibrary/bin//libmediainfo.a(AudioInfo_MP3.o)
GetInfo_GETTAG_XING                               ./elibrary/bin//libmediainfo.a(Tag_XING.o)
                                                  ./elibrary/bin//libmediainfo.a(AudioInfo_MP3.o)
GetInfo_GetBsInByte                               ./elibrary/bin//libmediainfo.a(bitstream.o)
                                                  ./elibrary/bin//libmediainfo.a(Tag_ID3.o)
                                                  ./elibrary/bin//libmediainfo.a(AudioInfo_AAC.o)
                                                  ./elibrary/bin//libmediainfo.a(AudioInfo_AC3.o)
                                                  ./elibrary/bin//libmediainfo.a(AudioInfo_AMR.o)
                                                  ./elibrary/bin//libmediainfo.a(AudioInfo_APE.o)
                                                  ./elibrary/bin//libmediainfo.a(AudioInfo_ATRAC.o)
                                                  ./elibrary/bin//libmediainfo.a(AudioInfo_CAF.o)
                                                  ./elibrary/bin//libmediainfo.a(AudioInfo_DTS.o)
                                                  ./elibrary/bin//libmediainfo.a(AudioInfo_FLAC.o)
                                                  ./elibrary/bin//libmediainfo.a(AudioInfo_MID_timidity.o)
                                                  ./elibrary/bin//libmediainfo.a(AudioInfo_MP3.o)
                                                  ./elibrary/bin//libmediainfo.a(AudioInfo_OGG.o)
                                                  ./elibrary/bin//libmediainfo.a(AudioInfo_RA.o)
                                                  ./elibrary/bin//libmediainfo.a(AudioInfo_WAV.o)
                                                  ./elibrary/bin//libmediainfo.a(AudioInfo_WMA.o)
GetInfo_GetBsInByteLI                             ./elibrary/bin//libmediainfo.a(bitstream.o)
                                                  ./elibrary/bin//libmediainfo.a(Tag_OGG.o)
                                                  ./elibrary/bin//libmediainfo.a(AudioInfo_AC3.o)
                                                  ./elibrary/bin//libmediainfo.a(AudioInfo_APE.o)
                                                  ./elibrary/bin//libmediainfo.a(AudioInfo_OGG.o)
                                                  ./elibrary/bin//libmediainfo.a(AudioInfo_RA.o)
                                                  ./elibrary/bin//libmediainfo.a(AudioInfo_WAV.o)
                                                  ./elibrary/bin//libmediainfo.a(AudioInfo_WMA.o)
GetInfo_GetFileLocation                           ./elibrary/bin//libmediainfo.a(bitstream.o)
                                                  ./elibrary/bin//libmediainfo.a(Tag_ID3.o)
                                                  ./elibrary/bin//libmediainfo.a(AudioInfo_FLAC.o)
                                                  ./elibrary/bin//libmediainfo.a(AudioInfo_MID_timidity.o)
                                                  ./elibrary/bin//libmediainfo.a(AudioInfo_WMA.o)
GetInfo_Language_encoding                         ./elibrary/bin//libmediainfo.a(Tag_Enoding.o)
                                                  ./elibrary/bin//libmediainfo.a(Tag_ID3.o)
GetInfo_MID                                       ./elibrary/bin//libmediainfo.a(AudioInfo_MID_timidity.o)
                                                  ./elibrary/bin//libmediainfo.a(GetAudio_format.o)
GetInfo_MP3                                       ./elibrary/bin//libmediainfo.a(AudioInfo_MP3.o)
                                                  ./elibrary/bin//libmediainfo.a(AudioInfo_WAV.o)
                                                  ./elibrary/bin//libmediainfo.a(GetAudio_format.o)
GetInfo_OGG                                       ./elibrary/bin//libmediainfo.a(AudioInfo_OGG.o)
                                                  ./elibrary/bin//libmediainfo.a(GetAudio_format.o)
GetInfo_RA                                        ./elibrary/bin//libmediainfo.a(AudioInfo_RA.o)
                                                  ./elibrary/bin//libmediainfo.a(GetAudio_format.o)
GetInfo_ShowBs                                    ./elibrary/bin//libmediainfo.a(bitstream.o)
                                                  ./elibrary/bin//libmediainfo.a(Tag_ID3.o)
                                                  ./elibrary/bin//libmediainfo.a(AudioInfo_AAC.o)
                                                  ./elibrary/bin//libmediainfo.a(AudioInfo_AC3.o)
                                                  ./elibrary/bin//libmediainfo.a(AudioInfo_DRA.o)
                                                  ./elibrary/bin//libmediainfo.a(AudioInfo_FLAC.o)
                                                  ./elibrary/bin//libmediainfo.a(AudioInfo_MP3.o)
                                                  ./elibrary/bin//libmediainfo.a(AudioInfo_OGG.o)
                                                  ./elibrary/bin//libmediainfo.a(AudioInfo_WAV.o)
                                                  ./elibrary/bin//libmediainfo.a(AudioInfo_WMA.o)
GetInfo_SkipBsInByte                              ./elibrary/bin//libmediainfo.a(bitstream.o)
                                                  ./elibrary/bin//libmediainfo.a(Tag_ID3.o)
                                                  ./elibrary/bin//libmediainfo.a(Tag_OGG.o)
                                                  ./elibrary/bin//libmediainfo.a(AudioInfo_AAC.o)
                                                  ./elibrary/bin//libmediainfo.a(AudioInfo_AC3.o)
                                                  ./elibrary/bin//libmediainfo.a(AudioInfo_APE.o)
                                                  ./elibrary/bin//libmediainfo.a(AudioInfo_ATRAC.o)
                                                  ./elibrary/bin//libmediainfo.a(AudioInfo_CAF.o)
                                                  ./elibrary/bin//libmediainfo.a(AudioInfo_DTS.o)
                                                  ./elibrary/bin//libmediainfo.a(AudioInfo_FLAC.o)
                                                  ./elibrary/bin//libmediainfo.a(AudioInfo_MID_timidity.o)
                                                  ./elibrary/bin//libmediainfo.a(AudioInfo_OGG.o)
                                                  ./elibrary/bin//libmediainfo.a(AudioInfo_RA.o)
                                                  ./elibrary/bin//libmediainfo.a(AudioInfo_WAV.o)
                                                  ./elibrary/bin//libmediainfo.a(AudioInfo_WMA.o)
GetInfo_StringLen                                 ./elibrary/bin//libmediainfo.a(bitstream.o)
                                                  ./elibrary/bin//libmediainfo.a(Tag_ID3.o)
GetInfo_UidComPare                                ./elibrary/bin//libmediainfo.a(bitstream.o)
                                                  ./elibrary/bin//libmediainfo.a(AudioInfo_WMA.o)
GetInfo_WAV                                       ./elibrary/bin//libmediainfo.a(AudioInfo_WAV.o)
                                                  ./elibrary/bin//libmediainfo.a(GetAudio_format.o)
GetInfo_WMA                                       ./elibrary/bin//libmediainfo.a(AudioInfo_WMA.o)
                                                  ./elibrary/bin//libmediainfo.a(GetAudio_format.o)
GetInfo_encoding_change                           ./elibrary/bin//libmediainfo.a(Tag_Enoding.o)
                                                  ./elibrary/bin//libmediainfo.a(Tag_ID3.o)
GetInfo_oggStandardTag                            ./elibrary/bin//libmediainfo.a(Tag_OGG.o)
                                                  ./elibrary/bin//libmediainfo.a(AudioInfo_FLAC.o)
                                                  ./elibrary/bin//libmediainfo.a(AudioInfo_OGG.o)
GetInfo_return                                    ./elibrary/bin//libmediainfo.a(bitstream.o)
                                                  ./elibrary/bin//libmediainfo.a(Tag_ID3.o)
                                                  ./elibrary/bin//libmediainfo.a(AudioInfo_AAC.o)
                                                  ./elibrary/bin//libmediainfo.a(AudioInfo_AC3.o)
                                                  ./elibrary/bin//libmediainfo.a(AudioInfo_APE.o)
                                                  ./elibrary/bin//libmediainfo.a(AudioInfo_DTS.o)
                                                  ./elibrary/bin//libmediainfo.a(AudioInfo_FLAC.o)
                                                  ./elibrary/bin//libmediainfo.a(AudioInfo_MP3.o)
                                                  ./elibrary/bin//libmediainfo.a(AudioInfo_OGG.o)
                                                  ./elibrary/bin//libmediainfo.a(AudioInfo_WAV.o)
                                                  ./elibrary/bin//libmediainfo.a(AudioInfo_WMA.o)
LoadDraFrame                                      ./elibrary/bin//libmediainfo.a(AudioInfo_DRA.o)
LzmaDec_Allocate                                  ./elibrary/bin//liblzma.a(LzmaDec.o)
LzmaDec_AllocateProbs                             ./elibrary/bin//liblzma.a(LzmaDec.o)
LzmaDec_DecodeToBuf                               ./elibrary/bin//liblzma.a(LzmaDec.o)
LzmaDec_DecodeToDic                               ./elibrary/bin//liblzma.a(LzmaDec.o)
LzmaDec_Free                                      ./elibrary/bin//liblzma.a(LzmaDec.o)
LzmaDec_FreeProbs                                 ./elibrary/bin//liblzma.a(LzmaDec.o)
LzmaDec_Init                                      ./elibrary/bin//liblzma.a(LzmaDec.o)
LzmaDec_InitDicAndState                           ./elibrary/bin//liblzma.a(LzmaDec.o)
LzmaDecode                                        ./elibrary/bin//liblzma.a(LzmaDec.o)
                                                  ./elibrary/bin//liblzma.a(LzmaLib.o)
LzmaProps_Decode                                  ./elibrary/bin//liblzma.a(LzmaDec.o)
LzmaUncompress                                    ./elibrary/bin//liblzma.a(LzmaLib.o)
                                                  ./elibrary/bin//liblzma.a(compress.o)
ParsePicture                                      ./elibrary/bin//libmediainfo.a(AudioInfo_FLAC.o)
__autosearch_thread                               livedesk/beetles/mod_desktop/engine/built-in.o
__dsk_wkm_cancle_ab                               livedesk/beetles/mod_desktop/engine/built-in.o
__dsk_wkm_cedar_close                             livedesk/beetles/mod_desktop/engine/built-in.o
__dsk_wkm_cedar_open                              livedesk/beetles/mod_desktop/engine/built-in.o
__dsk_wkm_clear_feedback_msgQ                     livedesk/beetles/mod_desktop/engine/built-in.o
__dsk_wkm_disable_spectrum                        livedesk/beetles/mod_desktop/engine/built-in.o
__dsk_wkm_enable_spectrum                         livedesk/beetles/mod_desktop/engine/built-in.o
__dsk_wkm_eq_mode2value                           livedesk/beetles/mod_desktop/engine/built-in.o
__dsk_wkm_feedbackQ_create                        livedesk/beetles/mod_desktop/engine/built-in.o
__dsk_wkm_feedbackQ_delete                        livedesk/beetles/mod_desktop/engine/built-in.o
__dsk_wkm_ff                                      livedesk/beetles/mod_desktop/engine/built-in.o
__dsk_wkm_get_album_cover                         livedesk/beetles/mod_desktop/engine/built-in.o
__dsk_wkm_get_attr                                livedesk/beetles/mod_desktop/engine/built-in.o
__dsk_wkm_get_audio_bps                           livedesk/beetles/mod_desktop/engine/built-in.o
__dsk_wkm_get_audio_encoding                      livedesk/beetles/mod_desktop/engine/built-in.o
__dsk_wkm_get_audio_info                          livedesk/beetles/mod_desktop/engine/built-in.o
__dsk_wkm_get_audio_sample_rate                   livedesk/beetles/mod_desktop/engine/built-in.o
__dsk_wkm_get_cur_time                            livedesk/beetles/mod_desktop/engine/built-in.o
__dsk_wkm_get_eq_mode                             livedesk/beetles/mod_desktop/engine/built-in.o
__dsk_wkm_get_eq_value                            livedesk/beetles/mod_desktop/engine/built-in.o
__dsk_wkm_get_feedback_msg                        livedesk/beetles/mod_desktop/engine/built-in.o
__dsk_wkm_get_feedback_msgQ                       livedesk/beetles/mod_desktop/engine/built-in.o
__dsk_wkm_get_ff_rr_speed                         livedesk/beetles/mod_desktop/engine/built-in.o
__dsk_wkm_get_fsm_state                           livedesk/beetles/mod_desktop/engine/built-in.o
__dsk_wkm_get_lyric_format                        livedesk/beetles/mod_desktop/engine/built-in.o
__dsk_wkm_get_lyric_item_count                    livedesk/beetles/mod_desktop/engine/built-in.o
__dsk_wkm_get_lyric_item_list                     livedesk/beetles/mod_desktop/engine/built-in.o
__dsk_wkm_get_npl_dirty_flag                      livedesk/beetles/mod_desktop/engine/built-in.o
__dsk_wkm_get_open_state                          livedesk/beetles/mod_desktop/engine/built-in.o
__dsk_wkm_get_pause_state                         livedesk/beetles/mod_desktop/engine/built-in.o
__dsk_wkm_get_play_mode                           livedesk/beetles/mod_desktop/engine/built-in.o
__dsk_wkm_get_play_speed                          livedesk/beetles/mod_desktop/engine/built-in.o
__dsk_wkm_get_playing_state                       livedesk/beetles/mod_desktop/engine/built-in.o
__dsk_wkm_get_spectrum_info                       livedesk/beetles/mod_desktop/engine/built-in.o
__dsk_wkm_get_star                                livedesk/beetles/mod_desktop/engine/built-in.o
__dsk_wkm_get_tag                                 livedesk/beetles/mod_desktop/engine/built-in.o
__dsk_wkm_get_total_time                          livedesk/beetles/mod_desktop/engine/built-in.o
__dsk_wkm_jump                                    livedesk/beetles/mod_desktop/engine/built-in.o
__dsk_wkm_lyric_exist                             livedesk/beetles/mod_desktop/engine/built-in.o
__dsk_wkm_monitor_disable                         livedesk/beetles/mod_desktop/engine/built-in.o
__dsk_wkm_monitor_enable                          livedesk/beetles/mod_desktop/engine/built-in.o
__dsk_wkm_npl_add_item                            livedesk/beetles/mod_desktop/engine/built-in.o
__dsk_wkm_npl_clear                               livedesk/beetles/mod_desktop/engine/built-in.o
__dsk_wkm_npl_clear_dirty_flag                    livedesk/beetles/mod_desktop/engine/built-in.o
__dsk_wkm_npl_create                              livedesk/beetles/mod_desktop/engine/built-in.o
__dsk_wkm_npl_delete                              livedesk/beetles/mod_desktop/engine/built-in.o
__dsk_wkm_npl_delete_item                         livedesk/beetles/mod_desktop/engine/built-in.o
__dsk_wkm_npl_file2index                          livedesk/beetles/mod_desktop/engine/built-in.o
__dsk_wkm_npl_get_cur                             livedesk/beetles/mod_desktop/engine/built-in.o
__dsk_wkm_npl_get_next                            livedesk/beetles/mod_desktop/engine/built-in.o
__dsk_wkm_npl_get_total_count                     livedesk/beetles/mod_desktop/engine/built-in.o
__dsk_wkm_npl_get_valid_count                     livedesk/beetles/mod_desktop/engine/built-in.o
__dsk_wkm_npl_index2file                          livedesk/beetles/mod_desktop/engine/built-in.o
__dsk_wkm_npl_invalidate_item                     livedesk/beetles/mod_desktop/engine/built-in.o
__dsk_wkm_npl_is_dirty                            livedesk/beetles/mod_desktop/engine/built-in.o
__dsk_wkm_npl_item_is_valid                       livedesk/beetles/mod_desktop/engine/built-in.o
__dsk_wkm_npl_load_last_list                      livedesk/beetles/mod_desktop/engine/built-in.o
__dsk_wkm_npl_playing_seek                        livedesk/beetles/mod_desktop/engine/built-in.o
__dsk_wkm_npl_save_list                           livedesk/beetles/mod_desktop/engine/built-in.o
__dsk_wkm_orchid_close                            livedesk/beetles/mod_desktop/engine/built-in.o
__dsk_wkm_orchid_open                             livedesk/beetles/mod_desktop/engine/built-in.o
__dsk_wkm_pause                                   livedesk/beetles/mod_desktop/engine/built-in.o
__dsk_wkm_play_file                               livedesk/beetles/mod_desktop/engine/built-in.o
__dsk_wkm_res_mutex_create                        livedesk/beetles/mod_desktop/engine/built-in.o
__dsk_wkm_res_mutex_delete                        livedesk/beetles/mod_desktop/engine/built-in.o
__dsk_wkm_resume_play                             livedesk/beetles/mod_desktop/engine/built-in.o
__dsk_wkm_rr                                      livedesk/beetles/mod_desktop/engine/built-in.o
__dsk_wkm_set_ab_a                                livedesk/beetles/mod_desktop/engine/built-in.o
__dsk_wkm_set_ab_b                                livedesk/beetles/mod_desktop/engine/built-in.o
__dsk_wkm_set_ab_loop_count                       livedesk/beetles/mod_desktop/engine/built-in.o
__dsk_wkm_set_attr                                livedesk/beetles/mod_desktop/engine/built-in.o
__dsk_wkm_set_eq_mode                             livedesk/beetles/mod_desktop/engine/built-in.o
__dsk_wkm_set_eq_value                            livedesk/beetles/mod_desktop/engine/built-in.o
__dsk_wkm_set_ff_rr_speed                         livedesk/beetles/mod_desktop/engine/built-in.o
__dsk_wkm_set_npl_dirty_flag                      livedesk/beetles/mod_desktop/engine/built-in.o
__dsk_wkm_set_open_state                          livedesk/beetles/mod_desktop/engine/built-in.o
__dsk_wkm_set_pause_state                         livedesk/beetles/mod_desktop/engine/built-in.o
__dsk_wkm_set_play_mode                           livedesk/beetles/mod_desktop/engine/built-in.o
__dsk_wkm_set_play_speed                          livedesk/beetles/mod_desktop/engine/built-in.o
__dsk_wkm_set_playing_state                       livedesk/beetles/mod_desktop/engine/built-in.o
__dsk_wkm_set_star                                livedesk/beetles/mod_desktop/engine/built-in.o
__dsk_wkm_stop                                    livedesk/beetles/mod_desktop/engine/built-in.o
__dsk_wkm_syn_op_ff                               livedesk/beetles/mod_desktop/engine/built-in.o
__dsk_wkm_syn_op_jump                             livedesk/beetles/mod_desktop/engine/built-in.o
__dsk_wkm_syn_op_pause                            livedesk/beetles/mod_desktop/engine/built-in.o
__dsk_wkm_syn_op_play_file                        livedesk/beetles/mod_desktop/engine/built-in.o
__dsk_wkm_syn_op_resume_play                      livedesk/beetles/mod_desktop/engine/built-in.o
__dsk_wkm_syn_op_rr                               livedesk/beetles/mod_desktop/engine/built-in.o
__dsk_wkm_syn_op_stop                             livedesk/beetles/mod_desktop/engine/built-in.o
__fp_lock_all                                     /home/yuzuki/WorkSpace/melis-v3.0/melis-4.x-release/toolchain/riscv64-elf-x86_64-20201104/bin/../lib/gcc/riscv64-unknown-elf/8.4.0/../../../../riscv64-unknown-elf/lib/rv64imafdcxtheadc/lp64d/libc.a(lib_a-findfp.o)
__fp_unlock_all                                   /home/yuzuki/WorkSpace/melis-v3.0/melis-4.x-release/toolchain/riscv64-elf-x86_64-20201104/bin/../lib/gcc/riscv64-unknown-elf/8.4.0/../../../../riscv64-unknown-elf/lib/rv64imafdcxtheadc/lp64d/libc.a(lib_a-findfp.o)
__libc_init_array                                 ./elibrary/bin//libsyscall.a(syscall_fops.o)
__malloc_lock                                     ./elibrary/bin//libsyscall.a(syscall_fops.o)
__malloc_unlock                                   ./elibrary/bin//libsyscall.a(syscall_fops.o)
__sclose                                          /home/yuzuki/WorkSpace/melis-v3.0/melis-4.x-release/toolchain/riscv64-elf-x86_64-20201104/bin/../lib/gcc/riscv64-unknown-elf/8.4.0/../../../../riscv64-unknown-elf/lib/rv64imafdcxtheadc/lp64d/libc.a(lib_a-stdio.o)
                                                  /home/yuzuki/WorkSpace/melis-v3.0/melis-4.x-release/toolchain/riscv64-elf-x86_64-20201104/bin/../lib/gcc/riscv64-unknown-elf/8.4.0/../../../../riscv64-unknown-elf/lib/rv64imafdcxtheadc/lp64d/libc.a(lib_a-fopen.o)
                                                  /home/yuzuki/WorkSpace/melis-v3.0/melis-4.x-release/toolchain/riscv64-elf-x86_64-20201104/bin/../lib/gcc/riscv64-unknown-elf/8.4.0/../../../../riscv64-unknown-elf/lib/rv64imafdcxtheadc/lp64d/libc.a(lib_a-findfp.o)
__seofread                                        /home/yuzuki/WorkSpace/melis-v3.0/melis-4.x-release/toolchain/riscv64-elf-x86_64-20201104/bin/../lib/gcc/riscv64-unknown-elf/8.4.0/../../../../riscv64-unknown-elf/lib/rv64imafdcxtheadc/lp64d/libc.a(lib_a-stdio.o)
__sflags                                          /home/yuzuki/WorkSpace/melis-v3.0/melis-4.x-release/toolchain/riscv64-elf-x86_64-20201104/bin/../lib/gcc/riscv64-unknown-elf/8.4.0/../../../../riscv64-unknown-elf/lib/rv64imafdcxtheadc/lp64d/libc.a(lib_a-flags.o)
                                                  /home/yuzuki/WorkSpace/melis-v3.0/melis-4.x-release/toolchain/riscv64-elf-x86_64-20201104/bin/../lib/gcc/riscv64-unknown-elf/8.4.0/../../../../riscv64-unknown-elf/lib/rv64imafdcxtheadc/lp64d/libc.a(lib_a-fopen.o)
__sflush_r                                        /home/yuzuki/WorkSpace/melis-v3.0/melis-4.x-release/toolchain/riscv64-elf-x86_64-20201104/bin/../lib/gcc/riscv64-unknown-elf/8.4.0/../../../../riscv64-unknown-elf/lib/rv64imafdcxtheadc/lp64d/libc.a(lib_a-fflush.o)
                                                  /home/yuzuki/WorkSpace/melis-v3.0/melis-4.x-release/toolchain/riscv64-elf-x86_64-20201104/bin/../lib/gcc/riscv64-unknown-elf/8.4.0/../../../../riscv64-unknown-elf/lib/rv64imafdcxtheadc/lp64d/libc.a(lib_a-refill.o)
                                                  /home/yuzuki/WorkSpace/melis-v3.0/melis-4.x-release/toolchain/riscv64-elf-x86_64-20201104/bin/../lib/gcc/riscv64-unknown-elf/8.4.0/../../../../riscv64-unknown-elf/lib/rv64imafdcxtheadc/lp64d/libc.a(lib_a-fclose.o)
__sfmoreglue                                      /home/yuzuki/WorkSpace/melis-v3.0/melis-4.x-release/toolchain/riscv64-elf-x86_64-20201104/bin/../lib/gcc/riscv64-unknown-elf/8.4.0/../../../../riscv64-unknown-elf/lib/rv64imafdcxtheadc/lp64d/libc.a(lib_a-findfp.o)
__sfp                                             /home/yuzuki/WorkSpace/melis-v3.0/melis-4.x-release/toolchain/riscv64-elf-x86_64-20201104/bin/../lib/gcc/riscv64-unknown-elf/8.4.0/../../../../riscv64-unknown-elf/lib/rv64imafdcxtheadc/lp64d/libc.a(lib_a-findfp.o)
                                                  /home/yuzuki/WorkSpace/melis-v3.0/melis-4.x-release/toolchain/riscv64-elf-x86_64-20201104/bin/../lib/gcc/riscv64-unknown-elf/8.4.0/../../../../riscv64-unknown-elf/lib/rv64imafdcxtheadc/lp64d/libc.a(lib_a-fopen.o)
__sfp_lock_acquire                                /home/yuzuki/WorkSpace/melis-v3.0/melis-4.x-release/toolchain/riscv64-elf-x86_64-20201104/bin/../lib/gcc/riscv64-unknown-elf/8.4.0/../../../../riscv64-unknown-elf/lib/rv64imafdcxtheadc/lp64d/libc.a(lib_a-findfp.o)
                                                  /home/yuzuki/WorkSpace/melis-v3.0/melis-4.x-release/toolchain/riscv64-elf-x86_64-20201104/bin/../lib/gcc/riscv64-unknown-elf/8.4.0/../../../../riscv64-unknown-elf/lib/rv64imafdcxtheadc/lp64d/libc.a(lib_a-fopen.o)
                                                  /home/yuzuki/WorkSpace/melis-v3.0/melis-4.x-release/toolchain/riscv64-elf-x86_64-20201104/bin/../lib/gcc/riscv64-unknown-elf/8.4.0/../../../../riscv64-unknown-elf/lib/rv64imafdcxtheadc/lp64d/libc.a(lib_a-fclose.o)
__sfp_lock_release                                /home/yuzuki/WorkSpace/melis-v3.0/melis-4.x-release/toolchain/riscv64-elf-x86_64-20201104/bin/../lib/gcc/riscv64-unknown-elf/8.4.0/../../../../riscv64-unknown-elf/lib/rv64imafdcxtheadc/lp64d/libc.a(lib_a-findfp.o)
                                                  /home/yuzuki/WorkSpace/melis-v3.0/melis-4.x-release/toolchain/riscv64-elf-x86_64-20201104/bin/../lib/gcc/riscv64-unknown-elf/8.4.0/../../../../riscv64-unknown-elf/lib/rv64imafdcxtheadc/lp64d/libc.a(lib_a-fopen.o)
                                                  /home/yuzuki/WorkSpace/melis-v3.0/melis-4.x-release/toolchain/riscv64-elf-x86_64-20201104/bin/../lib/gcc/riscv64-unknown-elf/8.4.0/../../../../riscv64-unknown-elf/lib/rv64imafdcxtheadc/lp64d/libc.a(lib_a-fclose.o)
__sfvwrite_r                                      /home/yuzuki/WorkSpace/melis-v3.0/melis-4.x-release/toolchain/riscv64-elf-x86_64-20201104/bin/../lib/gcc/riscv64-unknown-elf/8.4.0/../../../../riscv64-unknown-elf/lib/rv64imafdcxtheadc/lp64d/libc.a(lib_a-fvwrite.o)
                                                  /home/yuzuki/WorkSpace/melis-v3.0/melis-4.x-release/toolchain/riscv64-elf-x86_64-20201104/bin/../lib/gcc/riscv64-unknown-elf/8.4.0/../../../../riscv64-unknown-elf/lib/rv64imafdcxtheadc/lp64d/libc.a(lib_a-fwrite.o)
__sinit                                           /home/yuzuki/WorkSpace/melis-v3.0/melis-4.x-release/toolchain/riscv64-elf-x86_64-20201104/bin/../lib/gcc/riscv64-unknown-elf/8.4.0/../../../../riscv64-unknown-elf/lib/rv64imafdcxtheadc/lp64d/libc.a(lib_a-findfp.o)
                                                  /home/yuzuki/WorkSpace/melis-v3.0/melis-4.x-release/toolchain/riscv64-elf-x86_64-20201104/bin/../lib/gcc/riscv64-unknown-elf/8.4.0/../../../../riscv64-unknown-elf/lib/rv64imafdcxtheadc/lp64d/libc.a(lib_a-wsetup.o)
                                                  /home/yuzuki/WorkSpace/melis-v3.0/melis-4.x-release/toolchain/riscv64-elf-x86_64-20201104/bin/../lib/gcc/riscv64-unknown-elf/8.4.0/../../../../riscv64-unknown-elf/lib/rv64imafdcxtheadc/lp64d/libc.a(lib_a-refill.o)
                                                  /home/yuzuki/WorkSpace/melis-v3.0/melis-4.x-release/toolchain/riscv64-elf-x86_64-20201104/bin/../lib/gcc/riscv64-unknown-elf/8.4.0/../../../../riscv64-unknown-elf/lib/rv64imafdcxtheadc/lp64d/libc.a(lib_a-fwrite.o)
                                                  /home/yuzuki/WorkSpace/melis-v3.0/melis-4.x-release/toolchain/riscv64-elf-x86_64-20201104/bin/../lib/gcc/riscv64-unknown-elf/8.4.0/../../../../riscv64-unknown-elf/lib/rv64imafdcxtheadc/lp64d/libc.a(lib_a-fseeko.o)
                                                  /home/yuzuki/WorkSpace/melis-v3.0/melis-4.x-release/toolchain/riscv64-elf-x86_64-20201104/bin/../lib/gcc/riscv64-unknown-elf/8.4.0/../../../../riscv64-unknown-elf/lib/rv64imafdcxtheadc/lp64d/libc.a(lib_a-fflush.o)
                                                  /home/yuzuki/WorkSpace/melis-v3.0/melis-4.x-release/toolchain/riscv64-elf-x86_64-20201104/bin/../lib/gcc/riscv64-unknown-elf/8.4.0/../../../../riscv64-unknown-elf/lib/rv64imafdcxtheadc/lp64d/libc.a(lib_a-fclose.o)
__sinit_lock_acquire                              /home/yuzuki/WorkSpace/melis-v3.0/melis-4.x-release/toolchain/riscv64-elf-x86_64-20201104/bin/../lib/gcc/riscv64-unknown-elf/8.4.0/../../../../riscv64-unknown-elf/lib/rv64imafdcxtheadc/lp64d/libc.a(lib_a-findfp.o)
__sinit_lock_release                              /home/yuzuki/WorkSpace/melis-v3.0/melis-4.x-release/toolchain/riscv64-elf-x86_64-20201104/bin/../lib/gcc/riscv64-unknown-elf/8.4.0/../../../../riscv64-unknown-elf/lib/rv64imafdcxtheadc/lp64d/libc.a(lib_a-findfp.o)
__smakebuf_r                                      /home/yuzuki/WorkSpace/melis-v3.0/melis-4.x-release/toolchain/riscv64-elf-x86_64-20201104/bin/../lib/gcc/riscv64-unknown-elf/8.4.0/../../../../riscv64-unknown-elf/lib/rv64imafdcxtheadc/lp64d/libc.a(lib_a-makebuf.o)
                                                  /home/yuzuki/WorkSpace/melis-v3.0/melis-4.x-release/toolchain/riscv64-elf-x86_64-20201104/bin/../lib/gcc/riscv64-unknown-elf/8.4.0/../../../../riscv64-unknown-elf/lib/rv64imafdcxtheadc/lp64d/libc.a(lib_a-wsetup.o)
                                                  /home/yuzuki/WorkSpace/melis-v3.0/melis-4.x-release/toolchain/riscv64-elf-x86_64-20201104/bin/../lib/gcc/riscv64-unknown-elf/8.4.0/../../../../riscv64-unknown-elf/lib/rv64imafdcxtheadc/lp64d/libc.a(lib_a-refill.o)
                                                  /home/yuzuki/WorkSpace/melis-v3.0/melis-4.x-release/toolchain/riscv64-elf-x86_64-20201104/bin/../lib/gcc/riscv64-unknown-elf/8.4.0/../../../../riscv64-unknown-elf/lib/rv64imafdcxtheadc/lp64d/libc.a(lib_a-fseeko.o)
__sread                                           /home/yuzuki/WorkSpace/melis-v3.0/melis-4.x-release/toolchain/riscv64-elf-x86_64-20201104/bin/../lib/gcc/riscv64-unknown-elf/8.4.0/../../../../riscv64-unknown-elf/lib/rv64imafdcxtheadc/lp64d/libc.a(lib_a-stdio.o)
                                                  /home/yuzuki/WorkSpace/melis-v3.0/melis-4.x-release/toolchain/riscv64-elf-x86_64-20201104/bin/../lib/gcc/riscv64-unknown-elf/8.4.0/../../../../riscv64-unknown-elf/lib/rv64imafdcxtheadc/lp64d/libc.a(lib_a-fopen.o)
                                                  /home/yuzuki/WorkSpace/melis-v3.0/melis-4.x-release/toolchain/riscv64-elf-x86_64-20201104/bin/../lib/gcc/riscv64-unknown-elf/8.4.0/../../../../riscv64-unknown-elf/lib/rv64imafdcxtheadc/lp64d/libc.a(lib_a-findfp.o)
__srefill_r                                       /home/yuzuki/WorkSpace/melis-v3.0/melis-4.x-release/toolchain/riscv64-elf-x86_64-20201104/bin/../lib/gcc/riscv64-unknown-elf/8.4.0/../../../../riscv64-unknown-elf/lib/rv64imafdcxtheadc/lp64d/libc.a(lib_a-refill.o)
                                                  /home/yuzuki/WorkSpace/melis-v3.0/melis-4.x-release/toolchain/riscv64-elf-x86_64-20201104/bin/../lib/gcc/riscv64-unknown-elf/8.4.0/../../../../riscv64-unknown-elf/lib/rv64imafdcxtheadc/lp64d/libc.a(lib_a-fseeko.o)
__sseek                                           /home/yuzuki/WorkSpace/melis-v3.0/melis-4.x-release/toolchain/riscv64-elf-x86_64-20201104/bin/../lib/gcc/riscv64-unknown-elf/8.4.0/../../../../riscv64-unknown-elf/lib/rv64imafdcxtheadc/lp64d/libc.a(lib_a-stdio.o)
                                                  /home/yuzuki/WorkSpace/melis-v3.0/melis-4.x-release/toolchain/riscv64-elf-x86_64-20201104/bin/../lib/gcc/riscv64-unknown-elf/8.4.0/../../../../riscv64-unknown-elf/lib/rv64imafdcxtheadc/lp64d/libc.a(lib_a-fseeko.o)
                                                  /home/yuzuki/WorkSpace/melis-v3.0/melis-4.x-release/toolchain/riscv64-elf-x86_64-20201104/bin/../lib/gcc/riscv64-unknown-elf/8.4.0/../../../../riscv64-unknown-elf/lib/rv64imafdcxtheadc/lp64d/libc.a(lib_a-fopen.o)
                                                  /home/yuzuki/WorkSpace/melis-v3.0/melis-4.x-release/toolchain/riscv64-elf-x86_64-20201104/bin/../lib/gcc/riscv64-unknown-elf/8.4.0/../../../../riscv64-unknown-elf/lib/rv64imafdcxtheadc/lp64d/libc.a(lib_a-findfp.o)
__swhatbuf_r                                      /home/yuzuki/WorkSpace/melis-v3.0/melis-4.x-release/toolchain/riscv64-elf-x86_64-20201104/bin/../lib/gcc/riscv64-unknown-elf/8.4.0/../../../../riscv64-unknown-elf/lib/rv64imafdcxtheadc/lp64d/libc.a(lib_a-makebuf.o)
__swrite                                          /home/yuzuki/WorkSpace/melis-v3.0/melis-4.x-release/toolchain/riscv64-elf-x86_64-20201104/bin/../lib/gcc/riscv64-unknown-elf/8.4.0/../../../../riscv64-unknown-elf/lib/rv64imafdcxtheadc/lp64d/libc.a(lib_a-stdio.o)
                                                  /home/yuzuki/WorkSpace/melis-v3.0/melis-4.x-release/toolchain/riscv64-elf-x86_64-20201104/bin/../lib/gcc/riscv64-unknown-elf/8.4.0/../../../../riscv64-unknown-elf/lib/rv64imafdcxtheadc/lp64d/libc.a(lib_a-fopen.o)
                                                  /home/yuzuki/WorkSpace/melis-v3.0/melis-4.x-release/toolchain/riscv64-elf-x86_64-20201104/bin/../lib/gcc/riscv64-unknown-elf/8.4.0/../../../../riscv64-unknown-elf/lib/rv64imafdcxtheadc/lp64d/libc.a(lib_a-findfp.o)
__swsetup_r                                       /home/yuzuki/WorkSpace/melis-v3.0/melis-4.x-release/toolchain/riscv64-elf-x86_64-20201104/bin/../lib/gcc/riscv64-unknown-elf/8.4.0/../../../../riscv64-unknown-elf/lib/rv64imafdcxtheadc/lp64d/libc.a(lib_a-wsetup.o)
                                                  /home/yuzuki/WorkSpace/melis-v3.0/melis-4.x-release/toolchain/riscv64-elf-x86_64-20201104/bin/../lib/gcc/riscv64-unknown-elf/8.4.0/../../../../riscv64-unknown-elf/lib/rv64imafdcxtheadc/lp64d/libc.a(lib_a-fvwrite.o)
_calloc_r                                         ./elibrary/bin//libsyscall.a(syscall_fops.o)
_cleanup                                          /home/yuzuki/WorkSpace/melis-v3.0/melis-4.x-release/toolchain/riscv64-elf-x86_64-20201104/bin/../lib/gcc/riscv64-unknown-elf/8.4.0/../../../../riscv64-unknown-elf/lib/rv64imafdcxtheadc/lp64d/libc.a(lib_a-findfp.o)
_cleanup_r                                        /home/yuzuki/WorkSpace/melis-v3.0/melis-4.x-release/toolchain/riscv64-elf-x86_64-20201104/bin/../lib/gcc/riscv64-unknown-elf/8.4.0/../../../../riscv64-unknown-elf/lib/rv64imafdcxtheadc/lp64d/libc.a(lib_a-findfp.o)
                                                  /home/yuzuki/WorkSpace/melis-v3.0/melis-4.x-release/toolchain/riscv64-elf-x86_64-20201104/bin/../lib/gcc/riscv64-unknown-elf/8.4.0/../../../../riscv64-unknown-elf/lib/rv64imafdcxtheadc/lp64d/libc.a(lib_a-makebuf.o)
_close_r                                          ./elibrary/bin//libsyscall.a(syscall_fops.o)
                                                  /home/yuzuki/WorkSpace/melis-v3.0/melis-4.x-release/toolchain/riscv64-elf-x86_64-20201104/bin/../lib/gcc/riscv64-unknown-elf/8.4.0/../../../../riscv64-unknown-elf/lib/rv64imafdcxtheadc/lp64d/libc.a(lib_a-sysclose.o)
                                                  /home/yuzuki/WorkSpace/melis-v3.0/melis-4.x-release/toolchain/riscv64-elf-x86_64-20201104/bin/../lib/gcc/riscv64-unknown-elf/8.4.0/../../../../riscv64-unknown-elf/lib/rv64imafdcxtheadc/lp64d/libc.a(lib_a-stdio.o)
_exit                                             ./elibrary/bin//libminic.a(elibs_stdlib.o)
_fclose_r                                         /home/yuzuki/WorkSpace/melis-v3.0/melis-4.x-release/toolchain/riscv64-elf-x86_64-20201104/bin/../lib/gcc/riscv64-unknown-elf/8.4.0/../../../../riscv64-unknown-elf/lib/rv64imafdcxtheadc/lp64d/libc.a(lib_a-fclose.o)
                                                  /home/yuzuki/WorkSpace/melis-v3.0/melis-4.x-release/toolchain/riscv64-elf-x86_64-20201104/bin/../lib/gcc/riscv64-unknown-elf/8.4.0/../../../../riscv64-unknown-elf/lib/rv64imafdcxtheadc/lp64d/libc.a(lib_a-findfp.o)
_fflush_r                                         /home/yuzuki/WorkSpace/melis-v3.0/melis-4.x-release/toolchain/riscv64-elf-x86_64-20201104/bin/../lib/gcc/riscv64-unknown-elf/8.4.0/../../../../riscv64-unknown-elf/lib/rv64imafdcxtheadc/lp64d/libc.a(lib_a-fflush.o)
                                                  /home/yuzuki/WorkSpace/melis-v3.0/melis-4.x-release/toolchain/riscv64-elf-x86_64-20201104/bin/../lib/gcc/riscv64-unknown-elf/8.4.0/../../../../riscv64-unknown-elf/lib/rv64imafdcxtheadc/lp64d/libc.a(lib_a-fvwrite.o)
                                                  /home/yuzuki/WorkSpace/melis-v3.0/melis-4.x-release/toolchain/riscv64-elf-x86_64-20201104/bin/../lib/gcc/riscv64-unknown-elf/8.4.0/../../../../riscv64-unknown-elf/lib/rv64imafdcxtheadc/lp64d/libc.a(lib_a-refill.o)
                                                  /home/yuzuki/WorkSpace/melis-v3.0/melis-4.x-release/toolchain/riscv64-elf-x86_64-20201104/bin/../lib/gcc/riscv64-unknown-elf/8.4.0/../../../../riscv64-unknown-elf/lib/rv64imafdcxtheadc/lp64d/libc.a(lib_a-fseeko.o)
_fopen_r                                          /home/yuzuki/WorkSpace/melis-v3.0/melis-4.x-release/toolchain/riscv64-elf-x86_64-20201104/bin/../lib/gcc/riscv64-unknown-elf/8.4.0/../../../../riscv64-unknown-elf/lib/rv64imafdcxtheadc/lp64d/libc.a(lib_a-fopen.o)
_free_r                                           ./elibrary/bin//libsyscall.a(syscall_fops.o)
                                                  /home/yuzuki/WorkSpace/melis-v3.0/melis-4.x-release/toolchain/riscv64-elf-x86_64-20201104/bin/../lib/gcc/riscv64-unknown-elf/8.4.0/../../../../riscv64-unknown-elf/lib/rv64imafdcxtheadc/lp64d/libc.a(lib_a-wsetup.o)
                                                  /home/yuzuki/WorkSpace/melis-v3.0/melis-4.x-release/toolchain/riscv64-elf-x86_64-20201104/bin/../lib/gcc/riscv64-unknown-elf/8.4.0/../../../../riscv64-unknown-elf/lib/rv64imafdcxtheadc/lp64d/libc.a(lib_a-fvwrite.o)
                                                  /home/yuzuki/WorkSpace/melis-v3.0/melis-4.x-release/toolchain/riscv64-elf-x86_64-20201104/bin/../lib/gcc/riscv64-unknown-elf/8.4.0/../../../../riscv64-unknown-elf/lib/rv64imafdcxtheadc/lp64d/libc.a(lib_a-refill.o)
                                                  /home/yuzuki/WorkSpace/melis-v3.0/melis-4.x-release/toolchain/riscv64-elf-x86_64-20201104/bin/../lib/gcc/riscv64-unknown-elf/8.4.0/../../../../riscv64-unknown-elf/lib/rv64imafdcxtheadc/lp64d/libc.a(lib_a-fseeko.o)
                                                  /home/yuzuki/WorkSpace/melis-v3.0/melis-4.x-release/toolchain/riscv64-elf-x86_64-20201104/bin/../lib/gcc/riscv64-unknown-elf/8.4.0/../../../../riscv64-unknown-elf/lib/rv64imafdcxtheadc/lp64d/libc.a(lib_a-fflush.o)
                                                  /home/yuzuki/WorkSpace/melis-v3.0/melis-4.x-release/toolchain/riscv64-elf-x86_64-20201104/bin/../lib/gcc/riscv64-unknown-elf/8.4.0/../../../../riscv64-unknown-elf/lib/rv64imafdcxtheadc/lp64d/libc.a(lib_a-fclose.o)
_fseek_r                                          /home/yuzuki/WorkSpace/melis-v3.0/melis-4.x-release/toolchain/riscv64-elf-x86_64-20201104/bin/../lib/gcc/riscv64-unknown-elf/8.4.0/../../../../riscv64-unknown-elf/lib/rv64imafdcxtheadc/lp64d/libc.a(lib_a-fseek.o)
                                                  /home/yuzuki/WorkSpace/melis-v3.0/melis-4.x-release/toolchain/riscv64-elf-x86_64-20201104/bin/../lib/gcc/riscv64-unknown-elf/8.4.0/../../../../riscv64-unknown-elf/lib/rv64imafdcxtheadc/lp64d/libc.a(lib_a-fopen.o)
_fseeko_r                                         /home/yuzuki/WorkSpace/melis-v3.0/melis-4.x-release/toolchain/riscv64-elf-x86_64-20201104/bin/../lib/gcc/riscv64-unknown-elf/8.4.0/../../../../riscv64-unknown-elf/lib/rv64imafdcxtheadc/lp64d/libc.a(lib_a-fseeko.o)
                                                  /home/yuzuki/WorkSpace/melis-v3.0/melis-4.x-release/toolchain/riscv64-elf-x86_64-20201104/bin/../lib/gcc/riscv64-unknown-elf/8.4.0/../../../../riscv64-unknown-elf/lib/rv64imafdcxtheadc/lp64d/libc.a(lib_a-fseek.o)
_fstat_r                                          ./elibrary/bin//libsyscall.a(syscall_fops.o)
                                                  /home/yuzuki/WorkSpace/melis-v3.0/melis-4.x-release/toolchain/riscv64-elf-x86_64-20201104/bin/../lib/gcc/riscv64-unknown-elf/8.4.0/../../../../riscv64-unknown-elf/lib/rv64imafdcxtheadc/lp64d/libc.a(lib_a-makebuf.o)
                                                  /home/yuzuki/WorkSpace/melis-v3.0/melis-4.x-release/toolchain/riscv64-elf-x86_64-20201104/bin/../lib/gcc/riscv64-unknown-elf/8.4.0/../../../../riscv64-unknown-elf/lib/rv64imafdcxtheadc/lp64d/libc.a(lib_a-fseeko.o)
_fwalk                                            /home/yuzuki/WorkSpace/melis-v3.0/melis-4.x-release/toolchain/riscv64-elf-x86_64-20201104/bin/../lib/gcc/riscv64-unknown-elf/8.4.0/../../../../riscv64-unknown-elf/lib/rv64imafdcxtheadc/lp64d/libc.a(lib_a-fwalk.o)
                                                  /home/yuzuki/WorkSpace/melis-v3.0/melis-4.x-release/toolchain/riscv64-elf-x86_64-20201104/bin/../lib/gcc/riscv64-unknown-elf/8.4.0/../../../../riscv64-unknown-elf/lib/rv64imafdcxtheadc/lp64d/libc.a(lib_a-refill.o)
                                                  /home/yuzuki/WorkSpace/melis-v3.0/melis-4.x-release/toolchain/riscv64-elf-x86_64-20201104/bin/../lib/gcc/riscv64-unknown-elf/8.4.0/../../../../riscv64-unknown-elf/lib/rv64imafdcxtheadc/lp64d/libc.a(lib_a-findfp.o)
_fwalk_reent                                      /home/yuzuki/WorkSpace/melis-v3.0/melis-4.x-release/toolchain/riscv64-elf-x86_64-20201104/bin/../lib/gcc/riscv64-unknown-elf/8.4.0/../../../../riscv64-unknown-elf/lib/rv64imafdcxtheadc/lp64d/libc.a(lib_a-fwalk.o)
                                                  /home/yuzuki/WorkSpace/melis-v3.0/melis-4.x-release/toolchain/riscv64-elf-x86_64-20201104/bin/../lib/gcc/riscv64-unknown-elf/8.4.0/../../../../riscv64-unknown-elf/lib/rv64imafdcxtheadc/lp64d/libc.a(lib_a-findfp.o)
                                                  /home/yuzuki/WorkSpace/melis-v3.0/melis-4.x-release/toolchain/riscv64-elf-x86_64-20201104/bin/../lib/gcc/riscv64-unknown-elf/8.4.0/../../../../riscv64-unknown-elf/lib/rv64imafdcxtheadc/lp64d/libc.a(lib_a-fflush.o)
_fwrite_r                                         /home/yuzuki/WorkSpace/melis-v3.0/melis-4.x-release/toolchain/riscv64-elf-x86_64-20201104/bin/../lib/gcc/riscv64-unknown-elf/8.4.0/../../../../riscv64-unknown-elf/lib/rv64imafdcxtheadc/lp64d/libc.a(lib_a-fwrite.o)
_getpid                                           ./elibrary/bin//libminic.a(elibs_stdlib.o)
_gettimeofday_r                                   ./elibrary/bin//libsyscall.a(syscall_fops.o)
_global_impure_ptr                                /home/yuzuki/WorkSpace/melis-v3.0/melis-4.x-release/toolchain/riscv64-elf-x86_64-20201104/bin/../lib/gcc/riscv64-unknown-elf/8.4.0/../../../../riscv64-unknown-elf/lib/rv64imafdcxtheadc/lp64d/libc.a(lib_a-impure.o)
                                                  /home/yuzuki/WorkSpace/melis-v3.0/melis-4.x-release/toolchain/riscv64-elf-x86_64-20201104/bin/../lib/gcc/riscv64-unknown-elf/8.4.0/../../../../riscv64-unknown-elf/lib/rv64imafdcxtheadc/lp64d/libc.a(lib_a-refill.o)
                                                  /home/yuzuki/WorkSpace/melis-v3.0/melis-4.x-release/toolchain/riscv64-elf-x86_64-20201104/bin/../lib/gcc/riscv64-unknown-elf/8.4.0/../../../../riscv64-unknown-elf/lib/rv64imafdcxtheadc/lp64d/libc.a(lib_a-findfp.o)
                                                  /home/yuzuki/WorkSpace/melis-v3.0/melis-4.x-release/toolchain/riscv64-elf-x86_64-20201104/bin/../lib/gcc/riscv64-unknown-elf/8.4.0/../../../../riscv64-unknown-elf/lib/rv64imafdcxtheadc/lp64d/libc.a(lib_a-fflush.o)
_impure_ptr                                       /home/yuzuki/WorkSpace/melis-v3.0/melis-4.x-release/toolchain/riscv64-elf-x86_64-20201104/bin/../lib/gcc/riscv64-unknown-elf/8.4.0/../../../../riscv64-unknown-elf/lib/rv64imafdcxtheadc/lp64d/libc.a(lib_a-impure.o)
                                                  /home/yuzuki/WorkSpace/melis-v3.0/melis-4.x-release/toolchain/riscv64-elf-x86_64-20201104/bin/../lib/gcc/riscv64-unknown-elf/8.4.0/../../../../riscv64-unknown-elf/lib/rv64imafdcxtheadc/lp64d/libc.a(lib_a-wsetup.o)
                                                  /home/yuzuki/WorkSpace/melis-v3.0/melis-4.x-release/toolchain/riscv64-elf-x86_64-20201104/bin/../lib/gcc/riscv64-unknown-elf/8.4.0/../../../../riscv64-unknown-elf/lib/rv64imafdcxtheadc/lp64d/libc.a(lib_a-sysopen.o)
                                                  /home/yuzuki/WorkSpace/melis-v3.0/melis-4.x-release/toolchain/riscv64-elf-x86_64-20201104/bin/../lib/gcc/riscv64-unknown-elf/8.4.0/../../../../riscv64-unknown-elf/lib/rv64imafdcxtheadc/lp64d/libc.a(lib_a-sysclose.o)
                                                  /home/yuzuki/WorkSpace/melis-v3.0/melis-4.x-release/toolchain/riscv64-elf-x86_64-20201104/bin/../lib/gcc/riscv64-unknown-elf/8.4.0/../../../../riscv64-unknown-elf/lib/rv64imafdcxtheadc/lp64d/libc.a(lib_a-fwrite.o)
                                                  /home/yuzuki/WorkSpace/melis-v3.0/melis-4.x-release/toolchain/riscv64-elf-x86_64-20201104/bin/../lib/gcc/riscv64-unknown-elf/8.4.0/../../../../riscv64-unknown-elf/lib/rv64imafdcxtheadc/lp64d/libc.a(lib_a-fseeko.o)
                                                  /home/yuzuki/WorkSpace/melis-v3.0/melis-4.x-release/toolchain/riscv64-elf-x86_64-20201104/bin/../lib/gcc/riscv64-unknown-elf/8.4.0/../../../../riscv64-unknown-elf/lib/rv64imafdcxtheadc/lp64d/libc.a(lib_a-fseek.o)
                                                  /home/yuzuki/WorkSpace/melis-v3.0/melis-4.x-release/toolchain/riscv64-elf-x86_64-20201104/bin/../lib/gcc/riscv64-unknown-elf/8.4.0/../../../../riscv64-unknown-elf/lib/rv64imafdcxtheadc/lp64d/libc.a(lib_a-fopen.o)
                                                  /home/yuzuki/WorkSpace/melis-v3.0/melis-4.x-release/toolchain/riscv64-elf-x86_64-20201104/bin/../lib/gcc/riscv64-unknown-elf/8.4.0/../../../../riscv64-unknown-elf/lib/rv64imafdcxtheadc/lp64d/libc.a(lib_a-findfp.o)
                                                  /home/yuzuki/WorkSpace/melis-v3.0/melis-4.x-release/toolchain/riscv64-elf-x86_64-20201104/bin/../lib/gcc/riscv64-unknown-elf/8.4.0/../../../../riscv64-unknown-elf/lib/rv64imafdcxtheadc/lp64d/libc.a(lib_a-fflush.o)
                                                  /home/yuzuki/WorkSpace/melis-v3.0/melis-4.x-release/toolchain/riscv64-elf-x86_64-20201104/bin/../lib/gcc/riscv64-unknown-elf/8.4.0/../../../../riscv64-unknown-elf/lib/rv64imafdcxtheadc/lp64d/libc.a(lib_a-fclose.o)
_isatty                                           ./elibrary/bin//libsyscall.a(syscall_fops.o)
_isatty_r                                         ./elibrary/bin//libsyscall.a(syscall_fops.o)
                                                  /home/yuzuki/WorkSpace/melis-v3.0/melis-4.x-release/toolchain/riscv64-elf-x86_64-20201104/bin/../lib/gcc/riscv64-unknown-elf/8.4.0/../../../../riscv64-unknown-elf/lib/rv64imafdcxtheadc/lp64d/libc.a(lib_a-makebuf.o)
_kill                                             ./elibrary/bin//libminic.a(elibs_stdlib.o)
_lseek_r                                          ./elibrary/bin//libsyscall.a(syscall_fops.o)
                                                  /home/yuzuki/WorkSpace/melis-v3.0/melis-4.x-release/toolchain/riscv64-elf-x86_64-20201104/bin/../lib/gcc/riscv64-unknown-elf/8.4.0/../../../../riscv64-unknown-elf/lib/rv64imafdcxtheadc/lp64d/libc.a(lib_a-stdio.o)
_malloc_r                                         ./elibrary/bin//libsyscall.a(syscall_fops.o)
                                                  /home/yuzuki/WorkSpace/melis-v3.0/melis-4.x-release/toolchain/riscv64-elf-x86_64-20201104/bin/../lib/gcc/riscv64-unknown-elf/8.4.0/../../../../riscv64-unknown-elf/lib/rv64imafdcxtheadc/lp64d/libc.a(lib_a-fvwrite.o)
                                                  /home/yuzuki/WorkSpace/melis-v3.0/melis-4.x-release/toolchain/riscv64-elf-x86_64-20201104/bin/../lib/gcc/riscv64-unknown-elf/8.4.0/../../../../riscv64-unknown-elf/lib/rv64imafdcxtheadc/lp64d/libc.a(lib_a-makebuf.o)
                                                  /home/yuzuki/WorkSpace/melis-v3.0/melis-4.x-release/toolchain/riscv64-elf-x86_64-20201104/bin/../lib/gcc/riscv64-unknown-elf/8.4.0/../../../../riscv64-unknown-elf/lib/rv64imafdcxtheadc/lp64d/libc.a(lib_a-findfp.o)
_mkdir_r                                          ./elibrary/bin//libsyscall.a(syscall_fops.o)
_open_r                                           ./elibrary/bin//libsyscall.a(syscall_fops.o)
                                                  /home/yuzuki/WorkSpace/melis-v3.0/melis-4.x-release/toolchain/riscv64-elf-x86_64-20201104/bin/../lib/gcc/riscv64-unknown-elf/8.4.0/../../../../riscv64-unknown-elf/lib/rv64imafdcxtheadc/lp64d/libc.a(lib_a-sysopen.o)
                                                  /home/yuzuki/WorkSpace/melis-v3.0/melis-4.x-release/toolchain/riscv64-elf-x86_64-20201104/bin/../lib/gcc/riscv64-unknown-elf/8.4.0/../../../../riscv64-unknown-elf/lib/rv64imafdcxtheadc/lp64d/libc.a(lib_a-fopen.o)
_read_r                                           ./elibrary/bin//libsyscall.a(syscall_fops.o)
                                                  /home/yuzuki/WorkSpace/melis-v3.0/melis-4.x-release/toolchain/riscv64-elf-x86_64-20201104/bin/../lib/gcc/riscv64-unknown-elf/8.4.0/../../../../riscv64-unknown-elf/lib/rv64imafdcxtheadc/lp64d/libc.a(lib_a-stdio.o)
_realloc_r                                        ./elibrary/bin//libsyscall.a(syscall_fops.o)
                                                  /home/yuzuki/WorkSpace/melis-v3.0/melis-4.x-release/toolchain/riscv64-elf-x86_64-20201104/bin/../lib/gcc/riscv64-unknown-elf/8.4.0/../../../../riscv64-unknown-elf/lib/rv64imafdcxtheadc/lp64d/libc.a(lib_a-fvwrite.o)
_rename_r                                         ./elibrary/bin//libsyscall.a(syscall_fops.o)
_sbrk                                             ./elibrary/bin//libminic.a(elibs_stdlib.o)
_stat_r                                           ./elibrary/bin//libsyscall.a(syscall_fops.o)
_system                                           ./elibrary/bin//libsyscall.a(syscall_fops.o)
_unlink_r                                         ./elibrary/bin//libsyscall.a(syscall_fops.o)
_write                                            ./elibrary/bin//libminic.a(elibs_stdlib.o)
_write_r                                          ./elibrary/bin//libsyscall.a(syscall_fops.o)
                                                  /home/yuzuki/WorkSpace/melis-v3.0/melis-4.x-release/toolchain/riscv64-elf-x86_64-20201104/bin/../lib/gcc/riscv64-unknown-elf/8.4.0/../../../../riscv64-unknown-elf/lib/rv64imafdcxtheadc/lp64d/libc.a(lib_a-stdio.o)
activity_all_able_standby                         livedesk/beetles/mod_desktop/framework/built-in.o
                                                  livedesk/beetles/mod_desktop/desktop_api.o
activity_background_top                           livedesk/beetles/mod_desktop/framework/built-in.o
                                                  livedesk/beetles/mod_desktop/desktop_api.o
activity_deinit                                   livedesk/beetles/mod_desktop/framework/built-in.o
activity_finish                                   livedesk/beetles/mod_desktop/framework/built-in.o
                                                  livedesk/beetles/mod_desktop/desktop_api.o
activity_finish_all                               livedesk/beetles/mod_desktop/framework/built-in.o
                                                  livedesk/beetles/mod_desktop/desktop_api.o
activity_get_attr                                 livedesk/beetles/mod_desktop/framework/built-in.o
                                                  livedesk/beetles/mod_desktop/desktop_api.o
activity_get_load_para                            livedesk/beetles/mod_desktop/framework/built-in.o
                                                  livedesk/beetles/mod_desktop/desktop_api.o
activity_get_plugin                               livedesk/beetles/mod_desktop/framework/built-in.o
activity_get_root_win                             livedesk/beetles/mod_desktop/framework/built-in.o
                                                  livedesk/beetles/mod_desktop/desktop_api.o
activity_init                                     livedesk/beetles/mod_desktop/framework/built-in.o
activity_load_app                                 livedesk/beetles/mod_desktop/framework/built-in.o
                                                  livedesk/beetles/mod_desktop/desktop_api.o
activity_load_file                                livedesk/beetles/mod_desktop/framework/built-in.o
                                                  livedesk/beetles/mod_desktop/desktop_api.o
activity_manager_add_backgrd                      livedesk/beetles/mod_desktop/framework/built-in.o
                                                  livedesk/beetles/mod_desktop/desktop_api.o
activity_manager_backgrd_to_top                   livedesk/beetles/mod_desktop/framework/built-in.o
                                                  livedesk/beetles/mod_desktop/desktop_api.o
activity_manager_create                           livedesk/beetles/mod_desktop/framework/built-in.o
                                                  livedesk/beetles/mod_desktop/desktop_api.o
activity_manager_delete_backgrd                   livedesk/beetles/mod_desktop/framework/built-in.o
                                                  livedesk/beetles/mod_desktop/desktop_api.o
activity_manager_destroy                          livedesk/beetles/mod_desktop/framework/built-in.o
                                                  livedesk/beetles/mod_desktop/desktop_api.o
activity_manager_foreach                          livedesk/beetles/mod_desktop/framework/built-in.o
                                                  livedesk/beetles/mod_desktop/desktop_api.o
activity_manager_foreach_backgrd                  livedesk/beetles/mod_desktop/framework/built-in.o
                                                  livedesk/beetles/mod_desktop/desktop_api.o
activity_manager_foreach_suspend                  livedesk/beetles/mod_desktop/framework/built-in.o
                                                  livedesk/beetles/mod_desktop/desktop_api.o
activity_manager_get_default                      livedesk/beetles/mod_desktop/framework/built-in.o
                                                  livedesk/beetles/mod_desktop/desktop_api.o
activity_manager_pop                              livedesk/beetles/mod_desktop/framework/built-in.o
                                                  livedesk/beetles/mod_desktop/desktop_api.o
activity_manager_push                             livedesk/beetles/mod_desktop/framework/built-in.o
                                                  livedesk/beetles/mod_desktop/desktop_api.o
activity_manager_set_default                      livedesk/beetles/mod_desktop/framework/built-in.o
                                                  livedesk/beetles/mod_desktop/desktop_api.o
activity_manager_top                              livedesk/beetles/mod_desktop/framework/built-in.o
                                                  livedesk/beetles/mod_desktop/desktop_api.o
activity_manager_top_to_backgrd                   livedesk/beetles/mod_desktop/framework/built-in.o
                                                  livedesk/beetles/mod_desktop/desktop_api.o
activity_notify_top                               livedesk/beetles/mod_desktop/framework/built-in.o
                                                  livedesk/beetles/mod_desktop/desktop_api.o
activity_resume_top                               livedesk/beetles/mod_desktop/framework/built-in.o
                                                  livedesk/beetles/mod_desktop/desktop_api.o
activity_return_home                              livedesk/beetles/mod_desktop/framework/built-in.o
                                                  livedesk/beetles/mod_desktop/desktop_api.o
activity_set_attr                                 livedesk/beetles/mod_desktop/framework/built-in.o
                                                  livedesk/beetles/mod_desktop/desktop_api.o
activity_set_load_para                            livedesk/beetles/mod_desktop/framework/built-in.o
                                                  livedesk/beetles/mod_desktop/desktop_api.o
activity_suspend_top                              livedesk/beetles/mod_desktop/framework/built-in.o
                                                  livedesk/beetles/mod_desktop/desktop_api.o
applet_info_manager_create                        livedesk/beetles/mod_desktop/framework/built-in.o
                                                  livedesk/beetles/mod_desktop/desktop_api.o
applet_info_manager_destroy                       livedesk/beetles/mod_desktop/framework/built-in.o
                                                  livedesk/beetles/mod_desktop/desktop_api.o
applet_info_manager_foreach                       livedesk/beetles/mod_desktop/framework/built-in.o
applet_info_manager_get                           livedesk/beetles/mod_desktop/framework/built-in.o
                                                  livedesk/beetles/mod_desktop/desktop_api.o
applet_info_manager_get_count                     livedesk/beetles/mod_desktop/framework/built-in.o
                                                  livedesk/beetles/mod_desktop/desktop_api.o
applet_info_manager_get_default                   livedesk/beetles/mod_desktop/framework/built-in.o
                                                  livedesk/beetles/mod_desktop/desktop_api.o
applet_info_manager_load_dir                      livedesk/beetles/mod_desktop/framework/built-in.o
                                                  livedesk/beetles/mod_desktop/desktop_api.o
applet_info_manager_load_file                     livedesk/beetles/mod_desktop/framework/built-in.o
                                                  livedesk/beetles/mod_desktop/desktop_api.o
applet_info_manager_parse                         livedesk/beetles/mod_desktop/framework/built-in.o
applet_info_manager_printf                        livedesk/beetles/mod_desktop/framework/built-in.o
                                                  livedesk/beetles/mod_desktop/desktop_api.o
applet_info_manager_set_defualt                   livedesk/beetles/mod_desktop/framework/built-in.o
                                                  livedesk/beetles/mod_desktop/desktop_api.o
applet_plugin_module_create                       livedesk/beetles/mod_desktop/framework/built-in.o
audio_fclose                                      ./elibrary/bin//libmediainfo.a(audio_fs_direct.o)
                                                  ./elibrary/bin//libmediainfo.a(GetAudio_format.o)
audio_fopen                                       ./elibrary/bin//libmediainfo.a(audio_fs_direct.o)
                                                  ./elibrary/bin//libmediainfo.a(GetAudio_format.o)
audio_fread                                       ./elibrary/bin//libmediainfo.a(audio_fs_direct.o)
                                                  ./elibrary/bin//libmediainfo.a(Tag_APE.o)
                                                  ./elibrary/bin//libmediainfo.a(bitstream.o)
                                                  ./elibrary/bin//libmediainfo.a(AudioInfo_DRA.o)
                                                  ./elibrary/bin//libmediainfo.a(AudioInfo_OGG.o)
                                                  ./elibrary/bin//libmediainfo.a(GetAudio_format.o)
audio_fseek                                       ./elibrary/bin//libmediainfo.a(audio_fs_direct.o)
                                                  ./elibrary/bin//libmediainfo.a(Tag_APE.o)
                                                  ./elibrary/bin//libmediainfo.a(bitstream.o)
                                                  ./elibrary/bin//libmediainfo.a(AudioInfo_DRA.o)
                                                  ./elibrary/bin//libmediainfo.a(AudioInfo_MP3.o)
                                                  ./elibrary/bin//libmediainfo.a(AudioInfo_OGG.o)
                                                  ./elibrary/bin//libmediainfo.a(GetAudio_format.o)
audio_ftell                                       ./elibrary/bin//libmediainfo.a(audio_fs_direct.o)
                                                  ./elibrary/bin//libmediainfo.a(bitstream.o)
audio_fwrite                                      ./elibrary/bin//libmediainfo.a(audio_fs_direct.o)
backtrace                                         ./elibrary/bin//libsyscall.a(syscall.o)
cb_auto_play_next                                 livedesk/beetles/mod_desktop/engine/built-in.o
cb_ctx_auto_play_next                             livedesk/beetles/mod_desktop/engine/built-in.o
cb_ctx_no_item_to_play                            livedesk/beetles/mod_desktop/engine/built-in.o
cb_ctx_search_fail                                livedesk/beetles/mod_desktop/engine/built-in.o
cb_ctx_search_over                                livedesk/beetles/mod_desktop/engine/built-in.o
cb_ctx_search_success                             livedesk/beetles/mod_desktop/engine/built-in.o
cb_no_item_to_play                                livedesk/beetles/mod_desktop/engine/built-in.o
cb_search_fail                                    livedesk/beetles/mod_desktop/engine/built-in.o
cb_search_over                                    livedesk/beetles/mod_desktop/engine/built-in.o
cb_search_success                                 livedesk/beetles/mod_desktop/engine/built-in.o
check_list_file                                   livedesk/beetles/mod_desktop/engine/built-in.o
close                                             /home/yuzuki/WorkSpace/melis-v3.0/melis-4.x-release/toolchain/riscv64-elf-x86_64-20201104/bin/../lib/gcc/riscv64-unknown-elf/8.4.0/../../../../riscv64-unknown-elf/lib/rv64imafdcxtheadc/lp64d/libc.a(lib_a-sysclose.o)
                                                  livedesk/beetles/mod_desktop/functions/built-in.o
                                                  livedesk/beetles/mod_desktop/engine/built-in.o
closedir                                          ./elibrary/bin//libsyscall.a(syscall_fops.o)
dek_radio_get_FM1_3                               livedesk/beetles/mod_desktop/engine/built-in.o
dek_radio_set_FM1_3                               livedesk/beetles/mod_desktop/engine/built-in.o
dek_radio_set_FM1_3_ID                            livedesk/beetles/mod_desktop/engine/built-in.o
desktop_api                                       livedesk/beetles/mod_desktop/desktop_api.o
desktp_data                                       livedesk/beetles/mod_desktop/mod_desktop.o
dsk_amplifier_is_on                               livedesk/beetles/mod_desktop/functions/built-in.o
                                                  livedesk/beetles/mod_desktop/desktop_api.o
dsk_amplifier_onoff                               livedesk/beetles/mod_desktop/functions/built-in.o
                                                  livedesk/beetles/mod_desktop/desktop_api.o
dsk_display_dskfmt2epdkfmt                        livedesk/beetles/mod_desktop/functions/built-in.o
                                                  livedesk/beetles/mod_desktop/desktop_api.o
dsk_display_enhance_demo_disable                  livedesk/beetles/mod_desktop/functions/built-in.o
                                                  livedesk/beetles/mod_desktop/desktop_api.o
dsk_display_enhance_demo_enable                   livedesk/beetles/mod_desktop/functions/built-in.o
                                                  livedesk/beetles/mod_desktop/desktop_api.o
dsk_display_enhance_disable                       livedesk/beetles/mod_desktop/functions/built-in.o
                                                  livedesk/beetles/mod_desktop/desktop_api.o
dsk_display_enhance_enable                        livedesk/beetles/mod_desktop/functions/built-in.o
                                                  livedesk/beetles/mod_desktop/desktop_api.o
dsk_display_epdkfmt2dskfmt                        livedesk/beetles/mod_desktop/functions/built-in.o
                                                  livedesk/beetles/mod_desktop/desktop_api.o
dsk_display_get_backcolor                         livedesk/beetles/mod_desktop/functions/built-in.o
                                                  livedesk/beetles/mod_desktop/desktop_api.o
dsk_display_get_enhance_enable                    livedesk/beetles/mod_desktop/functions/built-in.o
                                                  livedesk/beetles/mod_desktop/desktop_api.o
dsk_display_get_format                            livedesk/beetles/mod_desktop/functions/built-in.o
                                                  livedesk/beetles/mod_desktop/desktop_api.o
dsk_display_get_lcd_bright                        livedesk/beetles/mod_desktop/functions/built-in.o
                                                  livedesk/beetles/mod_desktop/desktop_api.o
dsk_display_get_lcd_brightness                    livedesk/beetles/mod_desktop/functions/built-in.o
                                                  livedesk/beetles/mod_desktop/desktop_api.o
dsk_display_get_lcd_constract                     livedesk/beetles/mod_desktop/functions/built-in.o
                                                  livedesk/beetles/mod_desktop/desktop_api.o
dsk_display_get_lcd_denoise                       livedesk/beetles/mod_desktop/functions/built-in.o
                                                  livedesk/beetles/mod_desktop/desktop_api.o
dsk_display_get_lcd_detail                        livedesk/beetles/mod_desktop/functions/built-in.o
                                                  livedesk/beetles/mod_desktop/desktop_api.o
dsk_display_get_lcd_edge                          livedesk/beetles/mod_desktop/functions/built-in.o
                                                  livedesk/beetles/mod_desktop/desktop_api.o
dsk_display_get_lcd_hue                           livedesk/beetles/mod_desktop/functions/built-in.o
                                                  livedesk/beetles/mod_desktop/desktop_api.o
dsk_display_get_lcd_saturation                    livedesk/beetles/mod_desktop/functions/built-in.o
                                                  livedesk/beetles/mod_desktop/desktop_api.o
dsk_display_get_output_type                       livedesk/beetles/mod_desktop/functions/built-in.o
                                                  livedesk/beetles/mod_desktop/desktop_api.o
dsk_display_get_size                              livedesk/beetles/mod_desktop/functions/built-in.o
                                                  livedesk/beetles/mod_desktop/desktop_api.o
dsk_display_hdmi_audio_enable                     livedesk/beetles/mod_desktop/functions/built-in.o
                                                  livedesk/beetles/mod_desktop/desktop_api.o
dsk_display_lcd_backlight_enable                  livedesk/beetles/mod_desktop/functions/built-in.o
dsk_display_lcd_off                               livedesk/beetles/mod_desktop/functions/built-in.o
                                                  livedesk/beetles/mod_desktop/desktop_api.o
dsk_display_lcd_on                                livedesk/beetles/mod_desktop/functions/built-in.o
                                                  livedesk/beetles/mod_desktop/desktop_api.o
dsk_display_off                                   livedesk/beetles/mod_desktop/functions/built-in.o
                                                  livedesk/beetles/mod_desktop/desktop_api.o
dsk_display_on                                    livedesk/beetles/mod_desktop/functions/built-in.o
                                                  livedesk/beetles/mod_desktop/desktop_api.o
dsk_display_set_backcolor                         livedesk/beetles/mod_desktop/functions/built-in.o
                                                  livedesk/beetles/mod_desktop/desktop_api.o
dsk_display_set_format                            livedesk/beetles/mod_desktop/functions/built-in.o
                                                  livedesk/beetles/mod_desktop/desktop_api.o
dsk_display_set_lcd_bright                        livedesk/beetles/mod_desktop/functions/built-in.o
                                                  livedesk/beetles/mod_desktop/desktop_api.o
dsk_display_set_lcd_brightness                    livedesk/beetles/mod_desktop/functions/built-in.o
                                                  livedesk/beetles/mod_desktop/desktop_api.o
dsk_display_set_lcd_constract                     livedesk/beetles/mod_desktop/functions/built-in.o
                                                  livedesk/beetles/mod_desktop/desktop_api.o
dsk_display_set_lcd_denoise                       livedesk/beetles/mod_desktop/functions/built-in.o
                                                  livedesk/beetles/mod_desktop/desktop_api.o
dsk_display_set_lcd_detail                        livedesk/beetles/mod_desktop/functions/built-in.o
                                                  livedesk/beetles/mod_desktop/desktop_api.o
dsk_display_set_lcd_edge                          livedesk/beetles/mod_desktop/functions/built-in.o
                                                  livedesk/beetles/mod_desktop/desktop_api.o
dsk_display_set_lcd_hue                           livedesk/beetles/mod_desktop/functions/built-in.o
                                                  livedesk/beetles/mod_desktop/desktop_api.o
dsk_display_set_lcd_saturation                    livedesk/beetles/mod_desktop/functions/built-in.o
                                                  livedesk/beetles/mod_desktop/desktop_api.o
dsk_fw_update                                     livedesk/beetles/mod_desktop/functions/built-in.o
                                                  livedesk/beetles/mod_desktop/desktop_api.o
dsk_get_audio_if                                  livedesk/beetles/mod_desktop/functions/built-in.o
                                                  livedesk/beetles/mod_desktop/desktop_api.o
dsk_get_charge_state                              livedesk/beetles/mod_desktop/functions/built-in.o
                                                  livedesk/beetles/mod_desktop/desktop_api.o
dsk_get_fs_charset                                livedesk/beetles/mod_desktop/functions/built-in.o
                                                  livedesk/beetles/mod_desktop/desktop_api.o
dsk_get_isn_charset                               livedesk/beetles/mod_desktop/functions/built-in.o
                                                  livedesk/beetles/mod_desktop/desktop_api.o
dsk_get_langres_charset                           livedesk/beetles/mod_desktop/functions/built-in.o
                                                  livedesk/beetles/mod_desktop/desktop_api.o
dsk_hp_det_pin_det                                livedesk/beetles/mod_desktop/functions/built-in.o
                                                  livedesk/beetles/mod_desktop/desktop_api.o
dsk_keytone_exit                                  livedesk/beetles/mod_desktop/functions/built-in.o
                                                  livedesk/beetles/mod_desktop/desktop_api.o
dsk_keytone_get_key_type                          livedesk/beetles/mod_desktop/functions/built-in.o
                                                  livedesk/beetles/mod_desktop/desktop_api.o
dsk_keytone_get_state                             livedesk/beetles/mod_desktop/functions/built-in.o
                                                  livedesk/beetles/mod_desktop/desktop_api.o
dsk_keytone_init                                  livedesk/beetles/mod_desktop/functions/built-in.o
                                                  livedesk/beetles/mod_desktop/desktop_api.o
dsk_keytone_on                                    livedesk/beetles/mod_desktop/functions/built-in.o
                                                  livedesk/beetles/mod_desktop/desktop_api.o
dsk_keytone_set_key_type                          livedesk/beetles/mod_desktop/functions/built-in.o
                                                  livedesk/beetles/mod_desktop/desktop_api.o
dsk_keytone_set_state                             livedesk/beetles/mod_desktop/functions/built-in.o
                                                  livedesk/beetles/mod_desktop/desktop_api.o
dsk_langres_exit                                  livedesk/beetles/mod_desktop/functions/built-in.o
                                                  livedesk/beetles/mod_desktop/desktop_api.o
dsk_langres_get_menu_len                          livedesk/beetles/mod_desktop/functions/built-in.o
                                                  livedesk/beetles/mod_desktop/desktop_api.o
dsk_langres_get_menu_text                         livedesk/beetles/mod_desktop/functions/built-in.o
                                                  livedesk/beetles/mod_desktop/desktop_api.o
dsk_langres_get_type                              livedesk/beetles/mod_desktop/functions/built-in.o
                                                  livedesk/beetles/mod_desktop/desktop_api.o
dsk_langres_init                                  livedesk/beetles/mod_desktop/functions/built-in.o
                                                  livedesk/beetles/mod_desktop/desktop_api.o
dsk_langres_set_type                              livedesk/beetles/mod_desktop/functions/built-in.o
                                                  livedesk/beetles/mod_desktop/desktop_api.o
dsk_misc_close_rtc_clk                            livedesk/beetles/mod_desktop/engine/built-in.o
dsk_misc_open_rtc_clk                             livedesk/beetles/mod_desktop/engine/built-in.o
dsk_orchid_check                                  livedesk/beetles/mod_desktop/functions/built-in.o
                                                  livedesk/beetles/mod_desktop/desktop_api.o
dsk_orchid_createDisk                             livedesk/beetles/mod_desktop/functions/built-in.o
                                                  livedesk/beetles/mod_desktop/desktop_api.o
dsk_orchid_load_last_npl                          livedesk/beetles/mod_desktop/functions/built-in.o
                                                  livedesk/beetles/mod_desktop/desktop_api.o
dsk_orchid_save_npl                               livedesk/beetles/mod_desktop/functions/built-in.o
                                                  livedesk/beetles/mod_desktop/desktop_api.o
dsk_orchid_update                                 livedesk/beetles/mod_desktop/functions/built-in.o
                                                  livedesk/beetles/mod_desktop/desktop_api.o
dsk_power_dev_init                                livedesk/beetles/mod_desktop/functions/built-in.o
                                                  livedesk/beetles/mod_desktop/desktop_api.o
dsk_power_dev_uninit                              livedesk/beetles/mod_desktop/functions/built-in.o
                                                  livedesk/beetles/mod_desktop/desktop_api.o
dsk_power_get_battary_state                       livedesk/beetles/mod_desktop/functions/built-in.o
                                                  livedesk/beetles/mod_desktop/desktop_api.o
dsk_power_get_battery_level                       livedesk/beetles/mod_desktop/functions/built-in.o
                                                  livedesk/beetles/mod_desktop/desktop_api.o
dsk_power_get_voltage_level                       livedesk/beetles/mod_desktop/functions/built-in.o
                                                  livedesk/beetles/mod_desktop/desktop_api.o
dsk_power_is_full                                 livedesk/beetles/mod_desktop/functions/built-in.o
                                                  livedesk/beetles/mod_desktop/desktop_api.o
dsk_power_is_low                                  livedesk/beetles/mod_desktop/functions/built-in.o
                                                  livedesk/beetles/mod_desktop/desktop_api.o
dsk_power_off                                     livedesk/beetles/mod_desktop/functions/built-in.o
                                                  livedesk/beetles/mod_desktop/desktop_api.o
dsk_power_set_off_time                            livedesk/beetles/mod_desktop/functions/built-in.o
                                                  livedesk/beetles/mod_desktop/desktop_api.o
dsk_radio_close                                   livedesk/beetles/mod_desktop/engine/built-in.o
                                                  livedesk/beetles/mod_desktop/desktop_api.o
dsk_radio_get_audio_mode                          livedesk/beetles/mod_desktop/engine/built-in.o
                                                  livedesk/beetles/mod_desktop/desktop_api.o
dsk_radio_get_band                                livedesk/beetles/mod_desktop/engine/built-in.o
                                                  livedesk/beetles/mod_desktop/desktop_api.o
dsk_radio_get_cb                                  livedesk/beetles/mod_desktop/engine/built-in.o
                                                  livedesk/beetles/mod_desktop/desktop_api.o
dsk_radio_get_max_freq                            livedesk/beetles/mod_desktop/engine/built-in.o
                                                  livedesk/beetles/mod_desktop/desktop_api.o
dsk_radio_get_min_freq                            livedesk/beetles/mod_desktop/engine/built-in.o
                                                  livedesk/beetles/mod_desktop/desktop_api.o
dsk_radio_get_search_flag                         livedesk/beetles/mod_desktop/engine/built-in.o
                                                  livedesk/beetles/mod_desktop/desktop_api.o
dsk_radio_get_vol                                 livedesk/beetles/mod_desktop/engine/built-in.o
                                                  livedesk/beetles/mod_desktop/desktop_api.o
dsk_radio_is_open                                 livedesk/beetles/mod_desktop/engine/built-in.o
                                                  livedesk/beetles/mod_desktop/desktop_api.o
dsk_radio_mute                                    livedesk/beetles/mod_desktop/engine/built-in.o
                                                  livedesk/beetles/mod_desktop/desktop_api.o
dsk_radio_open                                    livedesk/beetles/mod_desktop/engine/built-in.o
                                                  livedesk/beetles/mod_desktop/desktop_api.o
dsk_radio_rcv_add_chan_to_favorite                livedesk/beetles/mod_desktop/engine/built-in.o
                                                  livedesk/beetles/mod_desktop/desktop_api.o
dsk_radio_rcv_auto_search                         livedesk/beetles/mod_desktop/engine/built-in.o
                                                  livedesk/beetles/mod_desktop/desktop_api.o
dsk_radio_rcv_close                               livedesk/beetles/mod_desktop/engine/built-in.o
                                                  livedesk/beetles/mod_desktop/framework/built-in.o
                                                  livedesk/beetles/mod_desktop/desktop_api.o
dsk_radio_rcv_del_chan_from_favorite              livedesk/beetles/mod_desktop/engine/built-in.o
                                                  livedesk/beetles/mod_desktop/desktop_api.o
dsk_radio_rcv_get_cur_freq                        livedesk/beetles/mod_desktop/engine/built-in.o
                                                  livedesk/beetles/mod_desktop/desktop_api.o
dsk_radio_rcv_get_favorite                        livedesk/beetles/mod_desktop/engine/built-in.o
                                                  livedesk/beetles/mod_desktop/desktop_api.o
dsk_radio_rcv_get_favorite_chaninfo               livedesk/beetles/mod_desktop/engine/built-in.o
                                                  livedesk/beetles/mod_desktop/desktop_api.o
dsk_radio_rcv_get_favorite_vn                     livedesk/beetles/mod_desktop/engine/built-in.o
                                                  livedesk/beetles/mod_desktop/desktop_api.o
dsk_radio_rcv_get_play_list_type                  livedesk/beetles/mod_desktop/engine/built-in.o
                                                  livedesk/beetles/mod_desktop/desktop_api.o
dsk_radio_rcv_get_search_result                   livedesk/beetles/mod_desktop/engine/built-in.o
                                                  livedesk/beetles/mod_desktop/desktop_api.o
dsk_radio_rcv_get_search_result_chaninfo          livedesk/beetles/mod_desktop/engine/built-in.o
                                                  livedesk/beetles/mod_desktop/desktop_api.o
dsk_radio_rcv_get_search_result_vn                livedesk/beetles/mod_desktop/engine/built-in.o
                                                  livedesk/beetles/mod_desktop/desktop_api.o
dsk_radio_rcv_is_open                             livedesk/beetles/mod_desktop/engine/built-in.o
                                                  livedesk/beetles/mod_desktop/framework/built-in.o
                                                  livedesk/beetles/mod_desktop/desktop_api.o
dsk_radio_rcv_next_freq_play                      livedesk/beetles/mod_desktop/engine/built-in.o
                                                  livedesk/beetles/mod_desktop/desktop_api.o
dsk_radio_rcv_open                                livedesk/beetles/mod_desktop/engine/built-in.o
                                                  livedesk/beetles/mod_desktop/desktop_api.o
dsk_radio_rcv_pre_freq_play                       livedesk/beetles/mod_desktop/engine/built-in.o
                                                  livedesk/beetles/mod_desktop/desktop_api.o
dsk_radio_rcv_save_cur_freq                       livedesk/beetles/mod_desktop/engine/built-in.o
                                                  livedesk/beetles/mod_desktop/desktop_api.o
dsk_radio_rcv_save_favorite                       livedesk/beetles/mod_desktop/engine/built-in.o
                                                  livedesk/beetles/mod_desktop/desktop_api.o
dsk_radio_rcv_save_search_result                  livedesk/beetles/mod_desktop/engine/built-in.o
                                                  livedesk/beetles/mod_desktop/desktop_api.o
dsk_radio_rcv_search_all                          livedesk/beetles/mod_desktop/engine/built-in.o
                                                  livedesk/beetles/mod_desktop/desktop_api.o
dsk_radio_rcv_search_stop                         livedesk/beetles/mod_desktop/engine/built-in.o
dsk_radio_rcv_set_freq_play                       livedesk/beetles/mod_desktop/engine/built-in.o
                                                  livedesk/beetles/mod_desktop/desktop_api.o
dsk_radio_rcv_set_play_list_type                  livedesk/beetles/mod_desktop/engine/built-in.o
                                                  livedesk/beetles/mod_desktop/desktop_api.o
dsk_radio_rcv_set_search_cb                       livedesk/beetles/mod_desktop/engine/built-in.o
                                                  livedesk/beetles/mod_desktop/desktop_api.o
dsk_radio_rcv_set_search_mode                     livedesk/beetles/mod_desktop/engine/built-in.o
                                                  livedesk/beetles/mod_desktop/desktop_api.o
dsk_radio_send_close                              livedesk/beetles/mod_desktop/engine/built-in.o
                                                  livedesk/beetles/mod_desktop/desktop_api.o
dsk_radio_send_get_cur_freq                       livedesk/beetles/mod_desktop/engine/built-in.o
                                                  livedesk/beetles/mod_desktop/desktop_api.o
dsk_radio_send_get_gain                           livedesk/beetles/mod_desktop/engine/built-in.o
                                                  livedesk/beetles/mod_desktop/desktop_api.o
dsk_radio_send_is_open                            livedesk/beetles/mod_desktop/engine/built-in.o
                                                  livedesk/beetles/mod_desktop/desktop_api.o
dsk_radio_send_open                               livedesk/beetles/mod_desktop/engine/built-in.o
                                                  livedesk/beetles/mod_desktop/desktop_api.o
dsk_radio_send_set_freq_play                      livedesk/beetles/mod_desktop/engine/built-in.o
                                                  livedesk/beetles/mod_desktop/desktop_api.o
dsk_radio_send_set_gain                           livedesk/beetles/mod_desktop/engine/built-in.o
                                                  livedesk/beetles/mod_desktop/desktop_api.o
dsk_radio_set_audio_mode                          livedesk/beetles/mod_desktop/engine/built-in.o
                                                  livedesk/beetles/mod_desktop/desktop_api.o
dsk_radio_set_automanual_mode                     livedesk/beetles/mod_desktop/engine/built-in.o
                                                  livedesk/beetles/mod_desktop/desktop_api.o
dsk_radio_set_band                                livedesk/beetles/mod_desktop/engine/built-in.o
                                                  livedesk/beetles/mod_desktop/desktop_api.o
dsk_radio_set_cb                                  livedesk/beetles/mod_desktop/engine/built-in.o
                                                  livedesk/beetles/mod_desktop/desktop_api.o
dsk_radio_set_manual_way                          livedesk/beetles/mod_desktop/engine/built-in.o
                                                  livedesk/beetles/mod_desktop/desktop_api.o
dsk_radio_set_search_flag                         livedesk/beetles/mod_desktop/engine/built-in.o
                                                  livedesk/beetles/mod_desktop/desktop_api.o
dsk_radio_set_threshold                           livedesk/beetles/mod_desktop/engine/built-in.o
                                                  livedesk/beetles/mod_desktop/desktop_api.o
dsk_radio_set_vol                                 livedesk/beetles/mod_desktop/engine/built-in.o
                                                  livedesk/beetles/mod_desktop/desktop_api.o
dsk_radio_unmute                                  livedesk/beetles/mod_desktop/engine/built-in.o
                                                  livedesk/beetles/mod_desktop/desktop_api.o
dsk_reg_deinit_para                               livedesk/beetles/mod_desktop/functions/built-in.o
                                                  livedesk/beetles/mod_desktop/desktop_api.o
dsk_reg_flush                                     livedesk/beetles/mod_desktop/functions/built-in.o
                                                  livedesk/beetles/mod_desktop/desktop_api.o
dsk_reg_get_app_restore_flag                      livedesk/beetles/mod_desktop/functions/built-in.o
                                                  livedesk/beetles/mod_desktop/desktop_api.o
dsk_reg_get_default_para_by_app                   livedesk/beetles/mod_desktop/functions/built-in.o
                                                  livedesk/beetles/mod_desktop/desktop_api.o
dsk_reg_get_para_by_app                           livedesk/beetles/mod_desktop/functions/built-in.o
                                                  livedesk/beetles/mod_desktop/engine/built-in.o
                                                  livedesk/beetles/mod_desktop/desktop_api.o
dsk_reg_init_para                                 livedesk/beetles/mod_desktop/functions/built-in.o
                                                  livedesk/beetles/mod_desktop/desktop_api.o
dsk_reg_save_cur_play_info                        livedesk/beetles/mod_desktop/functions/built-in.o
                                                  livedesk/beetles/mod_desktop/desktop_api.o
dsk_reg_set_app_restore_all                       livedesk/beetles/mod_desktop/functions/built-in.o
                                                  livedesk/beetles/mod_desktop/desktop_api.o
dsk_reg_set_app_restore_flag                      livedesk/beetles/mod_desktop/functions/built-in.o
                                                  livedesk/beetles/mod_desktop/desktop_api.o
dsk_send_insmod_usbh_cmd                          livedesk/beetles/mod_desktop/functions/built-in.o
                                                  livedesk/beetles/mod_desktop/desktop_api.o
dsk_send_rmmod_usbh_cmd                           livedesk/beetles/mod_desktop/functions/built-in.o
                                                  livedesk/beetles/mod_desktop/desktop_api.o
dsk_set_audio_if                                  livedesk/beetles/mod_desktop/functions/built-in.o
                                                  livedesk/beetles/mod_desktop/desktop_api.o
dsk_set_auto_off_time                             livedesk/beetles/mod_desktop/functions/built-in.o
                                                  livedesk/beetles/mod_desktop/desktop_api.o
dsk_set_fs_charset                                livedesk/beetles/mod_desktop/functions/built-in.o
                                                  livedesk/beetles/mod_desktop/desktop_api.o
dsk_set_hdmi_audio_gate                           livedesk/beetles/mod_desktop/functions/built-in.o
                                                  livedesk/beetles/mod_desktop/desktop_api.o
dsk_set_isn_charset                               livedesk/beetles/mod_desktop/functions/built-in.o
                                                  livedesk/beetles/mod_desktop/desktop_api.o
dsk_speaker_resume                                livedesk/beetles/mod_desktop/functions/built-in.o
                                                  livedesk/beetles/mod_desktop/desktop_api.o
dsk_speaker_turnoff                               livedesk/beetles/mod_desktop/functions/built-in.o
                                                  livedesk/beetles/mod_desktop/desktop_api.o
dsk_speaker_turnon                                livedesk/beetles/mod_desktop/functions/built-in.o
                                                  livedesk/beetles/mod_desktop/desktop_api.o
dsk_start_fw_update                               livedesk/beetles/mod_desktop/functions/built-in.o
                                                  livedesk/beetles/mod_desktop/desktop_api.o
dsk_theme_close                                   livedesk/beetles/mod_desktop/functions/built-in.o
                                                  livedesk/beetles/mod_desktop/desktop_api.o
dsk_theme_close_ex                                livedesk/beetles/mod_desktop/functions/built-in.o
                                                  livedesk/beetles/mod_desktop/desktop_api.o
dsk_theme_exit                                    livedesk/beetles/mod_desktop/functions/built-in.o
                                                  livedesk/beetles/mod_desktop/desktop_api.o
dsk_theme_exit_ex                                 livedesk/beetles/mod_desktop/functions/built-in.o
                                                  livedesk/beetles/mod_desktop/desktop_api.o
dsk_theme_get_style                               livedesk/beetles/mod_desktop/functions/built-in.o
                                                  livedesk/beetles/mod_desktop/desktop_api.o
dsk_theme_hdl2buf                                 livedesk/beetles/mod_desktop/functions/built-in.o
                                                  livedesk/beetles/mod_desktop/desktop_api.o
dsk_theme_hdl2buf_ex                              livedesk/beetles/mod_desktop/functions/built-in.o
                                                  livedesk/beetles/mod_desktop/desktop_api.o
dsk_theme_hdl2size                                livedesk/beetles/mod_desktop/functions/built-in.o
                                                  livedesk/beetles/mod_desktop/desktop_api.o
dsk_theme_hdl2size_ex                             livedesk/beetles/mod_desktop/functions/built-in.o
                                                  livedesk/beetles/mod_desktop/desktop_api.o
dsk_theme_init                                    livedesk/beetles/mod_desktop/functions/built-in.o
                                                  livedesk/beetles/mod_desktop/desktop_api.o
dsk_theme_init_ex                                 livedesk/beetles/mod_desktop/functions/built-in.o
                                                  livedesk/beetles/mod_desktop/desktop_api.o
dsk_theme_open                                    livedesk/beetles/mod_desktop/functions/built-in.o
                                                  livedesk/beetles/mod_desktop/desktop_api.o
dsk_theme_open_ex                                 livedesk/beetles/mod_desktop/functions/built-in.o
                                                  livedesk/beetles/mod_desktop/desktop_api.o
dsk_theme_really_close_by_id_ex                   livedesk/beetles/mod_desktop/functions/built-in.o
                                                  livedesk/beetles/mod_desktop/desktop_api.o
dsk_theme_really_close_ex                         livedesk/beetles/mod_desktop/functions/built-in.o
                                                  livedesk/beetles/mod_desktop/desktop_api.o
dsk_theme_set_style                               livedesk/beetles/mod_desktop/functions/built-in.o
                                                  livedesk/beetles/mod_desktop/desktop_api.o
dsk_usbd_remove                                   livedesk/beetles/mod_desktop/functions/built-in.o
                                                  livedesk/beetles/mod_desktop/desktop_api.o
dsk_usbh_is_working                               livedesk/beetles/mod_desktop/functions/built-in.o
                                                  livedesk/beetles/mod_desktop/desktop_api.o
dsk_volume_app_line_in                            livedesk/beetles/mod_desktop/functions/built-in.o
                                                  livedesk/beetles/mod_desktop/desktop_api.o
dsk_volume_dec                                    livedesk/beetles/mod_desktop/functions/built-in.o
                                                  livedesk/beetles/mod_desktop/desktop_api.o
dsk_volume_get                                    livedesk/beetles/mod_desktop/functions/built-in.o
                                                  livedesk/beetles/mod_desktop/desktop_api.o
dsk_volume_inc                                    livedesk/beetles/mod_desktop/functions/built-in.o
                                                  livedesk/beetles/mod_desktop/desktop_api.o
dsk_volume_is_on                                  livedesk/beetles/mod_desktop/functions/built-in.o
                                                  livedesk/beetles/mod_desktop/desktop_api.o
dsk_volume_off                                    livedesk/beetles/mod_desktop/functions/built-in.o
                                                  livedesk/beetles/mod_desktop/desktop_api.o
dsk_volume_on                                     livedesk/beetles/mod_desktop/functions/built-in.o
                                                  livedesk/beetles/mod_desktop/desktop_api.o
dsk_volume_set                                    livedesk/beetles/mod_desktop/functions/built-in.o
                                                  livedesk/beetles/mod_desktop/desktop_api.o
dsk_wkm_attr                                      livedesk/beetles/mod_desktop/engine/built-in.o
dsk_wkm_cancle_ab                                 livedesk/beetles/mod_desktop/engine/built-in.o
                                                  livedesk/beetles/mod_desktop/desktop_api.o
dsk_wkm_cedar_msgQ                                livedesk/beetles/mod_desktop/engine/built-in.o
dsk_wkm_clear_feedback_msgQ                       livedesk/beetles/mod_desktop/engine/built-in.o
                                                  livedesk/beetles/mod_desktop/desktop_api.o
dsk_wkm_close                                     livedesk/beetles/mod_desktop/engine/built-in.o
                                                  livedesk/beetles/mod_desktop/framework/built-in.o
                                                  livedesk/beetles/mod_desktop/desktop_api.o
dsk_wkm_disable_spectrum                          livedesk/beetles/mod_desktop/engine/built-in.o
                                                  livedesk/beetles/mod_desktop/desktop_api.o
dsk_wkm_enable_spectrum                           livedesk/beetles/mod_desktop/engine/built-in.o
                                                  livedesk/beetles/mod_desktop/desktop_api.o
dsk_wkm_eq_mode2value                             livedesk/beetles/mod_desktop/engine/built-in.o
                                                  livedesk/beetles/mod_desktop/desktop_api.o
dsk_wkm_exit                                      livedesk/beetles/mod_desktop/engine/built-in.o
                                                  livedesk/beetles/mod_desktop/desktop_api.o
dsk_wkm_feedbackQ                                 livedesk/beetles/mod_desktop/engine/built-in.o
dsk_wkm_ff                                        livedesk/beetles/mod_desktop/engine/built-in.o
                                                  livedesk/beetles/mod_desktop/desktop_api.o
dsk_wkm_get_album_cover                           livedesk/beetles/mod_desktop/engine/built-in.o
                                                  livedesk/beetles/mod_desktop/desktop_api.o
dsk_wkm_get_attr                                  livedesk/beetles/mod_desktop/engine/built-in.o
                                                  livedesk/beetles/mod_desktop/desktop_api.o
dsk_wkm_get_audio_bps                             livedesk/beetles/mod_desktop/engine/built-in.o
                                                  livedesk/beetles/mod_desktop/desktop_api.o
dsk_wkm_get_audio_encoding                        livedesk/beetles/mod_desktop/engine/built-in.o
                                                  livedesk/beetles/mod_desktop/desktop_api.o
dsk_wkm_get_audio_info                            livedesk/beetles/mod_desktop/engine/built-in.o
                                                  livedesk/beetles/mod_desktop/desktop_api.o
dsk_wkm_get_audio_sample_rate                     livedesk/beetles/mod_desktop/engine/built-in.o
                                                  livedesk/beetles/mod_desktop/desktop_api.o
dsk_wkm_get_cb                                    livedesk/beetles/mod_desktop/engine/built-in.o
                                                  livedesk/beetles/mod_desktop/desktop_api.o
dsk_wkm_get_cur_time                              livedesk/beetles/mod_desktop/engine/built-in.o
                                                  livedesk/beetles/mod_desktop/desktop_api.o
dsk_wkm_get_eq_mode                               livedesk/beetles/mod_desktop/engine/built-in.o
                                                  livedesk/beetles/mod_desktop/desktop_api.o
dsk_wkm_get_eq_value                              livedesk/beetles/mod_desktop/engine/built-in.o
                                                  livedesk/beetles/mod_desktop/desktop_api.o
dsk_wkm_get_feedback_msg                          livedesk/beetles/mod_desktop/engine/built-in.o
                                                  livedesk/beetles/mod_desktop/desktop_api.o
dsk_wkm_get_ff_rr_speed                           livedesk/beetles/mod_desktop/engine/built-in.o
                                                  livedesk/beetles/mod_desktop/desktop_api.o
dsk_wkm_get_fsm_state                             livedesk/beetles/mod_desktop/engine/built-in.o
                                                  livedesk/beetles/mod_desktop/desktop_api.o
dsk_wkm_get_lyric_format                          livedesk/beetles/mod_desktop/engine/built-in.o
                                                  livedesk/beetles/mod_desktop/desktop_api.o
dsk_wkm_get_lyric_item_count                      livedesk/beetles/mod_desktop/engine/built-in.o
                                                  livedesk/beetles/mod_desktop/desktop_api.o
dsk_wkm_get_lyric_item_list                       livedesk/beetles/mod_desktop/engine/built-in.o
                                                  livedesk/beetles/mod_desktop/desktop_api.o
dsk_wkm_get_now_playing_file                      livedesk/beetles/mod_desktop/engine/built-in.o
                                                  livedesk/beetles/mod_desktop/desktop_api.o
dsk_wkm_get_pause_state                           livedesk/beetles/mod_desktop/engine/built-in.o
                                                  livedesk/beetles/mod_desktop/desktop_api.o
dsk_wkm_get_play_mode                             livedesk/beetles/mod_desktop/engine/built-in.o
                                                  livedesk/beetles/mod_desktop/desktop_api.o
dsk_wkm_get_play_speed                            livedesk/beetles/mod_desktop/engine/built-in.o
                                                  livedesk/beetles/mod_desktop/desktop_api.o
dsk_wkm_get_spectrum_info                         livedesk/beetles/mod_desktop/engine/built-in.o
                                                  livedesk/beetles/mod_desktop/desktop_api.o
dsk_wkm_get_star                                  livedesk/beetles/mod_desktop/engine/built-in.o
                                                  livedesk/beetles/mod_desktop/desktop_api.o
dsk_wkm_get_tag                                   livedesk/beetles/mod_desktop/engine/built-in.o
                                                  livedesk/beetles/mod_desktop/desktop_api.o
dsk_wkm_get_total_time                            livedesk/beetles/mod_desktop/engine/built-in.o
                                                  livedesk/beetles/mod_desktop/desktop_api.o
dsk_wkm_hced                                      livedesk/beetles/mod_desktop/engine/built-in.o
dsk_wkm_hnpl                                      livedesk/beetles/mod_desktop/engine/built-in.o
dsk_wkm_horc                                      livedesk/beetles/mod_desktop/engine/built-in.o
dsk_wkm_init                                      livedesk/beetles/mod_desktop/engine/built-in.o
                                                  livedesk/beetles/mod_desktop/desktop_api.o
dsk_wkm_is_open                                   livedesk/beetles/mod_desktop/engine/built-in.o
                                                  livedesk/beetles/mod_desktop/framework/built-in.o
                                                  livedesk/beetles/mod_desktop/desktop_api.o
dsk_wkm_is_playing                                livedesk/beetles/mod_desktop/engine/built-in.o
                                                  livedesk/beetles/mod_desktop/desktop_api.o
dsk_wkm_jump                                      livedesk/beetles/mod_desktop/engine/built-in.o
                                                  livedesk/beetles/mod_desktop/desktop_api.o
dsk_wkm_lyric_exist                               livedesk/beetles/mod_desktop/engine/built-in.o
                                                  livedesk/beetles/mod_desktop/desktop_api.o
dsk_wkm_monitor_create                            livedesk/beetles/mod_desktop/engine/built-in.o
dsk_wkm_monitor_delete                            livedesk/beetles/mod_desktop/engine/built-in.o
dsk_wkm_monitor_disable                           livedesk/beetles/mod_desktop/engine/built-in.o
                                                  livedesk/beetles/mod_desktop/desktop_api.o
dsk_wkm_monitor_enable                            livedesk/beetles/mod_desktop/engine/built-in.o
                                                  livedesk/beetles/mod_desktop/desktop_api.o
dsk_wkm_npl_add_item                              livedesk/beetles/mod_desktop/engine/built-in.o
                                                  livedesk/beetles/mod_desktop/desktop_api.o
dsk_wkm_npl_clear                                 livedesk/beetles/mod_desktop/engine/built-in.o
                                                  livedesk/beetles/mod_desktop/desktop_api.o
dsk_wkm_npl_delete_item                           livedesk/beetles/mod_desktop/engine/built-in.o
                                                  livedesk/beetles/mod_desktop/desktop_api.o
dsk_wkm_npl_file2index                            livedesk/beetles/mod_desktop/engine/built-in.o
                                                  livedesk/beetles/mod_desktop/desktop_api.o
dsk_wkm_npl_get_cur                               livedesk/beetles/mod_desktop/engine/built-in.o
                                                  livedesk/beetles/mod_desktop/desktop_api.o
dsk_wkm_npl_get_next                              livedesk/beetles/mod_desktop/engine/built-in.o
                                                  livedesk/beetles/mod_desktop/desktop_api.o
dsk_wkm_npl_get_total_count                       livedesk/beetles/mod_desktop/engine/built-in.o
                                                  livedesk/beetles/mod_desktop/desktop_api.o
dsk_wkm_npl_index2file                            livedesk/beetles/mod_desktop/engine/built-in.o
                                                  livedesk/beetles/mod_desktop/desktop_api.o
dsk_wkm_npl_load_last_list                        livedesk/beetles/mod_desktop/engine/built-in.o
                                                  livedesk/beetles/mod_desktop/desktop_api.o
dsk_wkm_npl_save_list                             livedesk/beetles/mod_desktop/engine/built-in.o
                                                  livedesk/beetles/mod_desktop/desktop_api.o
dsk_wkm_npl_set_cur                               livedesk/beetles/mod_desktop/engine/built-in.o
                                                  livedesk/beetles/mod_desktop/desktop_api.o
dsk_wkm_open                                      livedesk/beetles/mod_desktop/engine/built-in.o
                                                  livedesk/beetles/mod_desktop/desktop_api.o
dsk_wkm_pause                                     livedesk/beetles/mod_desktop/engine/built-in.o
                                                  livedesk/beetles/mod_desktop/desktop_api.o
dsk_wkm_play_file                                 livedesk/beetles/mod_desktop/engine/built-in.o
                                                  livedesk/beetles/mod_desktop/desktop_api.o
dsk_wkm_play_next                                 livedesk/beetles/mod_desktop/engine/built-in.o
                                                  livedesk/beetles/mod_desktop/desktop_api.o
dsk_wkm_play_prev                                 livedesk/beetles/mod_desktop/engine/built-in.o
                                                  livedesk/beetles/mod_desktop/desktop_api.o
dsk_wkm_res_mutex                                 livedesk/beetles/mod_desktop/engine/built-in.o
dsk_wkm_resume_play                               livedesk/beetles/mod_desktop/engine/built-in.o
                                                  livedesk/beetles/mod_desktop/desktop_api.o
dsk_wkm_rr                                        livedesk/beetles/mod_desktop/engine/built-in.o
                                                  livedesk/beetles/mod_desktop/desktop_api.o
dsk_wkm_set_ab_a                                  livedesk/beetles/mod_desktop/engine/built-in.o
                                                  livedesk/beetles/mod_desktop/desktop_api.o
dsk_wkm_set_ab_b                                  livedesk/beetles/mod_desktop/engine/built-in.o
                                                  livedesk/beetles/mod_desktop/desktop_api.o
dsk_wkm_set_ab_loop_count                         livedesk/beetles/mod_desktop/engine/built-in.o
                                                  livedesk/beetles/mod_desktop/desktop_api.o
dsk_wkm_set_attr                                  livedesk/beetles/mod_desktop/engine/built-in.o
                                                  livedesk/beetles/mod_desktop/desktop_api.o
dsk_wkm_set_cb                                    livedesk/beetles/mod_desktop/engine/built-in.o
                                                  livedesk/beetles/mod_desktop/desktop_api.o
dsk_wkm_set_eq_mode                               livedesk/beetles/mod_desktop/engine/built-in.o
                                                  livedesk/beetles/mod_desktop/desktop_api.o
dsk_wkm_set_eq_value                              livedesk/beetles/mod_desktop/engine/built-in.o
                                                  livedesk/beetles/mod_desktop/desktop_api.o
dsk_wkm_set_ff_rr_speed                           livedesk/beetles/mod_desktop/engine/built-in.o
                                                  livedesk/beetles/mod_desktop/desktop_api.o
dsk_wkm_set_play_mode                             livedesk/beetles/mod_desktop/engine/built-in.o
                                                  livedesk/beetles/mod_desktop/desktop_api.o
dsk_wkm_set_play_speed                            livedesk/beetles/mod_desktop/engine/built-in.o
                                                  livedesk/beetles/mod_desktop/desktop_api.o
dsk_wkm_set_star                                  livedesk/beetles/mod_desktop/engine/built-in.o
                                                  livedesk/beetles/mod_desktop/desktop_api.o
dsk_wkm_stop                                      livedesk/beetles/mod_desktop/engine/built-in.o
                                                  livedesk/beetles/mod_desktop/desktop_api.o
eLIBs_DirEnt2Attr                                 ./elibrary/bin//libminic.a(elibs_stdio.o)
eLIBs_DirEnt2Name                                 ./elibrary/bin//libminic.a(elibs_stdio.o)
eLIBs_DirEnt2Size                                 ./elibrary/bin//libminic.a(elibs_stdio.o)
eLIBs_DirEnt2Time                                 ./elibrary/bin//libminic.a(elibs_stdio.o)
eLIBs_GetAudioDataInfo                            ./elibrary/bin//libmediainfo.a(elibs_mediainf.o)
eLIBs_GetAudioFormat                              ./elibrary/bin//libmediainfo.a(elibs_mediainf.o)
                                                  livedesk/beetles/mod_desktop/engine/built-in.o
eLIBs_GetAudioInfo                                ./elibrary/bin//libmediainfo.a(elibs_mediainf.o)
                                                  livedesk/beetles/mod_desktop/engine/built-in.o
eLIBs_GetDate                                     ./elibrary/bin//libminic.a(elibs_stdio.o)
eLIBs_GetDevName                                  ./elibrary/bin//libminic.a(elibs_stdio.o)
eLIBs_GetDevParts                                 ./elibrary/bin//libminic.a(elibs_stdio.o)
eLIBs_GetDirATime                                 ./elibrary/bin//libminic.a(elibs_stdio.o)
eLIBs_GetDirCTime                                 ./elibrary/bin//libminic.a(elibs_stdio.o)
eLIBs_GetDirMTime                                 ./elibrary/bin//libminic.a(elibs_stdio.o)
eLIBs_GetDirSize                                  ./elibrary/bin//libminic.a(elibs_stdio.o)
eLIBs_GetDiskArray                                ./elibrary/bin//libminic.a(elibs_stdio.o)
eLIBs_GetEbookFormat                              ./elibrary/bin//libmediainfo.a(elibs_mediainf.o)
eLIBs_GetFSAttribute                              ./elibrary/bin//libminic.a(elibs_stdio.o)
eLIBs_GetFSCharset                                ./elibrary/bin//libminic.a(elibs_stdio.o)
                                                  livedesk/beetles/mod_desktop/functions/built-in.o
eLIBs_GetFSName                                   ./elibrary/bin//libminic.a(elibs_stdio.o)
eLIBs_GetFileATime                                ./elibrary/bin//libminic.a(elibs_stdio.o)
eLIBs_GetFileAttributes                           ./elibrary/bin//libminic.a(elibs_stdio.o)
eLIBs_GetFileCTime                                ./elibrary/bin//libminic.a(elibs_stdio.o)
eLIBs_GetFileMTime                                ./elibrary/bin//libminic.a(elibs_stdio.o)
eLIBs_GetFileSize                                 ./elibrary/bin//libminic.a(elibs_stdio.o)
                                                  livedesk/beetles/mod_desktop/framework/built-in.o
eLIBs_GetFlashFormat                              ./elibrary/bin//libmediainfo.a(elibs_mediainf.o)
eLIBs_GetGameFormat                               ./elibrary/bin//libmediainfo.a(elibs_mediainf.o)
eLIBs_GetNumFiles                                 ./elibrary/bin//libminic.a(elibs_stdio.o)
eLIBs_GetNumSubItems                              ./elibrary/bin//libminic.a(elibs_stdio.o)
eLIBs_GetPTName                                   ./elibrary/bin//libminic.a(elibs_stdio.o)
eLIBs_GetPicFormat                                ./elibrary/bin//libmediainfo.a(elibs_mediainf.o)
eLIBs_GetTime                                     ./elibrary/bin//libminic.a(elibs_stdio.o)
eLIBs_GetVideoFormat                              ./elibrary/bin//libmediainfo.a(elibs_mediainf.o)
eLIBs_GetVolClustSize                             ./elibrary/bin//libminic.a(elibs_stdio.o)
eLIBs_GetVolFSpace                                ./elibrary/bin//libminic.a(elibs_stdio.o)
eLIBs_GetVolName                                  ./elibrary/bin//libminic.a(elibs_stdio.o)
eLIBs_GetVolNameCharset                           ./elibrary/bin//libminic.a(elibs_stdio.o)
eLIBs_GetVolTSpace                                ./elibrary/bin//libminic.a(elibs_stdio.o)
eLIBs_IsPartFormated                              ./elibrary/bin//libminic.a(elibs_stdio.o)
                                                  livedesk/beetles/mod_desktop/functions/built-in.o
eLIBs_SetFileAttributes                           ./elibrary/bin//libminic.a(elibs_stdio.o)
eLIBs_atof                                        ./elibrary/bin//libminic.a(elibs_stdlib.o)
eLIBs_atoi                                        ./elibrary/bin//libminic.a(elibs_stdlib.o)
eLIBs_charset_convert                             ./elibrary/bin//libcharset.a(elibs_charset.o)
                                                  livedesk/beetles/mod_desktop/engine/built-in.o
eLIBs_charset_convert_size                        ./elibrary/bin//libcharset.a(elibs_charset.o)
eLIBs_charset_enm2name                            ./elibrary/bin//libcharset.a(elibs_charset.o)
eLIBs_charset_name2enm                            ./elibrary/bin//libcharset.a(elibs_charset.o)
eLIBs_closedir                                    ./elibrary/bin//libminic.a(elibs_stdio.o)
eLIBs_disklock                                    ./elibrary/bin//libminic.a(elibs_stdio.o)
eLIBs_diskunlock                                  ./elibrary/bin//libminic.a(elibs_stdio.o)
eLIBs_fclose                                      ./elibrary/bin//libminic.a(elibs_stdio.o)
                                                  ./elibrary/bin//libmediainfo.a(audio_fs_direct.o)
                                                  livedesk/beetles/mod_desktop/functions/built-in.o
                                                  livedesk/beetles/mod_desktop/engine/built-in.o
eLIBs_fd2file                                     ./elibrary/bin//libminic.a(elibs_stdio.o)
eLIBs_feof                                        ./elibrary/bin//libminic.a(elibs_stdio.o)
eLIBs_ferrclr                                     ./elibrary/bin//libminic.a(elibs_stdio.o)
eLIBs_ferror                                      ./elibrary/bin//libminic.a(elibs_stdio.o)
eLIBs_fgetc                                       ./elibrary/bin//libminic.a(elibs_stdio.o)
eLIBs_fgets                                       ./elibrary/bin//libminic.a(elibs_stdio.o)
eLIBs_file2fd                                     ./elibrary/bin//libminic.a(elibs_stdio.o)
eLIBs_fioctrl                                     ./elibrary/bin//libminic.a(elibs_stdio.o)
eLIBs_fllseek                                     ./elibrary/bin//libminic.a(elibs_stdio.o)
                                                  ./elibrary/bin//libmediainfo.a(audio_fs_direct.o)
eLIBs_flltell                                     ./elibrary/bin//libminic.a(elibs_stdio.o)
                                                  ./elibrary/bin//libmediainfo.a(audio_fs_direct.o)
eLIBs_fopen                                       ./elibrary/bin//libminic.a(elibs_stdio.o)
                                                  ./elibrary/bin//libmediainfo.a(audio_fs_direct.o)
                                                  livedesk/beetles/mod_desktop/functions/built-in.o
                                                  livedesk/beetles/mod_desktop/engine/built-in.o
eLIBs_format                                      ./elibrary/bin//libminic.a(elibs_stdio.o)
                                                  livedesk/beetles/mod_desktop/functions/built-in.o
eLIBs_fputc                                       ./elibrary/bin//libminic.a(elibs_stdio.o)
eLIBs_fputs                                       ./elibrary/bin//libminic.a(elibs_stdio.o)
eLIBs_fread                                       ./elibrary/bin//libminic.a(elibs_stdio.o)
                                                  ./elibrary/bin//libmediainfo.a(audio_fs_direct.o)
                                                  livedesk/beetles/mod_desktop/functions/built-in.o
                                                  livedesk/beetles/mod_desktop/engine/built-in.o
eLIBs_free                                        ./elibrary/bin//libminic.a(elibs_stdlib.o)
                                                  ./elibrary/bin//libmediainfo.a(bitstream.o)
                                                  ./elibrary/bin//libmediainfo.a(AudioInfo_FLAC.o)
                                                  ./elibrary/bin//libmediainfo.a(AudioInfo_MID_timidity.o)
                                                  ./elibrary/bin//libmediainfo.a(AudioInfo_OGG.o)
                                                  ./elibrary/bin//libmediainfo.a(AudioInfo_RA.o)
                                                  ./elibrary/bin//libmediainfo.a(GetAudio_format.o)
                                                  ./elibrary/bin//liblzma.a(LzmaLib.o)
                                                  livedesk/beetles/mod_desktop/functions/built-in.o
eLIBs_fseek                                       ./elibrary/bin//libminic.a(elibs_stdio.o)
                                                  ./elibrary/bin//libmediainfo.a(AudioInfo_AAC.o)
                                                  livedesk/beetles/mod_desktop/functions/built-in.o
eLIBs_fstat                                       ./elibrary/bin//libminic.a(elibs_stdio.o)
eLIBs_fsync                                       ./elibrary/bin//libminic.a(elibs_stdio.o)
                                                  livedesk/beetles/mod_desktop/functions/built-in.o
eLIBs_ftell                                       ./elibrary/bin//libminic.a(elibs_stdio.o)
                                                  ./elibrary/bin//libmediainfo.a(audio_fs_direct.o)
eLIBs_ftruncate                                   ./elibrary/bin//libminic.a(elibs_stdio.o)
eLIBs_fwrite                                      ./elibrary/bin//libminic.a(elibs_stdio.o)
                                                  ./elibrary/bin//libmediainfo.a(audio_fs_direct.o)
                                                  livedesk/beetles/mod_desktop/functions/built-in.o
                                                  livedesk/beetles/mod_desktop/engine/built-in.o
eLIBs_int2str_dec                                 ./elibrary/bin//libminic.a(elibs_stdlib.o)
eLIBs_int2str_hex                                 ./elibrary/bin//libminic.a(elibs_stdlib.o)
eLIBs_isspace                                     ./elibrary/bin//libminic.a(elibs_stdlib.o)
eLIBs_language_enm2name                           livedesk/beetles/mod_desktop/util/built-in.o
eLIBs_language_name2enm                           livedesk/beetles/mod_desktop/util/built-in.o
eLIBs_malloc                                      ./elibrary/bin//libminic.a(elibs_stdlib.o)
                                                  ./elibrary/bin//libmediainfo.a(bitstream.o)
                                                  ./elibrary/bin//libmediainfo.a(AudioInfo_FLAC.o)
                                                  ./elibrary/bin//libmediainfo.a(AudioInfo_MID_timidity.o)
                                                  ./elibrary/bin//libmediainfo.a(AudioInfo_OGG.o)
                                                  ./elibrary/bin//libmediainfo.a(AudioInfo_RA.o)
                                                  ./elibrary/bin//libmediainfo.a(GetAudio_format.o)
                                                  ./elibrary/bin//liblzma.a(LzmaLib.o)
                                                  livedesk/beetles/mod_desktop/functions/built-in.o
eLIBs_memclr                                      ./elibrary/bin//libminic.a(elibs_string.o)
eLIBs_memcmp                                      ./elibrary/bin//libminic.a(elibs_string.o)
                                                  ./elibrary/bin//libmediainfo.a(audio_fs_direct.o)
                                                  ./elibrary/bin//libmediainfo.a(AudioInfo_ATRAC.o)
                                                  ./elibrary/bin//libmediainfo.a(AudioInfo_MID_timidity.o)
                                                  ./elibrary/bin//libmediainfo.a(GetAudio_format.o)
                                                  livedesk/beetles/mod_desktop/functions/built-in.o
eLIBs_memcpy                                      ./elibrary/bin//libminic.a(elibs_string.o)
                                                  ./elibrary/bin//libmediainfo.a(audio_fs_direct.o)
                                                  ./elibrary/bin//libminic.a(elibs_stdio.o)
                                                  livedesk/beetles/mod_desktop/msg_srv/built-in.o
                                                  livedesk/beetles/mod_desktop/functions/built-in.o
                                                  livedesk/beetles/mod_desktop/framework/built-in.o
                                                  livedesk/beetles/mod_desktop/engine/built-in.o
eLIBs_memmove                                     ./elibrary/bin//libminic.a(elibs_string.o)
eLIBs_memset                                      ./elibrary/bin//libminic.a(elibs_string.o)
                                                  livedesk/beetles/mod_desktop/functions/built-in.o
                                                  livedesk/beetles/mod_desktop/framework/built-in.o
                                                  livedesk/beetles/mod_desktop/engine/built-in.o
eLIBs_mkdir                                       ./elibrary/bin//libminic.a(elibs_stdio.o)
eLIBs_open                                        ./elibrary/bin//libminic.a(elibs_stdio.o)
eLIBs_opendir                                     ./elibrary/bin//libminic.a(elibs_stdio.o)
eLIBs_printf                                      ./elibrary/bin//libminic.a(elibs_stdio.o)
                                                  ./elibrary/bin//libmediainfo.a(Tag_ID3.o)
                                                  ./elibrary/bin//libmediainfo.a(bitstream.o)
                                                  ./elibrary/bin//libmediainfo.a(AudioInfo_MP3.o)
                                                  ./elibrary/bin//libmediainfo.a(GetAudio_format.o)
                                                  livedesk/beetles/mod_desktop/functions/built-in.o
eLIBs_ramdom                                      ./elibrary/bin//libminic.a(elibs_stdlib.o)
eLIBs_readdir                                     ./elibrary/bin//libminic.a(elibs_stdio.o)
eLIBs_realloc                                     ./elibrary/bin//libminic.a(elibs_stdlib.o)
eLIBs_remove                                      ./elibrary/bin//libminic.a(elibs_stdio.o)
eLIBs_rename                                      ./elibrary/bin//libminic.a(elibs_stdio.o)
eLIBs_rewinddir                                   ./elibrary/bin//libminic.a(elibs_stdio.o)
eLIBs_rmdir                                       ./elibrary/bin//libminic.a(elibs_stdio.o)
eLIBs_scnprintf                                   ./elibrary/bin//libminic.a(elibs_sprintf.o)
eLIBs_setAudioEncrytpMode                         ./elibrary/bin//libmediainfo.a(elibs_mediainf.o)
eLIBs_setfs                                       ./elibrary/bin//libminic.a(elibs_stdio.o)
                                                  livedesk/beetles/mod_desktop/functions/built-in.o
eLIBs_snprintf                                    ./elibrary/bin//libminic.a(elibs_sprintf.o)
eLIBs_sprintf                                     ./elibrary/bin//libminic.a(elibs_sprintf.o)
                                                  ./elibrary/bin//libmediainfo.a(audio_fs_direct.o)
eLIBs_sscanf                                      ./elibrary/bin//libminic.a(elibs_stdlib.o)
eLIBs_statfs                                      ./elibrary/bin//libminic.a(elibs_stdio.o)
eLIBs_strcat                                      ./elibrary/bin//libminic.a(elibs_string.o)
                                                  ./elibrary/bin//libminic.a(elibs_stdio.o)
                                                  livedesk/beetles/mod_desktop/engine/built-in.o
eLIBs_strchr                                      ./elibrary/bin//libminic.a(elibs_string.o)
eLIBs_strchrlast                                  ./elibrary/bin//libminic.a(elibs_string.o)
                                                  ./elibrary/bin//libmediainfo.a(elibs_mediainf.o)
                                                  livedesk/beetles/mod_desktop/framework/built-in.o
eLIBs_strcmp                                      ./elibrary/bin//libminic.a(elibs_string.o)
                                                  ./elibrary/bin//libcharset.a(elibs_charset.o)
                                                  ./elibrary/bin//libminic.a(elibs_stdio.o)
                                                  livedesk/beetles/mod_desktop/util/built-in.o
                                                  livedesk/beetles/mod_desktop/framework/built-in.o
eLIBs_strcpy                                      ./elibrary/bin//libminic.a(elibs_string.o)
                                                  ./elibrary/bin//libcharset.a(elibs_charset.o)
                                                  ./elibrary/bin//libminic.a(elibs_stdio.o)
                                                  livedesk/beetles/mod_desktop/functions/built-in.o
                                                  livedesk/beetles/mod_desktop/framework/built-in.o
                                                  livedesk/beetles/mod_desktop/engine/built-in.o
eLIBs_stricmp                                     ./elibrary/bin//libminic.a(elibs_string.o)
                                                  ./elibrary/bin//libmediainfo.a(elibs_mediainf.o)
                                                  ./elibrary/bin//libminic.a(elibs_stdio.o)
                                                  livedesk/beetles/mod_desktop/framework/built-in.o
eLIBs_strlen                                      ./elibrary/bin//libminic.a(elibs_string.o)
                                                  ./elibrary/bin//libminic.a(elibs_stdio.o)
                                                  livedesk/beetles/mod_desktop/functions/built-in.o
eLIBs_strncat                                     ./elibrary/bin//libminic.a(elibs_string.o)
eLIBs_strnchr                                     ./elibrary/bin//libminic.a(elibs_string.o)
eLIBs_strncmp                                     ./elibrary/bin//libminic.a(elibs_string.o)
                                                  ./elibrary/bin//liblzma.a(az100.o)
eLIBs_strncpy                                     ./elibrary/bin//libminic.a(elibs_string.o)
                                                  ./elibrary/bin//libminic.a(elibs_stdio.o)
                                                  livedesk/beetles/mod_desktop/util/built-in.o
eLIBs_strnicmp                                    ./elibrary/bin//libminic.a(elibs_string.o)
                                                  ./elibrary/bin//libmediainfo.a(elibs_mediainf.o)
eLIBs_strnlen                                     ./elibrary/bin//libminic.a(elibs_string.o)
                                                  livedesk/beetles/mod_desktop/engine/built-in.o
eLIBs_strstr                                      ./elibrary/bin//libminic.a(elibs_string.o)
eLIBs_strtol                                      ./elibrary/bin//libminic.a(elibs_stdlib.o)
eLIBs_toupper                                     ./elibrary/bin//libminic.a(elibs_stdlib.o)
eLIBs_uint2str_dec                                ./elibrary/bin//libminic.a(elibs_stdlib.o)
                                                  livedesk/beetles/mod_desktop/engine/built-in.o
eLIBs_vprintf                                     ./elibrary/bin//libminic.a(elibs_stdio.o)
eLIBs_vscnprintf                                  ./elibrary/bin//libminic.a(elibs_sprintf.o)
                                                  ./elibrary/bin//libminic.a(elibs_stdio.o)
eLIBs_vsnprintf                                   ./elibrary/bin//libminic.a(elibs_sprintf.o)
eLIBs_vsprintf                                    ./elibrary/bin//libminic.a(elibs_sprintf.o)
esCFG_Exit_Ex                                     ./elibrary/bin//libsyscall.a(syscall.o)
esCFG_GetGPIOSecData                              ./elibrary/bin//libsyscall.a(syscall.o)
esCFG_GetGPIOSecData_Ex                           ./elibrary/bin//libsyscall.a(syscall.o)
esCFG_GetGPIOSecKeyCount                          ./elibrary/bin//libsyscall.a(syscall.o)
esCFG_GetGPIOSecKeyCount_Ex                       ./elibrary/bin//libsyscall.a(syscall.o)
esCFG_GetKeyValue                                 ./elibrary/bin//libsyscall.a(syscall.o)
                                                  ./elibrary/bin//libmediainfo.a(audio_fs_direct.o)
                                                  livedesk/beetles/mod_desktop/functions/built-in.o
                                                  livedesk/beetles/mod_desktop/mod_desktop.o
esCFG_GetKeyValue_Ex                              ./elibrary/bin//libsyscall.a(syscall.o)
esCFG_GetSecCount                                 ./elibrary/bin//libsyscall.a(syscall.o)
esCFG_GetSecCount_Ex                              ./elibrary/bin//libsyscall.a(syscall.o)
esCFG_GetSecKeyCount                              ./elibrary/bin//libsyscall.a(syscall.o)
esCFG_GetSecKeyCount_Ex                           ./elibrary/bin//libsyscall.a(syscall.o)
esCFG_Init_Ex                                     ./elibrary/bin//libsyscall.a(syscall.o)
esCHS_Char2Uni                                    ./elibrary/bin//libsyscall.a(syscall.o)
                                                  ./elibrary/bin//libcharset.a(elibs_charset.o)
esCHS_GetChLowerTbl                               ./elibrary/bin//libsyscall.a(syscall.o)
esCHS_GetChUpperTbl                               ./elibrary/bin//libsyscall.a(syscall.o)
esCHS_Uni2Char                                    ./elibrary/bin//libsyscall.a(syscall.o)
                                                  ./elibrary/bin//libcharset.a(elibs_charset.o)
esCLK_CloseMclk                                   ./elibrary/bin//libsyscall.a(syscall.o)
esCLK_GetMclkDiv                                  ./elibrary/bin//libsyscall.a(syscall.o)
esCLK_GetMclkSrc                                  ./elibrary/bin//libsyscall.a(syscall.o)
esCLK_GetRound_Rate                               ./elibrary/bin//libsyscall.a(syscall.o)
esCLK_GetSrcFreq                                  ./elibrary/bin//libsyscall.a(syscall.o)
esCLK_MclkAssert                                  ./elibrary/bin//libsyscall.a(syscall.o)
esCLK_MclkDeassert                                ./elibrary/bin//libsyscall.a(syscall.o)
esCLK_MclkGetRstStatus                            ./elibrary/bin//libsyscall.a(syscall.o)
esCLK_MclkOnOff                                   ./elibrary/bin//libsyscall.a(syscall.o)
esCLK_MclkRegCb                                   ./elibrary/bin//libsyscall.a(syscall.o)
esCLK_MclkReset                                   ./elibrary/bin//libsyscall.a(syscall.o)
esCLK_MclkUnregCb                                 ./elibrary/bin//libsyscall.a(syscall.o)
esCLK_ModInfo                                     ./elibrary/bin//libsyscall.a(syscall.o)
esCLK_OpenMclk                                    ./elibrary/bin//libsyscall.a(syscall.o)
esCLK_SetMclkDiv                                  ./elibrary/bin//libsyscall.a(syscall.o)
esCLK_SetMclkSrc                                  ./elibrary/bin//libsyscall.a(syscall.o)
esCLK_SetSrcFreq                                  ./elibrary/bin//libsyscall.a(syscall.o)
esCLK_SysInfo                                     ./elibrary/bin//libsyscall.a(syscall.o)
esDEV_Close                                       ./elibrary/bin//libsyscall.a(syscall.o)
esDEV_DevReg                                      ./elibrary/bin//libsyscall.a(syscall.o)
esDEV_DevUnreg                                    ./elibrary/bin//libsyscall.a(syscall.o)
esDEV_Insmod                                      ./elibrary/bin//libsyscall.a(syscall.o)
esDEV_Ioctl                                       ./elibrary/bin//libsyscall.a(syscall.o)
esDEV_Lock                                        ./elibrary/bin//libsyscall.a(syscall.o)
esDEV_Open                                        ./elibrary/bin//libsyscall.a(syscall.o)
esDEV_Plugin                                      ./elibrary/bin//libsyscall.a(syscall.o)
                                                  livedesk/beetles/mod_desktop/engine/built-in.o
esDEV_Plugout                                     ./elibrary/bin//libsyscall.a(syscall.o)
                                                  livedesk/beetles/mod_desktop/engine/built-in.o
esDEV_Read                                        ./elibrary/bin//libsyscall.a(syscall.o)
esDEV_Unimod                                      ./elibrary/bin//libsyscall.a(syscall.o)
esDEV_Unlock                                      ./elibrary/bin//libsyscall.a(syscall.o)
esDEV_Write                                       ./elibrary/bin//libsyscall.a(syscall.o)
esDMA_ChangeMode                                  ./elibrary/bin//libsyscall.a(syscall.o)
esDMA_DisableINT                                  ./elibrary/bin//libsyscall.a(syscall.o)
esDMA_EnableINT                                   ./elibrary/bin//libsyscall.a(syscall.o)
esDMA_Information                                 ./elibrary/bin//libsyscall.a(syscall.o)
esDMA_QueryDst                                    ./elibrary/bin//libsyscall.a(syscall.o)
esDMA_QueryRestCount                              ./elibrary/bin//libsyscall.a(syscall.o)
esDMA_QuerySrc                                    ./elibrary/bin//libsyscall.a(syscall.o)
esDMA_QueryStat                                   ./elibrary/bin//libsyscall.a(syscall.o)
esDMA_RegDmaHdler                                 ./elibrary/bin//libsyscall.a(syscall.o)
esDMA_Release                                     ./elibrary/bin//libsyscall.a(syscall.o)
esDMA_Request                                     ./elibrary/bin//libsyscall.a(syscall.o)
esDMA_Restart                                     ./elibrary/bin//libsyscall.a(syscall.o)
esDMA_Setting                                     ./elibrary/bin//libsyscall.a(syscall.o)
esDMA_Start                                       ./elibrary/bin//libsyscall.a(syscall.o)
esDMA_Stop                                        ./elibrary/bin//libsyscall.a(syscall.o)
esDMA_UnregDmaHdler                               ./elibrary/bin//libsyscall.a(syscall.o)
esEXEC_PCreate                                    ./elibrary/bin//libsyscall.a(syscall.o)
esEXEC_PDel                                       ./elibrary/bin//libsyscall.a(syscall.o)
esEXEC_PDelReq                                    ./elibrary/bin//libsyscall.a(syscall.o)
esEXEC_Run                                        ./elibrary/bin//libsyscall.a(syscall.o)
esFSYS_clearpartupdateflag                        ./elibrary/bin//libsyscall.a(syscall.o)
esFSYS_closedir                                   ./elibrary/bin//libsyscall.a(syscall.o)
                                                  ./elibrary/bin//libminic.a(elibs_stdio.o)
                                                  livedesk/beetles/mod_desktop/framework/built-in.o
esFSYS_fclose                                     ./elibrary/bin//libsyscall.a(syscall.o)
                                                  ./elibrary/bin//libminic.a(elibs_stdio.o)
                                                  livedesk/beetles/mod_desktop/framework/built-in.o
esFSYS_fd2file                                    ./elibrary/bin//libsyscall.a(syscall.o)
                                                  ./elibrary/bin//libminic.a(elibs_stdio.o)
esFSYS_ferrclr                                    ./elibrary/bin//libsyscall.a(syscall.o)
                                                  ./elibrary/bin//libminic.a(elibs_stdio.o)
esFSYS_ferror                                     ./elibrary/bin//libsyscall.a(syscall.o)
                                                  ./elibrary/bin//libminic.a(elibs_stdio.o)
esFSYS_file2fd                                    ./elibrary/bin//libsyscall.a(syscall.o)
                                                  ./elibrary/bin//libminic.a(elibs_stdio.o)
esFSYS_fioctrl                                    ./elibrary/bin//libsyscall.a(syscall.o)
                                                  ./elibrary/bin//libminic.a(elibs_stdio.o)
esFSYS_fopen                                      ./elibrary/bin//libsyscall.a(syscall.o)
                                                  ./elibrary/bin//libminic.a(elibs_stdio.o)
                                                  livedesk/beetles/mod_desktop/framework/built-in.o
esFSYS_format                                     ./elibrary/bin//libsyscall.a(syscall.o)
                                                  ./elibrary/bin//libminic.a(elibs_stdio.o)
esFSYS_fread                                      ./elibrary/bin//libsyscall.a(syscall.o)
                                                  ./elibrary/bin//libminic.a(elibs_stdio.o)
                                                  livedesk/beetles/mod_desktop/framework/built-in.o
esFSYS_fsdbg                                      ./elibrary/bin//libsyscall.a(syscall.o)
esFSYS_fseek                                      ./elibrary/bin//libsyscall.a(syscall.o)
                                                  ./elibrary/bin//libminic.a(elibs_stdio.o)
                                                  livedesk/beetles/mod_desktop/framework/built-in.o
esFSYS_fseekex                                    ./elibrary/bin//libsyscall.a(syscall.o)
                                                  ./elibrary/bin//libminic.a(elibs_stdio.o)
esFSYS_fsreg                                      ./elibrary/bin//libsyscall.a(syscall.o)
esFSYS_fstat                                      ./elibrary/bin//libsyscall.a(syscall.o)
                                                  ./elibrary/bin//libminic.a(elibs_stdio.o)
esFSYS_fsunreg                                    ./elibrary/bin//libsyscall.a(syscall.o)
esFSYS_fsync                                      ./elibrary/bin//libsyscall.a(syscall.o)
                                                  ./elibrary/bin//libminic.a(elibs_stdio.o)
esFSYS_ftell                                      ./elibrary/bin//libsyscall.a(syscall.o)
                                                  ./elibrary/bin//libminic.a(elibs_stdio.o)
esFSYS_ftellex                                    ./elibrary/bin//libsyscall.a(syscall.o)
                                                  ./elibrary/bin//libminic.a(elibs_stdio.o)
esFSYS_ftruncate                                  ./elibrary/bin//libsyscall.a(syscall.o)
                                                  ./elibrary/bin//libminic.a(elibs_stdio.o)
esFSYS_fwrite                                     ./elibrary/bin//libsyscall.a(syscall.o)
                                                  ./elibrary/bin//libminic.a(elibs_stdio.o)
esFSYS_getfscharset                               ./elibrary/bin//libsyscall.a(syscall.o)
                                                  ./elibrary/bin//libminic.a(elibs_stdio.o)
esFSYS_mkdir                                      ./elibrary/bin//libsyscall.a(syscall.o)
                                                  ./elibrary/bin//libminic.a(elibs_stdio.o)
esFSYS_mntfs                                      ./elibrary/bin//libsyscall.a(syscall.o)
esFSYS_mntparts                                   ./elibrary/bin//libsyscall.a(syscall.o)
esFSYS_open                                       ./elibrary/bin//libsyscall.a(syscall.o)
                                                  ./elibrary/bin//libminic.a(elibs_stdio.o)
esFSYS_opendir                                    ./elibrary/bin//libsyscall.a(syscall.o)
                                                  ./elibrary/bin//libminic.a(elibs_stdio.o)
                                                  livedesk/beetles/mod_desktop/framework/built-in.o
esFSYS_partfslck                                  ./elibrary/bin//libsyscall.a(syscall.o)
                                                  ./elibrary/bin//libminic.a(elibs_stdio.o)
esFSYS_partfsunlck                                ./elibrary/bin//libsyscall.a(syscall.o)
                                                  ./elibrary/bin//libminic.a(elibs_stdio.o)
esFSYS_pclose                                     ./elibrary/bin//libsyscall.a(syscall.o)
esFSYS_pdreg                                      ./elibrary/bin//libsyscall.a(syscall.o)
esFSYS_pdunreg                                    ./elibrary/bin//libsyscall.a(syscall.o)
esFSYS_perrclr                                    ./elibrary/bin//libsyscall.a(syscall.o)
esFSYS_perror                                     ./elibrary/bin//libsyscall.a(syscall.o)
esFSYS_pioctrl                                    ./elibrary/bin//libsyscall.a(syscall.o)
esFSYS_popen                                      ./elibrary/bin//libsyscall.a(syscall.o)
esFSYS_pread                                      ./elibrary/bin//libsyscall.a(syscall.o)
esFSYS_premove                                    ./elibrary/bin//libsyscall.a(syscall.o)
esFSYS_prename                                    ./elibrary/bin//libsyscall.a(syscall.o)
esFSYS_pwrite                                     ./elibrary/bin//libsyscall.a(syscall.o)
esFSYS_querypartupdateflag                        ./elibrary/bin//libsyscall.a(syscall.o)
esFSYS_readdir                                    ./elibrary/bin//libsyscall.a(syscall.o)
                                                  ./elibrary/bin//libminic.a(elibs_stdio.o)
                                                  livedesk/beetles/mod_desktop/framework/built-in.o
esFSYS_remove                                     ./elibrary/bin//libsyscall.a(syscall.o)
                                                  ./elibrary/bin//libminic.a(elibs_stdio.o)
esFSYS_rename                                     ./elibrary/bin//libsyscall.a(syscall.o)
                                                  ./elibrary/bin//libminic.a(elibs_stdio.o)
esFSYS_rewinddir                                  ./elibrary/bin//libsyscall.a(syscall.o)
                                                  ./elibrary/bin//libminic.a(elibs_stdio.o)
esFSYS_rmdir                                      ./elibrary/bin//libsyscall.a(syscall.o)
                                                  ./elibrary/bin//libminic.a(elibs_stdio.o)
esFSYS_setfs                                      ./elibrary/bin//libsyscall.a(syscall.o)
                                                  ./elibrary/bin//libminic.a(elibs_stdio.o)
esFSYS_statfs                                     ./elibrary/bin//libsyscall.a(syscall.o)
                                                  ./elibrary/bin//libminic.a(elibs_stdio.o)
esFSYS_statpt                                     ./elibrary/bin//libsyscall.a(syscall.o)
                                                  ./elibrary/bin//libminic.a(elibs_stdio.o)
esFSYS_umntfs                                     ./elibrary/bin//libsyscall.a(syscall.o)
esFSYS_umntparts                                  ./elibrary/bin//libsyscall.a(syscall.o)
esHID_SendMsg                                     ./elibrary/bin//libsyscall.a(syscall.o)
esHID_hiddevreg                                   ./elibrary/bin//libsyscall.a(syscall.o)
esHID_hiddevunreg                                 ./elibrary/bin//libsyscall.a(syscall.o)
esINPUT_GetLdevID                                 ./elibrary/bin//libsyscall.a(syscall.o)
                                                  livedesk/beetles/mod_desktop/msg_srv/built-in.o
esINPUT_LdevCtl                                   ./elibrary/bin//libsyscall.a(syscall.o)
                                                  livedesk/beetles/mod_desktop/msg_srv/built-in.o
esINPUT_LdevFeedback                              ./elibrary/bin//libsyscall.a(syscall.o)
esINPUT_LdevGrab                                  ./elibrary/bin//libsyscall.a(syscall.o)
                                                  livedesk/beetles/mod_desktop/msg_srv/built-in.o
esINPUT_LdevRelease                               ./elibrary/bin//libsyscall.a(syscall.o)
                                                  livedesk/beetles/mod_desktop/msg_srv/built-in.o
esINPUT_RegDev                                    ./elibrary/bin//libsyscall.a(syscall.o)
esINPUT_SendEvent                                 ./elibrary/bin//libsyscall.a(syscall.o)
esINPUT_UnregDev                                  ./elibrary/bin//libsyscall.a(syscall.o)
esINT_DisableINT                                  ./elibrary/bin//libsyscall.a(syscall.o)
esINT_EnableINT                                   ./elibrary/bin//libsyscall.a(syscall.o)
esINT_InsFIR                                      ./elibrary/bin//libsyscall.a(syscall.o)
esINT_InsISR                                      ./elibrary/bin//libsyscall.a(syscall.o)
esINT_SetIRQPrio                                  ./elibrary/bin//libsyscall.a(syscall.o)
esINT_UniFIR                                      ./elibrary/bin//libsyscall.a(syscall.o)
esINT_UniISR                                      ./elibrary/bin//libsyscall.a(syscall.o)
esKRNL_CallBack                                   ./elibrary/bin//libsyscall.a(syscall.o)
                                                  livedesk/beetles/mod_desktop/msg_srv/built-in.o
                                                  livedesk/beetles/mod_desktop/engine/built-in.o
esKRNL_DumpStack                                  ./elibrary/bin//libsyscall.a(syscall.o)
esKRNL_FlagAccept                                 ./elibrary/bin//libsyscall.a(syscall.o)
esKRNL_FlagCreate                                 ./elibrary/bin//libsyscall.a(syscall.o)
esKRNL_FlagDel                                    ./elibrary/bin//libsyscall.a(syscall.o)
esKRNL_FlagNameGet                                ./elibrary/bin//libsyscall.a(syscall.o)
esKRNL_FlagNameSet                                ./elibrary/bin//libsyscall.a(syscall.o)
esKRNL_FlagPend                                   ./elibrary/bin//libsyscall.a(syscall.o)
esKRNL_FlagPendGetFlagsRdy                        ./elibrary/bin//libsyscall.a(syscall.o)
esKRNL_FlagPost                                   ./elibrary/bin//libsyscall.a(syscall.o)
esKRNL_FlagQuery                                  ./elibrary/bin//libsyscall.a(syscall.o)
esKRNL_GetCallBack                                ./elibrary/bin//libsyscall.a(syscall.o)
esKRNL_GetTIDCur                                  ./elibrary/bin//libsyscall.a(syscall.o)
esKRNL_InterruptDisable                           ./elibrary/bin//libsyscall.a(syscall.o)
esKRNL_InterruptEnable                            ./elibrary/bin//libsyscall.a(syscall.o)
esKRNL_MboxAccept                                 ./elibrary/bin//libsyscall.a(syscall.o)
esKRNL_MboxCreate                                 ./elibrary/bin//libsyscall.a(syscall.o)
esKRNL_MboxDel                                    ./elibrary/bin//libsyscall.a(syscall.o)
esKRNL_MboxPend                                   ./elibrary/bin//libsyscall.a(syscall.o)
esKRNL_MboxPost                                   ./elibrary/bin//libsyscall.a(syscall.o)
esKRNL_MboxPostOpt                                ./elibrary/bin//libsyscall.a(syscall.o)
esKRNL_MboxQuery                                  ./elibrary/bin//libsyscall.a(syscall.o)
esKRNL_MemLeakChk                                 ./elibrary/bin//libsyscall.a(syscall.o)
esKRNL_MutexCreate                                ./elibrary/bin//libsyscall.a(syscall.o)
esKRNL_MutexDel                                   ./elibrary/bin//libsyscall.a(syscall.o)
esKRNL_MutexPend                                  ./elibrary/bin//libsyscall.a(syscall.o)
esKRNL_MutexPost                                  ./elibrary/bin//libsyscall.a(syscall.o)
esKRNL_QAccept                                    ./elibrary/bin//libsyscall.a(syscall.o)
                                                  livedesk/beetles/mod_desktop/msg_srv/built-in.o
                                                  livedesk/beetles/mod_desktop/engine/built-in.o
esKRNL_QCreate                                    ./elibrary/bin//libsyscall.a(syscall.o)
                                                  livedesk/beetles/mod_desktop/msg_srv/built-in.o
                                                  livedesk/beetles/mod_desktop/engine/built-in.o
esKRNL_QDel                                       ./elibrary/bin//libsyscall.a(syscall.o)
                                                  livedesk/beetles/mod_desktop/msg_srv/built-in.o
                                                  livedesk/beetles/mod_desktop/engine/built-in.o
esKRNL_QFlush                                     ./elibrary/bin//libsyscall.a(syscall.o)
                                                  livedesk/beetles/mod_desktop/engine/built-in.o
esKRNL_QPend                                      ./elibrary/bin//libsyscall.a(syscall.o)
esKRNL_QPost                                      ./elibrary/bin//libsyscall.a(syscall.o)
                                                  livedesk/beetles/mod_desktop/msg_srv/built-in.o
                                                  livedesk/beetles/mod_desktop/engine/built-in.o
esKRNL_QPostFront                                 ./elibrary/bin//libsyscall.a(syscall.o)
esKRNL_QPostOpt                                   ./elibrary/bin//libsyscall.a(syscall.o)
esKRNL_QQuery                                     ./elibrary/bin//libsyscall.a(syscall.o)
esKRNL_SchedLock                                  ./elibrary/bin//libsyscall.a(syscall.o)
esKRNL_SchedUnlock                                ./elibrary/bin//libsyscall.a(syscall.o)
esKRNL_SemAccept                                  ./elibrary/bin//libsyscall.a(syscall.o)
esKRNL_SemCreate                                  ./elibrary/bin//libsyscall.a(syscall.o)
                                                  livedesk/beetles/mod_desktop/msg_srv/built-in.o
                                                  livedesk/beetles/mod_desktop/functions/built-in.o
                                                  livedesk/beetles/mod_desktop/framework/built-in.o
                                                  livedesk/beetles/mod_desktop/engine/built-in.o
esKRNL_SemDel                                     ./elibrary/bin//libsyscall.a(syscall.o)
                                                  livedesk/beetles/mod_desktop/msg_srv/built-in.o
                                                  livedesk/beetles/mod_desktop/functions/built-in.o
                                                  livedesk/beetles/mod_desktop/framework/built-in.o
                                                  livedesk/beetles/mod_desktop/engine/built-in.o
esKRNL_SemPend                                    ./elibrary/bin//libsyscall.a(syscall.o)
                                                  livedesk/beetles/mod_desktop/msg_srv/built-in.o
                                                  livedesk/beetles/mod_desktop/functions/built-in.o
                                                  livedesk/beetles/mod_desktop/framework/built-in.o
                                                  livedesk/beetles/mod_desktop/engine/built-in.o
esKRNL_SemPost                                    ./elibrary/bin//libsyscall.a(syscall.o)
                                                  livedesk/beetles/mod_desktop/msg_srv/built-in.o
                                                  livedesk/beetles/mod_desktop/functions/built-in.o
                                                  livedesk/beetles/mod_desktop/framework/built-in.o
                                                  livedesk/beetles/mod_desktop/engine/built-in.o
esKRNL_SemQuery                                   ./elibrary/bin//libsyscall.a(syscall.o)
                                                  livedesk/beetles/mod_desktop/functions/built-in.o
esKRNL_SemSet                                     ./elibrary/bin//libsyscall.a(syscall.o)
esKRNL_SktAccept                                  ./elibrary/bin//libsyscall.a(syscall.o)
esKRNL_SktCreate                                  ./elibrary/bin//libsyscall.a(syscall.o)
esKRNL_SktDel                                     ./elibrary/bin//libsyscall.a(syscall.o)
esKRNL_SktPend                                    ./elibrary/bin//libsyscall.a(syscall.o)
esKRNL_SktPost                                    ./elibrary/bin//libsyscall.a(syscall.o)
esKRNL_TCreate                                    ./elibrary/bin//libsyscall.a(syscall.o)
                                                  livedesk/beetles/mod_desktop/msg_srv/built-in.o
                                                  livedesk/beetles/mod_desktop/functions/built-in.o
                                                  livedesk/beetles/mod_desktop/engine/built-in.o
esKRNL_TDel                                       ./elibrary/bin//libsyscall.a(syscall.o)
                                                  livedesk/beetles/mod_desktop/msg_srv/built-in.o
                                                  livedesk/beetles/mod_desktop/functions/built-in.o
                                                  livedesk/beetles/mod_desktop/engine/built-in.o
esKRNL_TDelReq                                    ./elibrary/bin//libsyscall.a(syscall.o)
                                                  livedesk/beetles/mod_desktop/msg_srv/built-in.o
                                                  livedesk/beetles/mod_desktop/functions/built-in.o
                                                  livedesk/beetles/mod_desktop/engine/built-in.o
esKRNL_TaskNameSet                                ./elibrary/bin//libsyscall.a(syscall.o)
                                                  livedesk/beetles/mod_desktop/msg_srv/built-in.o
                                                  livedesk/beetles/mod_desktop/engine/built-in.o
esKRNL_TaskPrefEn                                 ./elibrary/bin//libsyscall.a(syscall.o)
esKRNL_TaskQuery                                  ./elibrary/bin//libsyscall.a(syscall.o)
esKRNL_TaskResume                                 ./elibrary/bin//libsyscall.a(syscall.o)
esKRNL_TaskSuspend                                ./elibrary/bin//libsyscall.a(syscall.o)
esKRNL_Time                                       ./elibrary/bin//libsyscall.a(syscall.o)
esKRNL_TimeDly                                    ./elibrary/bin//libsyscall.a(syscall.o)
                                                  livedesk/beetles/mod_desktop/msg_srv/built-in.o
                                                  livedesk/beetles/mod_desktop/functions/built-in.o
                                                  livedesk/beetles/mod_desktop/engine/built-in.o
esKRNL_TimeDlyResume                              ./elibrary/bin//libsyscall.a(syscall.o)
esKRNL_TimeGet                                    ./elibrary/bin//libsyscall.a(syscall.o)
esKRNL_TimeSet                                    ./elibrary/bin//libsyscall.a(syscall.o)
esKRNL_TmrCreate                                  ./elibrary/bin//libsyscall.a(syscall.o)
esKRNL_TmrDel                                     ./elibrary/bin//libsyscall.a(syscall.o)
esKRNL_TmrError                                   ./elibrary/bin//libsyscall.a(syscall.o)
esKRNL_TmrRemainGet                               ./elibrary/bin//libsyscall.a(syscall.o)
esKRNL_TmrStart                                   ./elibrary/bin//libsyscall.a(syscall.o)
esKRNL_TmrStateGet                                ./elibrary/bin//libsyscall.a(syscall.o)
esKRNL_TmrStop                                    ./elibrary/bin//libsyscall.a(syscall.o)
esKRNL_Version                                    ./elibrary/bin//libsyscall.a(syscall.o)
esKSRV_ClearWatchDog                              ./elibrary/bin//libsyscall.a(syscall.o)
esKSRV_DisableWatchDog                            ./elibrary/bin//libsyscall.a(syscall.o)
esKSRV_DisableWatchDogSrv                         ./elibrary/bin//libsyscall.a(syscall.o)
esKSRV_EnableWatchDog                             ./elibrary/bin//libsyscall.a(syscall.o)
esKSRV_EnableWatchDogSrv                          ./elibrary/bin//libsyscall.a(syscall.o)
esKSRV_GetAddPara                                 ./elibrary/bin//libsyscall.a(syscall.o)
esKSRV_GetDramCfgPara                             ./elibrary/bin//libsyscall.a(syscall.o)
esKSRV_GetHighMsg                                 ./elibrary/bin//libsyscall.a(syscall.o)
esKSRV_GetLowMsg                                  ./elibrary/bin//libsyscall.a(syscall.o)
esKSRV_GetMsg                                     ./elibrary/bin//libsyscall.a(syscall.o)
                                                  livedesk/beetles/mod_desktop/msg_srv/built-in.o
esKSRV_GetPara                                    ./elibrary/bin//libsyscall.a(syscall.o)
esKSRV_GetSocID                                   ./elibrary/bin//libsyscall.a(syscall.o)
esKSRV_GetTargetPara                              ./elibrary/bin//libsyscall.a(syscall.o)
esKSRV_GetVersion                                 ./elibrary/bin//libsyscall.a(syscall.o)
esKSRV_Get_Display_Hld                            ./elibrary/bin//libsyscall.a(syscall.o)
                                                  livedesk/beetles/mod_desktop/functions/built-in.o
esKSRV_Get_Mixture_Hld                            ./elibrary/bin//libsyscall.a(syscall.o)
esKSRV_PowerOff                                   ./elibrary/bin//libsyscall.a(syscall.o)
esKSRV_Random                                     ./elibrary/bin//libsyscall.a(syscall.o)
                                                  ./elibrary/bin//libminic.a(elibs_stdlib.o)
esKSRV_Reset                                      ./elibrary/bin//libsyscall.a(syscall.o)
esKSRV_Save_Display_Hld                           ./elibrary/bin//libsyscall.a(syscall.o)
esKSRV_Save_Mixture_Hld                           ./elibrary/bin//libsyscall.a(syscall.o)
esKSRV_SendMsg                                    ./elibrary/bin//libsyscall.a(syscall.o)
esKSRV_SendMsgEx                                  ./elibrary/bin//libsyscall.a(syscall.o)
esKSRV_SysInfo                                    ./elibrary/bin//libsyscall.a(syscall.o)
esKSRV_memcpy                                     ./elibrary/bin//libsyscall.a(syscall.o)
esKSRV_memset                                     ./elibrary/bin//libsyscall.a(syscall.o)
esMEMS_Balloc                                     ./elibrary/bin//libsyscall.a(syscall.o)
                                                  livedesk/beetles/mod_desktop/functions/built-in.o
esMEMS_Bfree                                      ./elibrary/bin//libsyscall.a(syscall.o)
                                                  livedesk/beetles/mod_desktop/functions/built-in.o
esMEMS_Calloc                                     ./elibrary/bin//libsyscall.a(syscall.o)
esMEMS_CleanDCache                                ./elibrary/bin//libsyscall.a(syscall.o)
esMEMS_CleanDCacheRegion                          ./elibrary/bin//libsyscall.a(syscall.o)
esMEMS_CleanFlushCache                            ./elibrary/bin//libsyscall.a(syscall.o)
esMEMS_CleanFlushCacheRegion                      ./elibrary/bin//libsyscall.a(syscall.o)
esMEMS_CleanFlushDCache                           ./elibrary/bin//libsyscall.a(syscall.o)
esMEMS_CleanFlushDCacheRegion                     ./elibrary/bin//libsyscall.a(syscall.o)
esMEMS_CleanInvalidateCacheAll                    ./elibrary/bin//libsyscall.a(syscall.o)
esMEMS_FlushCache                                 ./elibrary/bin//libsyscall.a(syscall.o)
esMEMS_FlushCacheRegion                           ./elibrary/bin//libsyscall.a(syscall.o)
esMEMS_FlushDCache                                ./elibrary/bin//libsyscall.a(syscall.o)
esMEMS_FlushDCacheRegion                          ./elibrary/bin//libsyscall.a(syscall.o)
esMEMS_FlushICache                                ./elibrary/bin//libsyscall.a(syscall.o)
esMEMS_FlushICacheRegion                          ./elibrary/bin//libsyscall.a(syscall.o)
esMEMS_FreeMemSize                                ./elibrary/bin//libsyscall.a(syscall.o)
esMEMS_GetIoVAByPA                                ./elibrary/bin//libsyscall.a(syscall.o)
esMEMS_HeapCreate                                 ./elibrary/bin//libsyscall.a(syscall.o)
esMEMS_HeapDel                                    ./elibrary/bin//libsyscall.a(syscall.o)
esMEMS_Info                                       ./elibrary/bin//libsyscall.a(syscall.o)
esMEMS_Malloc                                     ./elibrary/bin//libsyscall.a(syscall.o)
                                                  ./elibrary/bin//libminic.a(elibs_stdlib.o)
                                                  ./elibrary/bin//libminic.a(elibs_stdio.o)
                                                  livedesk/beetles/mod_desktop/util/built-in.o
                                                  livedesk/beetles/mod_desktop/functions/built-in.o
                                                  livedesk/beetles/mod_desktop/framework/built-in.o
                                                  livedesk/beetles/mod_desktop/engine/built-in.o
esMEMS_Mfree                                      ./elibrary/bin//libsyscall.a(syscall.o)
                                                  ./elibrary/bin//libminic.a(elibs_stdlib.o)
                                                  ./elibrary/bin//libminic.a(elibs_stdio.o)
                                                  livedesk/beetles/mod_desktop/util/built-in.o
                                                  livedesk/beetles/mod_desktop/functions/built-in.o
                                                  livedesk/beetles/mod_desktop/framework/built-in.o
                                                  livedesk/beetles/mod_desktop/engine/built-in.o
esMEMS_Palloc                                     ./elibrary/bin//libsyscall.a(syscall.o)
esMEMS_Pfree                                      ./elibrary/bin//libsyscall.a(syscall.o)
esMEMS_Realloc                                    ./elibrary/bin//libsyscall.a(syscall.o)
                                                  ./elibrary/bin//libminic.a(elibs_stdlib.o)
                                                  livedesk/beetles/mod_desktop/util/built-in.o
esMEMS_TotalMemSize                               ./elibrary/bin//libsyscall.a(syscall.o)
esMEMS_VA2PA                                      ./elibrary/bin//libsyscall.a(syscall.o)
esMEMS_VMCreate                                   ./elibrary/bin//libsyscall.a(syscall.o)
esMEMS_VMDelete                                   ./elibrary/bin//libsyscall.a(syscall.o)
esMEMS_VMalloc                                    ./elibrary/bin//libsyscall.a(syscall.o)
esMEMS_VMfree                                     ./elibrary/bin//libsyscall.a(syscall.o)
esMEM_BWDisable                                   ./elibrary/bin//libsyscall.a(syscall.o)
esMEM_BWEnable                                    ./elibrary/bin//libsyscall.a(syscall.o)
esMEM_BWGet                                       ./elibrary/bin//libsyscall.a(syscall.o)
esMEM_DramSuspend                                 ./elibrary/bin//libsyscall.a(syscall.o)
esMEM_DramWakeup                                  ./elibrary/bin//libsyscall.a(syscall.o)
esMEM_MasterGet                                   ./elibrary/bin//libsyscall.a(syscall.o)
esMEM_MasterSet                                   ./elibrary/bin//libsyscall.a(syscall.o)
esMEM_RegDramAccess                               ./elibrary/bin//libsyscall.a(syscall.o)
esMEM_ReleaseDramUsrMode                          ./elibrary/bin//libsyscall.a(syscall.o)
esMEM_RequestDramUsrMode                          ./elibrary/bin//libsyscall.a(syscall.o)
esMEM_SramRelBlk                                  ./elibrary/bin//libsyscall.a(syscall.o)
esMEM_SramReqBlk                                  ./elibrary/bin//libsyscall.a(syscall.o)
esMEM_SramSwitchBlk                               ./elibrary/bin//libsyscall.a(syscall.o)
esMEM_UnRegDramAccess                             ./elibrary/bin//libsyscall.a(syscall.o)
esMODS_MClose                                     ./elibrary/bin//libsyscall.a(syscall.o)
                                                  livedesk/beetles/mod_desktop/functions/built-in.o
                                                  livedesk/beetles/mod_desktop/framework/built-in.o
                                                  livedesk/beetles/mod_desktop/engine/built-in.o
                                                  livedesk/beetles/mod_desktop/mod_desktop.o
esMODS_MInstall                                   ./elibrary/bin//libsyscall.a(syscall.o)
                                                  livedesk/beetles/mod_desktop/functions/built-in.o
                                                  livedesk/beetles/mod_desktop/framework/built-in.o
                                                  livedesk/beetles/mod_desktop/engine/built-in.o
                                                  livedesk/beetles/mod_desktop/mod_desktop.o
esMODS_MIoctrl                                    ./elibrary/bin//libsyscall.a(syscall.o)
                                                  livedesk/beetles/mod_desktop/functions/built-in.o
                                                  livedesk/beetles/mod_desktop/framework/built-in.o
                                                  livedesk/beetles/mod_desktop/engine/built-in.o
esMODS_MOpen                                      ./elibrary/bin//libsyscall.a(syscall.o)
                                                  livedesk/beetles/mod_desktop/functions/built-in.o
                                                  livedesk/beetles/mod_desktop/framework/built-in.o
                                                  livedesk/beetles/mod_desktop/engine/built-in.o
                                                  livedesk/beetles/mod_desktop/mod_desktop.o
esMODS_MRead                                      ./elibrary/bin//libsyscall.a(syscall.o)
esMODS_MUninstall                                 ./elibrary/bin//libsyscall.a(syscall.o)
                                                  livedesk/beetles/mod_desktop/functions/built-in.o
                                                  livedesk/beetles/mod_desktop/framework/built-in.o
                                                  livedesk/beetles/mod_desktop/engine/built-in.o
                                                  livedesk/beetles/mod_desktop/mod_desktop.o
esMODS_MWrite                                     ./elibrary/bin//libsyscall.a(syscall.o)
esMSTUB_GetFuncEntry                              ./elibrary/bin//libsyscall.a(syscall.o)
esMSTUB_RegFuncTbl                                ./elibrary/bin//libsyscall.a(syscall.o)
esMSTUB_UnRegFuncTbl                              ./elibrary/bin//libsyscall.a(syscall.o)
esPINS_ClearPending                               ./elibrary/bin//libsyscall.a(syscall.o)
esPINS_DisbaleInt                                 ./elibrary/bin//libsyscall.a(syscall.o)
esPINS_EnbaleInt                                  ./elibrary/bin//libsyscall.a(syscall.o)
esPINS_GetPinGrpStat                              ./elibrary/bin//libsyscall.a(syscall.o)
esPINS_GetPinStat                                 ./elibrary/bin//libsyscall.a(syscall.o)
esPINS_PinGrpRel                                  ./elibrary/bin//libsyscall.a(syscall.o)
esPINS_PinGrpReq                                  ./elibrary/bin//libsyscall.a(syscall.o)
                                                  livedesk/beetles/mod_desktop/functions/built-in.o
esPINS_QueryInt                                   ./elibrary/bin//libsyscall.a(syscall.o)
esPINS_ReadPinData                                ./elibrary/bin//libsyscall.a(syscall.o)
                                                  livedesk/beetles/mod_desktop/functions/built-in.o
esPINS_RegIntHdler                                ./elibrary/bin//libsyscall.a(syscall.o)
esPINS_SetIntMode                                 ./elibrary/bin//libsyscall.a(syscall.o)
esPINS_SetPinDrive                                ./elibrary/bin//libsyscall.a(syscall.o)
esPINS_SetPinIO                                   ./elibrary/bin//libsyscall.a(syscall.o)
esPINS_SetPinPull                                 ./elibrary/bin//libsyscall.a(syscall.o)
esPINS_SetPinStat                                 ./elibrary/bin//libsyscall.a(syscall.o)
esPINS_UnregIntHdler                              ./elibrary/bin//libsyscall.a(syscall.o)
esPINS_WritePinData                               ./elibrary/bin//libsyscall.a(syscall.o)
                                                  livedesk/beetles/mod_desktop/functions/built-in.o
esPWRMAN_EnterStandby                             ./elibrary/bin//libsyscall.a(syscall.o)
esPWRMAN_GetStandbyPara                           ./elibrary/bin//libsyscall.a(syscall.o)
esPWRMAN_LockCpuFreq                              ./elibrary/bin//libsyscall.a(syscall.o)
esPWRMAN_RegDevice                                ./elibrary/bin//libsyscall.a(syscall.o)
esPWRMAN_RelPwrmanMode                            ./elibrary/bin//libsyscall.a(syscall.o)
esPWRMAN_ReqPwrmanMode                            ./elibrary/bin//libsyscall.a(syscall.o)
esPWRMAN_SetStandbyMode                           ./elibrary/bin//libsyscall.a(syscall.o)
esPWRMAN_UnlockCpuFreq                            ./elibrary/bin//libsyscall.a(syscall.o)
esPWRMAN_UnregDevice                              ./elibrary/bin//libsyscall.a(syscall.o)
esPWRMAN_UsrEventNotify                           ./elibrary/bin//libsyscall.a(syscall.o)
esRESM_RClose                                     ./elibrary/bin//libsyscall.a(syscall.o)
esRESM_ROpen                                      ./elibrary/bin//libsyscall.a(syscall.o)
esRESM_RRead                                      ./elibrary/bin//libsyscall.a(syscall.o)
esRESM_RSeek                                      ./elibrary/bin//libsyscall.a(syscall.o)
esSIOS_getchar                                    ./elibrary/bin//libsyscall.a(syscall.o)
esSIOS_gets                                       ./elibrary/bin//libsyscall.a(syscall.o)
esSIOS_putarg                                     ./elibrary/bin//libsyscall.a(syscall.o)
esSIOS_putstr                                     ./elibrary/bin//libsyscall.a(syscall.o)
                                                  ./elibrary/bin//libminic.a(elibs_stdio.o)
esSIOS_setbaud                                    ./elibrary/bin//libsyscall.a(syscall.o)
esSVC_RegCloseNode                                ./elibrary/bin//libsyscall.a(syscall.o)
esSVC_RegClrError                                 ./elibrary/bin//libsyscall.a(syscall.o)
esSVC_RegCreateKey                                ./elibrary/bin//libsyscall.a(syscall.o)
esSVC_RegCreatePath                               ./elibrary/bin//libsyscall.a(syscall.o)
esSVC_RegCreateSet                                ./elibrary/bin//libsyscall.a(syscall.o)
esSVC_RegDeleteKey                                ./elibrary/bin//libsyscall.a(syscall.o)
esSVC_RegDeleteNode                               ./elibrary/bin//libsyscall.a(syscall.o)
esSVC_RegDeletePath                               ./elibrary/bin//libsyscall.a(syscall.o)
esSVC_RegDeleteSet                                ./elibrary/bin//libsyscall.a(syscall.o)
esSVC_RegGetError                                 ./elibrary/bin//libsyscall.a(syscall.o)
esSVC_RegGetFirstKey                              ./elibrary/bin//libsyscall.a(syscall.o)
esSVC_RegGetFirstSet                              ./elibrary/bin//libsyscall.a(syscall.o)
esSVC_RegGetKeyCount                              ./elibrary/bin//libsyscall.a(syscall.o)
esSVC_RegGetKeyValue                              ./elibrary/bin//libsyscall.a(syscall.o)
esSVC_RegGetNextKey                               ./elibrary/bin//libsyscall.a(syscall.o)
esSVC_RegGetNextSet                               ./elibrary/bin//libsyscall.a(syscall.o)
esSVC_RegGetRootPath                              ./elibrary/bin//libsyscall.a(syscall.o)
esSVC_RegGetSetCount                              ./elibrary/bin//libsyscall.a(syscall.o)
esSVC_RegIni2Reg                                  ./elibrary/bin//libsyscall.a(syscall.o)
esSVC_RegOpenNode                                 ./elibrary/bin//libsyscall.a(syscall.o)
esSVC_RegReg2Ini                                  ./elibrary/bin//libsyscall.a(syscall.o)
esSVC_RegSetKeyValue                              ./elibrary/bin//libsyscall.a(syscall.o)
esSVC_RegSetRootPath                              ./elibrary/bin//libsyscall.a(syscall.o)
esSVC_ResourceRel                                 ./elibrary/bin//libsyscall.a(syscall.o)
esSVC_ResourceReq                                 ./elibrary/bin//libsyscall.a(syscall.o)
esTIME_ContiCntr                                  ./elibrary/bin//libsyscall.a(syscall.o)
esTIME_GetDate                                    ./elibrary/bin//libsyscall.a(syscall.o)
                                                  ./elibrary/bin//libminic.a(elibs_stdio.o)
esTIME_GetTime                                    ./elibrary/bin//libsyscall.a(syscall.o)
                                                  ./elibrary/bin//libminic.a(elibs_stdio.o)
esTIME_PauseCntr                                  ./elibrary/bin//libsyscall.a(syscall.o)
esTIME_QuerryAlarm                                ./elibrary/bin//libsyscall.a(syscall.o)
esTIME_QuerryCntr                                 ./elibrary/bin//libsyscall.a(syscall.o)
esTIME_QuerryCntrStat                             ./elibrary/bin//libsyscall.a(syscall.o)
esTIME_QuerryTimer                                ./elibrary/bin//libsyscall.a(syscall.o)
esTIME_ReleaseAlarm                               ./elibrary/bin//libsyscall.a(syscall.o)
esTIME_ReleaseCntr                                ./elibrary/bin//libsyscall.a(syscall.o)
esTIME_ReleaseTimer                               ./elibrary/bin//libsyscall.a(syscall.o)
esTIME_RequestAlarm                               ./elibrary/bin//libsyscall.a(syscall.o)
esTIME_RequestCntr                                ./elibrary/bin//libsyscall.a(syscall.o)
esTIME_RequestTimer                               ./elibrary/bin//libsyscall.a(syscall.o)
esTIME_SetCntrPrescale                            ./elibrary/bin//libsyscall.a(syscall.o)
esTIME_SetCntrValue                               ./elibrary/bin//libsyscall.a(syscall.o)
esTIME_SetDate                                    ./elibrary/bin//libsyscall.a(syscall.o)
esTIME_SetTime                                    ./elibrary/bin//libsyscall.a(syscall.o)
esTIME_StartAlarm                                 ./elibrary/bin//libsyscall.a(syscall.o)
esTIME_StartCntr                                  ./elibrary/bin//libsyscall.a(syscall.o)
esTIME_StartTimer                                 ./elibrary/bin//libsyscall.a(syscall.o)
esTIME_StopAlarm                                  ./elibrary/bin//libsyscall.a(syscall.o)
esTIME_StopCntr                                   ./elibrary/bin//libsyscall.a(syscall.o)
esTIME_StopTimer                                  ./elibrary/bin//libsyscall.a(syscall.o)
fclose                                            /home/yuzuki/WorkSpace/melis-v3.0/melis-4.x-release/toolchain/riscv64-elf-x86_64-20201104/bin/../lib/gcc/riscv64-unknown-elf/8.4.0/../../../../riscv64-unknown-elf/lib/rv64imafdcxtheadc/lp64d/libc.a(lib_a-fclose.o)
                                                  livedesk/beetles/mod_desktop/functions/built-in.o
fflush                                            /home/yuzuki/WorkSpace/melis-v3.0/melis-4.x-release/toolchain/riscv64-elf-x86_64-20201104/bin/../lib/gcc/riscv64-unknown-elf/8.4.0/../../../../riscv64-unknown-elf/lib/rv64imafdcxtheadc/lp64d/libc.a(lib_a-fflush.o)
                                                  /home/yuzuki/WorkSpace/melis-v3.0/melis-4.x-release/toolchain/riscv64-elf-x86_64-20201104/bin/../lib/gcc/riscv64-unknown-elf/8.4.0/../../../../riscv64-unknown-elf/lib/rv64imafdcxtheadc/lp64d/libc.a(lib_a-refill.o)
fioctrl                                           ./elibrary/bin//libsyscall.a(syscall_fops.o)
fopen                                             /home/yuzuki/WorkSpace/melis-v3.0/melis-4.x-release/toolchain/riscv64-elf-x86_64-20201104/bin/../lib/gcc/riscv64-unknown-elf/8.4.0/../../../../riscv64-unknown-elf/lib/rv64imafdcxtheadc/lp64d/libc.a(lib_a-fopen.o)
                                                  livedesk/beetles/mod_desktop/functions/built-in.o
fseek                                             /home/yuzuki/WorkSpace/melis-v3.0/melis-4.x-release/toolchain/riscv64-elf-x86_64-20201104/bin/../lib/gcc/riscv64-unknown-elf/8.4.0/../../../../riscv64-unknown-elf/lib/rv64imafdcxtheadc/lp64d/libc.a(lib_a-fseek.o)
fseeko                                            /home/yuzuki/WorkSpace/melis-v3.0/melis-4.x-release/toolchain/riscv64-elf-x86_64-20201104/bin/../lib/gcc/riscv64-unknown-elf/8.4.0/../../../../riscv64-unknown-elf/lib/rv64imafdcxtheadc/lp64d/libc.a(lib_a-fseeko.o)
fsync                                             ./elibrary/bin//libsyscall.a(syscall_fops.o)
ftruncate                                         ./elibrary/bin//libsyscall.a(syscall_fops.o)
fwrite                                            /home/yuzuki/WorkSpace/melis-v3.0/melis-4.x-release/toolchain/riscv64-elf-x86_64-20201104/bin/../lib/gcc/riscv64-unknown-elf/8.4.0/../../../../riscv64-unknown-elf/lib/rv64imafdcxtheadc/lp64d/libc.a(lib_a-fwrite.o)
                                                  livedesk/beetles/mod_desktop/functions/built-in.o
g_count                                           ./elibrary/bin//libmediainfo.a(Tag_ID3.o)
g_encrytp_mod                                     ./elibrary/bin//libmediainfo.a(audio_fs_direct.o)
get_channel_list_from_file                        livedesk/beetles/mod_desktop/engine/built-in.o
h_radio                                           livedesk/beetles/mod_desktop/engine/built-in.o
ioctl                                             ./elibrary/bin//libsyscall.a(syscall_fops.o)
                                                  livedesk/beetles/mod_desktop/functions/built-in.o
                                                  livedesk/beetles/mod_desktop/engine/built-in.o
memchr                                            /home/yuzuki/WorkSpace/melis-v3.0/melis-4.x-release/toolchain/riscv64-elf-x86_64-20201104/bin/../lib/gcc/riscv64-unknown-elf/8.4.0/../../../../riscv64-unknown-elf/lib/rv64imafdcxtheadc/lp64d/libc.a(lib_a-memchr.o)
                                                  /home/yuzuki/WorkSpace/melis-v3.0/melis-4.x-release/toolchain/riscv64-elf-x86_64-20201104/bin/../lib/gcc/riscv64-unknown-elf/8.4.0/../../../../riscv64-unknown-elf/lib/rv64imafdcxtheadc/lp64d/libc.a(lib_a-fvwrite.o)
                                                  /home/yuzuki/WorkSpace/melis-v3.0/melis-4.x-release/toolchain/riscv64-elf-x86_64-20201104/bin/../lib/gcc/riscv64-unknown-elf/8.4.0/../../../../riscv64-unknown-elf/lib/rv64imafdcxtheadc/lp64d/libc.a(lib_a-strstr.o)
memcmp                                            /home/yuzuki/WorkSpace/melis-v3.0/melis-4.x-release/toolchain/riscv64-elf-x86_64-20201104/bin/../lib/gcc/riscv64-unknown-elf/8.4.0/../../../../riscv64-unknown-elf/lib/rv64imafdcxtheadc/lp64d/libc.a(lib_a-memcmp.o)
                                                  /home/yuzuki/WorkSpace/melis-v3.0/melis-4.x-release/toolchain/riscv64-elf-x86_64-20201104/bin/../lib/gcc/riscv64-unknown-elf/8.4.0/../../../../riscv64-unknown-elf/lib/rv64imafdcxtheadc/lp64d/libc.a(lib_a-strstr.o)
memcpy                                            /home/yuzuki/WorkSpace/melis-v3.0/melis-4.x-release/toolchain/riscv64-elf-x86_64-20201104/bin/../lib/gcc/riscv64-unknown-elf/8.4.0/../../../../riscv64-unknown-elf/lib/rv64imafdcxtheadc/lp64d/libc.a(lib_a-memcpy.o)
                                                  /home/yuzuki/WorkSpace/melis-v3.0/melis-4.x-release/toolchain/riscv64-elf-x86_64-20201104/bin/../lib/gcc/riscv64-unknown-elf/8.4.0/../../../../riscv64-unknown-elf/lib/rv64imafdcxtheadc/lp64d/libc.a(lib_a-fvwrite.o)
                                                  ./elibrary/bin//libmediainfo.a(Tag_ID3.o)
                                                  ./elibrary/bin//libmediainfo.a(bitstream.o)
                                                  ./elibrary/bin//libmediainfo.a(AudioInfo_DTS.o)
                                                  ./elibrary/bin//libmediainfo.a(AudioInfo_FLAC.o)
                                                  ./elibrary/bin//libmediainfo.a(AudioInfo_RA.o)
                                                  ./elibrary/bin//libmediainfo.a(AudioInfo_WMA.o)
                                                  ./elibrary/bin//liblzma.a(LzmaDec.o)
                                                  livedesk/beetles/mod_desktop/engine/built-in.o
memmove                                           /home/yuzuki/WorkSpace/melis-v3.0/melis-4.x-release/toolchain/riscv64-elf-x86_64-20201104/bin/../lib/gcc/riscv64-unknown-elf/8.4.0/../../../../riscv64-unknown-elf/lib/rv64imafdcxtheadc/lp64d/libc.a(lib_a-memmove-stub.o)
                                                  /home/yuzuki/WorkSpace/melis-v3.0/melis-4.x-release/toolchain/riscv64-elf-x86_64-20201104/bin/../lib/gcc/riscv64-unknown-elf/8.4.0/../../../../riscv64-unknown-elf/lib/rv64imafdcxtheadc/lp64d/libc.a(lib_a-fvwrite.o)
memset                                            /home/yuzuki/WorkSpace/melis-v3.0/melis-4.x-release/toolchain/riscv64-elf-x86_64-20201104/bin/../lib/gcc/riscv64-unknown-elf/8.4.0/../../../../riscv64-unknown-elf/lib/rv64imafdcxtheadc/lp64d/libc.a(lib_a-memset.o)
                                                  /home/yuzuki/WorkSpace/melis-v3.0/melis-4.x-release/toolchain/riscv64-elf-x86_64-20201104/bin/../lib/gcc/riscv64-unknown-elf/8.4.0/../../../../riscv64-unknown-elf/lib/rv64imafdcxtheadc/lp64d/libc.a(lib_a-fseeko.o)
                                                  /home/yuzuki/WorkSpace/melis-v3.0/melis-4.x-release/toolchain/riscv64-elf-x86_64-20201104/bin/../lib/gcc/riscv64-unknown-elf/8.4.0/../../../../riscv64-unknown-elf/lib/rv64imafdcxtheadc/lp64d/libc.a(lib_a-findfp.o)
                                                  ./elibrary/bin//libmediainfo.a(Tag_APE.o)
                                                  ./elibrary/bin//libmediainfo.a(AudioInfo_FLAC.o)
                                                  ./elibrary/bin//libmediainfo.a(AudioInfo_MID_timidity.o)
                                                  ./elibrary/bin//libmediainfo.a(AudioInfo_RA.o)
                                                  ./elibrary/bin//libmediainfo.a(GetAudio_format.o)
                                                  ./elibrary/bin//libminic.a(elibs_stdio.o)
                                                  livedesk/beetles/mod_desktop/msg_srv/built-in.o
                                                  livedesk/beetles/mod_desktop/functions/built-in.o
                                                  livedesk/beetles/mod_desktop/framework/built-in.o
message_loop_win_get_default                      livedesk/beetles/mod_desktop/framework/built-in.o
                                                  livedesk/beetles/mod_desktop/desktop_api.o
message_loop_win_set_default                      livedesk/beetles/mod_desktop/framework/built-in.o
                                                  livedesk/beetles/mod_desktop/desktop_api.o
mini_allocator_default_alloc                      livedesk/beetles/mod_desktop/util/built-in.o
mini_allocator_default_create                     livedesk/beetles/mod_desktop/util/built-in.o
                                                  livedesk/beetles/mod_desktop/framework/built-in.o
mini_allocator_default_destroy                    livedesk/beetles/mod_desktop/util/built-in.o
mini_allocator_default_free                       livedesk/beetles/mod_desktop/util/built-in.o
mini_allocator_default_realloc                    livedesk/beetles/mod_desktop/util/built-in.o
mini_xml_parser_create                            livedesk/beetles/mod_desktop/framework/built-in.o
mini_xml_parser_destroy                           livedesk/beetles/mod_desktop/framework/built-in.o
mini_xml_parser_parse                             livedesk/beetles/mod_desktop/framework/built-in.o
mini_xml_parser_set_builder                       livedesk/beetles/mod_desktop/framework/built-in.o
mkdir                                             ./elibrary/bin//libsyscall.a(syscall_fops.o)
modinfo_desktop                                   livedesk/beetles/mod_desktop/magic.o
msg_emit_deinit                                   livedesk/beetles/mod_desktop/msg_srv/built-in.o
                                                  livedesk/beetles/mod_desktop/desktop_api.o
msg_emit_init                                     livedesk/beetles/mod_desktop/msg_srv/built-in.o
                                                  livedesk/beetles/mod_desktop/desktop_api.o
msg_emit_register_hook                            livedesk/beetles/mod_desktop/msg_srv/built-in.o
                                                  livedesk/beetles/mod_desktop/desktop_api.o
msg_emit_register_tvout_tp_hook                   livedesk/beetles/mod_desktop/msg_srv/built-in.o
                                                  livedesk/beetles/mod_desktop/desktop_api.o
msg_srv_deinit_key_channel                        livedesk/beetles/mod_desktop/msg_srv/built-in.o
msg_srv_deinit_ksrv_channel                       livedesk/beetles/mod_desktop/msg_srv/built-in.o
msg_srv_deinit_tp_channel                         livedesk/beetles/mod_desktop/msg_srv/built-in.o
msg_srv_dispatch_message                          livedesk/beetles/mod_desktop/msg_srv/built-in.o
msg_srv_get_message                               livedesk/beetles/mod_desktop/msg_srv/built-in.o
msg_srv_init_key_channel                          livedesk/beetles/mod_desktop/msg_srv/built-in.o
msg_srv_init_ksrv_channel                         livedesk/beetles/mod_desktop/msg_srv/built-in.o
msg_srv_init_tp_channel                           livedesk/beetles/mod_desktop/msg_srv/built-in.o
msg_srv_thread                                    livedesk/beetles/mod_desktop/msg_srv/built-in.o
my_isdigit                                        livedesk/beetles/mod_desktop/engine/built-in.o
my_output_format                                  livedesk/beetles/mod_desktop/engine/built-in.o
myatoi                                            livedesk/beetles/mod_desktop/engine/built-in.o
myitoa                                            livedesk/beetles/mod_desktop/engine/built-in.o
now_playing_file                                  livedesk/beetles/mod_desktop/engine/built-in.o
open                                              /home/yuzuki/WorkSpace/melis-v3.0/melis-4.x-release/toolchain/riscv64-elf-x86_64-20201104/bin/../lib/gcc/riscv64-unknown-elf/8.4.0/../../../../riscv64-unknown-elf/lib/rv64imafdcxtheadc/lp64d/libc.a(lib_a-sysopen.o)
                                                  livedesk/beetles/mod_desktop/functions/built-in.o
                                                  livedesk/beetles/mod_desktop/engine/built-in.o
opendir                                           ./elibrary/bin//libsyscall.a(syscall_fops.o)
printk                                            ./elibrary/bin//libminic.a(elibs_stdio.o)
                                                  ./elibrary/bin//libmediainfo.a(AudioInfo_DRA.o)
                                                  ./elibrary/bin//libmediainfo.a(AudioInfo_FLAC.o)
                                                  ./elibrary/bin//libminic.a(elibs_stdlib.o)
                                                  livedesk/beetles/mod_desktop/msg_srv/built-in.o
                                                  livedesk/beetles/mod_desktop/functions/built-in.o
                                                  livedesk/beetles/mod_desktop/framework/built-in.o
                                                  livedesk/beetles/mod_desktop/engine/built-in.o
                                                  livedesk/beetles/mod_desktop/mod_desktop.o
pull_down_gpio                                    livedesk/beetles/mod_desktop/functions/built-in.o
pull_up_gpio                                      livedesk/beetles/mod_desktop/functions/built-in.o
readdir                                           ./elibrary/bin//libsyscall.a(syscall_fops.o)
remove                                            ./elibrary/bin//libsyscall.a(syscall_fops.o)
rewinddir                                         ./elibrary/bin//libsyscall.a(syscall_fops.o)
rmdir                                             ./elibrary/bin//libsyscall.a(syscall_fops.o)
rt_device_register                                ./elibrary/bin//libsyscall.a(syscall.o)
rt_device_unregister                              ./elibrary/bin//libsyscall.a(syscall.o)
save_backlight_to_mixture                         livedesk/beetles/mod_desktop/functions/built-in.o
setAudioEncrytpMode                               ./elibrary/bin//libmediainfo.a(GetAudio_format.o)
                                                  ./elibrary/bin//libmediainfo.a(elibs_mediainf.o)
set_encrytp_mod                                   ./elibrary/bin//libmediainfo.a(audio_fs_direct.o)
                                                  ./elibrary/bin//libmediainfo.a(GetAudio_format.o)
settimeofday                                      ./elibrary/bin//libsyscall.a(syscall_fops.o)
statfs                                            ./elibrary/bin//libsyscall.a(syscall_fops.o)
strcat                                            /home/yuzuki/WorkSpace/melis-v3.0/melis-4.x-release/toolchain/riscv64-elf-x86_64-20201104/bin/../lib/gcc/riscv64-unknown-elf/8.4.0/../../../../riscv64-unknown-elf/lib/rv64imafdcxtheadc/lp64d/libc.a(lib_a-strcat.o)
                                                  livedesk/beetles/mod_desktop/framework/built-in.o
strchr                                            /home/yuzuki/WorkSpace/melis-v3.0/melis-4.x-release/toolchain/riscv64-elf-x86_64-20201104/bin/../lib/gcc/riscv64-unknown-elf/8.4.0/../../../../riscv64-unknown-elf/lib/rv64imafdcxtheadc/lp64d/libc.a(lib_a-strchr.o)
                                                  /home/yuzuki/WorkSpace/melis-v3.0/melis-4.x-release/toolchain/riscv64-elf-x86_64-20201104/bin/../lib/gcc/riscv64-unknown-elf/8.4.0/../../../../riscv64-unknown-elf/lib/rv64imafdcxtheadc/lp64d/libc.a(lib_a-strstr.o)
strcmp                                            /home/yuzuki/WorkSpace/melis-v3.0/melis-4.x-release/toolchain/riscv64-elf-x86_64-20201104/bin/../lib/gcc/riscv64-unknown-elf/8.4.0/../../../../riscv64-unknown-elf/lib/rv64imafdcxtheadc/lp64d/libc.a(lib_a-strcmp.o)
                                                  ./elibrary/bin//libmediainfo.a(Tag_APE.o)
                                                  ./elibrary/bin//libmediainfo.a(Tag_Enoding.o)
                                                  ./elibrary/bin//libmediainfo.a(Tag_ID3.o)
                                                  ./elibrary/bin//libmediainfo.a(AudioInfo_FLAC.o)
                                                  ./elibrary/bin//libmediainfo.a(AudioInfo_RA.o)
                                                  ./elibrary/bin//libmediainfo.a(GetAudio_format.o)
                                                  livedesk/beetles/mod_desktop/framework/built-in.o
strcpy                                            /home/yuzuki/WorkSpace/melis-v3.0/melis-4.x-release/toolchain/riscv64-elf-x86_64-20201104/bin/../lib/gcc/riscv64-unknown-elf/8.4.0/../../../../riscv64-unknown-elf/lib/rv64imafdcxtheadc/lp64d/libc.a(lib_a-strcpy.o)
                                                  /home/yuzuki/WorkSpace/melis-v3.0/melis-4.x-release/toolchain/riscv64-elf-x86_64-20201104/bin/../lib/gcc/riscv64-unknown-elf/8.4.0/../../../../riscv64-unknown-elf/lib/rv64imafdcxtheadc/lp64d/libc.a(lib_a-strcat.o)
                                                  ./elibrary/bin//libmediainfo.a(GetAudio_format.o)
                                                  livedesk/beetles/mod_desktop/framework/built-in.o
strlen                                            /home/yuzuki/WorkSpace/melis-v3.0/melis-4.x-release/toolchain/riscv64-elf-x86_64-20201104/bin/../lib/gcc/riscv64-unknown-elf/8.4.0/../../../../riscv64-unknown-elf/lib/rv64imafdcxtheadc/lp64d/libc.a(lib_a-strlen.o)
                                                  ./elibrary/bin//libmediainfo.a(GetAudio_format.o)
                                                  livedesk/beetles/mod_desktop/framework/built-in.o
strncmp                                           /home/yuzuki/WorkSpace/melis-v3.0/melis-4.x-release/toolchain/riscv64-elf-x86_64-20201104/bin/../lib/gcc/riscv64-unknown-elf/8.4.0/../../../../riscv64-unknown-elf/lib/rv64imafdcxtheadc/lp64d/libc.a(lib_a-strncmp.o)
                                                  ./elibrary/bin//libmediainfo.a(Tag_APE.o)
                                                  ./elibrary/bin//libmediainfo.a(AudioInfo_AMR.o)
                                                  ./elibrary/bin//libmediainfo.a(AudioInfo_MID_timidity.o)
                                                  ./elibrary/bin//libmediainfo.a(GetAudio_format.o)
strncpy                                           /home/yuzuki/WorkSpace/melis-v3.0/melis-4.x-release/toolchain/riscv64-elf-x86_64-20201104/bin/../lib/gcc/riscv64-unknown-elf/8.4.0/../../../../riscv64-unknown-elf/lib/rv64imafdcxtheadc/lp64d/libc.a(lib_a-strncpy.o)
                                                  livedesk/beetles/mod_desktop/framework/built-in.o
                                                  livedesk/beetles/mod_desktop/engine/built-in.o
strstr                                            /home/yuzuki/WorkSpace/melis-v3.0/melis-4.x-release/toolchain/riscv64-elf-x86_64-20201104/bin/../lib/gcc/riscv64-unknown-elf/8.4.0/../../../../riscv64-unknown-elf/lib/rv64imafdcxtheadc/lp64d/libc.a(lib_a-strstr.o)
                                                  livedesk/beetles/mod_desktop/framework/built-in.o
to_quit_dsk_wkm                                   livedesk/beetles/mod_desktop/engine/built-in.o
vlc_towc                                          ./elibrary/bin//libmediainfo.a(AudioInfo_FLAC.o)
windows1251_unicode                               ./elibrary/bin//libmediainfo.a(Tag_Enoding.o)
write_channel_list_to_file                        livedesk/beetles/mod_desktop/engine/built-in.o
